Archive member included to satisfy reference by file (symbol)

../../spresense-exported-sdk/nuttx/libs/libnuttx.a(c-lib_printf.o)
                              CMakeFiles/hellocpp.dir/main.cpp.obj (printf)
../../spresense-exported-sdk/nuttx/libs/libnuttx.a(c-lib_vfprintf.o)
                              ../../spresense-exported-sdk/nuttx/libs/libnuttx.a(c-lib_printf.o) (vfprintf)
../../spresense-exported-sdk/nuttx/libs/libnuttx.a(arch-cxd56_start.o)
                              (__start)
../../spresense-exported-sdk/nuttx/libs/libnuttx.a(arch-cxd56_uart.o)
                              ../../spresense-exported-sdk/nuttx/libs/libnuttx.a(arch-cxd56_start.o) (cxd56_lowsetup)
../../spresense-exported-sdk/nuttx/libs/libnuttx.a(arch-up_vectors.o)
                              (_vectors)
../../spresense-exported-sdk/nuttx/libs/libnuttx.a(board-cxd56_boot.o)
                              ../../spresense-exported-sdk/nuttx/libs/libnuttx.a(arch-cxd56_start.o) (cxd56_boardinitialize)
../../spresense-exported-sdk/nuttx/libs/libnuttx.a(board-cxd56_main.o)
                              (spresense_main)
../../spresense-exported-sdk/nuttx/libs/libnuttx.a(sched-nx_start.o)
                              ../../spresense-exported-sdk/nuttx/libs/libnuttx.a(arch-cxd56_start.o) (nx_start)
../../spresense-exported-sdk/nuttx/libs/libnuttx.a(sched-sched_getstreams.o)
                              ../../spresense-exported-sdk/nuttx/libs/libnuttx.a(c-lib_printf.o) (sched_getstreams)
../../spresense-exported-sdk/nuttx/libs/libnuttx.a(drivers-syslog_initialize.o)
                              ../../spresense-exported-sdk/nuttx/libs/libnuttx.a(sched-nx_start.o) (syslog_initialize)
../../spresense-exported-sdk/nuttx/libs/libnuttx.a(c-dq_addfirst.o)
                              ../../spresense-exported-sdk/nuttx/libs/libnuttx.a(sched-nx_start.o) (dq_addfirst)
../../spresense-exported-sdk/nuttx/libs/libnuttx.a(c-lib_filesem.o)
                              ../../spresense-exported-sdk/nuttx/libs/libnuttx.a(c-lib_vfprintf.o) (lib_take_semaphore)
../../spresense-exported-sdk/nuttx/libs/libnuttx.a(c-lib_libvsprintf.o)
                              ../../spresense-exported-sdk/nuttx/libs/libnuttx.a(c-lib_vfprintf.o) (lib_vsprintf)
../../spresense-exported-sdk/nuttx/libs/libnuttx.a(c-lib_memset.o)
                              ../../spresense-exported-sdk/nuttx/libs/libnuttx.a(sched-nx_start.o) (memset)
../../spresense-exported-sdk/nuttx/libs/libnuttx.a(c-lib_stdoutstream.o)
                              ../../spresense-exported-sdk/nuttx/libs/libnuttx.a(c-lib_vfprintf.o) (lib_stdoutstream)
../../spresense-exported-sdk/nuttx/libs/libnuttx.a(c-lib_strncpy.o)
                              ../../spresense-exported-sdk/nuttx/libs/libnuttx.a(sched-nx_start.o) (strncpy)
../../spresense-exported-sdk/nuttx/libs/libnuttx.a(c-lib_strnlen.o)
                              ../../spresense-exported-sdk/nuttx/libs/libnuttx.a(c-lib_libvsprintf.o) (strnlen)
../../spresense-exported-sdk/nuttx/libs/libnuttx.a(c-lib_ultoa_invert.o)
                              ../../spresense-exported-sdk/nuttx/libs/libnuttx.a(c-lib_libvsprintf.o) (__ultoa_invert)
../../spresense-exported-sdk/nuttx/libs/libnuttx.a(c-sem_init.o)
                              ../../spresense-exported-sdk/nuttx/libs/libnuttx.a(c-lib_filesem.o) (nxsem_init)
../../spresense-exported-sdk/nuttx/libs/libnuttx.a(mm-umm_initialize.o)
                              ../../spresense-exported-sdk/nuttx/libs/libnuttx.a(sched-nx_start.o) (umm_initialize)
../../spresense-exported-sdk/nuttx/libs/libnuttx.a(arch-cxd56_allocateheap.o)
                              ../../spresense-exported-sdk/nuttx/libs/libnuttx.a(sched-nx_start.o) (up_allocate_heap)
../../spresense-exported-sdk/nuttx/libs/libnuttx.a(arch-cxd56_clock.o)
                              ../../spresense-exported-sdk/nuttx/libs/libnuttx.a(arch-cxd56_uart.o) (cxd56_img_uart_clock_enable)
../../spresense-exported-sdk/nuttx/libs/libnuttx.a(arch-cxd56_delay.o)
                              ../../spresense-exported-sdk/nuttx/libs/libnuttx.a(arch-cxd56_clock.o) (up_udelay)
../../spresense-exported-sdk/nuttx/libs/libnuttx.a(arch-cxd56_idle.o)
                              ../../spresense-exported-sdk/nuttx/libs/libnuttx.a(sched-nx_start.o) (up_idle)
../../spresense-exported-sdk/nuttx/libs/libnuttx.a(arch-cxd56_pinconfig.o)
                              ../../spresense-exported-sdk/nuttx/libs/libnuttx.a(arch-cxd56_uart.o) (cxd56_pin_configs)
../../spresense-exported-sdk/nuttx/libs/libnuttx.a(arch-cxd56_powermgr.o)
                              ../../spresense-exported-sdk/nuttx/libs/libnuttx.a(arch-cxd56_uart.o) (cxd56_pm_register_callback)
../../spresense-exported-sdk/nuttx/libs/libnuttx.a(arch-cxd56_serial.o)
                              ../../spresense-exported-sdk/nuttx/libs/libnuttx.a(arch-cxd56_start.o) (up_earlyserialinit)
../../spresense-exported-sdk/nuttx/libs/libnuttx.a(arch-up_exception.o)
                              ../../spresense-exported-sdk/nuttx/libs/libnuttx.a(arch-up_vectors.o) (exception_common)
../../spresense-exported-sdk/nuttx/libs/libnuttx.a(arch-up_initialize.o)
                              ../../spresense-exported-sdk/nuttx/libs/libnuttx.a(sched-nx_start.o) (up_initialize)
../../spresense-exported-sdk/nuttx/libs/libnuttx.a(arch-up_initialstate.o)
                              ../../spresense-exported-sdk/nuttx/libs/libnuttx.a(sched-nx_start.o) (up_initial_state)
../../spresense-exported-sdk/nuttx/libs/libnuttx.a(arch-up_interruptcontext.o)
                              ../../spresense-exported-sdk/nuttx/libs/libnuttx.a(arch-cxd56_clock.o) (up_interrupt_context)
../../spresense-exported-sdk/nuttx/libs/libnuttx.a(arch-up_modifyreg32.o)
                              ../../spresense-exported-sdk/nuttx/libs/libnuttx.a(arch-cxd56_clock.o) (modifyreg32)
../../spresense-exported-sdk/nuttx/libs/libnuttx.a(net-net_initialize.o)
                              ../../spresense-exported-sdk/nuttx/libs/libnuttx.a(sched-nx_start.o) (net_initialize)
../../spresense-exported-sdk/nuttx/libs/libnuttx.a(net-net_lock.o)
                              ../../spresense-exported-sdk/nuttx/libs/libnuttx.a(net-net_initialize.o) (net_lockinitialize)
../../spresense-exported-sdk/nuttx/libs/libnuttx.a(net-usrsock_conn.o)
                              ../../spresense-exported-sdk/nuttx/libs/libnuttx.a(net-net_initialize.o) (usrsock_initialize)
../../spresense-exported-sdk/nuttx/libs/libnuttx.a(net-usrsock_dev.o)
                              ../../spresense-exported-sdk/nuttx/libs/libnuttx.a(net-usrsock_conn.o) (usrsockdev_register)
../../spresense-exported-sdk/nuttx/libs/libnuttx.a(net-usrsock_event.o)
                              ../../spresense-exported-sdk/nuttx/libs/libnuttx.a(net-usrsock_dev.o) (usrsock_event)
../../spresense-exported-sdk/nuttx/libs/libnuttx.a(fs-fs_initialize.o)
                              ../../spresense-exported-sdk/nuttx/libs/libnuttx.a(sched-nx_start.o) (fs_initialize)
../../spresense-exported-sdk/nuttx/libs/libnuttx.a(fs-fs_inode.o)
                              ../../spresense-exported-sdk/nuttx/libs/libnuttx.a(fs-fs_initialize.o) (inode_initialize)
../../spresense-exported-sdk/nuttx/libs/libnuttx.a(fs-fs_registerdriver.o)
                              ../../spresense-exported-sdk/nuttx/libs/libnuttx.a(net-usrsock_dev.o) (register_driver)
../../spresense-exported-sdk/nuttx/libs/libnuttx.a(fs-mq_open.o)
                              ../../spresense-exported-sdk/nuttx/libs/libnuttx.a(arch-cxd56_powermgr.o) (mq_open)
../../spresense-exported-sdk/nuttx/libs/libnuttx.a(binfmt-binfmt_initialize.o)
                              ../../spresense-exported-sdk/nuttx/libs/libnuttx.a(sched-nx_start.o) (binfmt_initialize)
../../spresense-exported-sdk/nuttx/libs/libnuttx.a(sched-clock_gettime.o)
                              ../../spresense-exported-sdk/nuttx/libs/libnuttx.a(net-usrsock_dev.o) (clock_gettime)
../../spresense-exported-sdk/nuttx/libs/libnuttx.a(sched-clock_initialize.o)
                              ../../spresense-exported-sdk/nuttx/libs/libnuttx.a(sched-clock_gettime.o) (g_basetime)
../../spresense-exported-sdk/nuttx/libs/libnuttx.a(sched-clock_systimespec.o)
                              ../../spresense-exported-sdk/nuttx/libs/libnuttx.a(sched-clock_gettime.o) (clock_systimespec)
../../spresense-exported-sdk/nuttx/libs/libnuttx.a(sched-clock_ticks2time.o)
                              ../../spresense-exported-sdk/nuttx/libs/libnuttx.a(sched-clock_initialize.o) (clock_ticks2time)
../../spresense-exported-sdk/nuttx/libs/libnuttx.a(sched-errno_getptr.o)
                              ../../spresense-exported-sdk/nuttx/libs/libnuttx.a(c-lib_stdoutstream.o) (get_errno_ptr)
../../spresense-exported-sdk/nuttx/libs/libnuttx.a(sched-group_create.o)
                              ../../spresense-exported-sdk/nuttx/libs/libnuttx.a(sched-nx_start.o) (group_allocate)
../../spresense-exported-sdk/nuttx/libs/libnuttx.a(sched-group_find.o)
                              ../../spresense-exported-sdk/nuttx/libs/libnuttx.a(sched-group_create.o) (group_findby_grpid)
../../spresense-exported-sdk/nuttx/libs/libnuttx.a(sched-group_setupidlefiles.o)
                              ../../spresense-exported-sdk/nuttx/libs/libnuttx.a(sched-nx_start.o) (group_setupidlefiles)
../../spresense-exported-sdk/nuttx/libs/libnuttx.a(sched-group_setupstreams.o)
                              ../../spresense-exported-sdk/nuttx/libs/libnuttx.a(sched-group_setupidlefiles.o) (group_setupstreams)
../../spresense-exported-sdk/nuttx/libs/libnuttx.a(sched-irq_attach.o)
                              ../../spresense-exported-sdk/nuttx/libs/libnuttx.a(arch-cxd56_serial.o) (irq_attach)
../../spresense-exported-sdk/nuttx/libs/libnuttx.a(sched-irq_initialize.o)
                              ../../spresense-exported-sdk/nuttx/libs/libnuttx.a(sched-irq_attach.o) (g_irqvector)
../../spresense-exported-sdk/nuttx/libs/libnuttx.a(sched-irq_unexpectedisr.o)
                              ../../spresense-exported-sdk/nuttx/libs/libnuttx.a(sched-irq_attach.o) (irq_unexpected_isr)
../../spresense-exported-sdk/nuttx/libs/libnuttx.a(sched-mq_descreate.o)
                              ../../spresense-exported-sdk/nuttx/libs/libnuttx.a(fs-mq_open.o) (nxmq_create_des)
../../spresense-exported-sdk/nuttx/libs/libnuttx.a(sched-mq_initialize.o)
                              ../../spresense-exported-sdk/nuttx/libs/libnuttx.a(sched-mq_descreate.o) (nxmq_alloc_desblock)
../../spresense-exported-sdk/nuttx/libs/libnuttx.a(sched-mq_msgqalloc.o)
                              ../../spresense-exported-sdk/nuttx/libs/libnuttx.a(fs-mq_open.o) (nxmq_alloc_msgq)
../../spresense-exported-sdk/nuttx/libs/libnuttx.a(sched-mq_msgqfree.o)
                              ../../spresense-exported-sdk/nuttx/libs/libnuttx.a(fs-mq_open.o) (nxmq_free_msgq)
../../spresense-exported-sdk/nuttx/libs/libnuttx.a(sched-mq_receive.o)
                              ../../spresense-exported-sdk/nuttx/libs/libnuttx.a(arch-cxd56_powermgr.o) (mq_receive)
../../spresense-exported-sdk/nuttx/libs/libnuttx.a(sched-mq_send.o)
                              ../../spresense-exported-sdk/nuttx/libs/libnuttx.a(arch-cxd56_powermgr.o) (mq_send)
../../spresense-exported-sdk/nuttx/libs/libnuttx.a(sched-mq_sndinternal.o)
                              ../../spresense-exported-sdk/nuttx/libs/libnuttx.a(sched-mq_send.o) (nxmq_verify_send)
../../spresense-exported-sdk/nuttx/libs/libnuttx.a(sched-nx_bringup.o)
                              ../../spresense-exported-sdk/nuttx/libs/libnuttx.a(sched-nx_start.o) (nx_bringup)
../../spresense-exported-sdk/nuttx/libs/libnuttx.a(sched-sched_free.o)
                              ../../spresense-exported-sdk/nuttx/libs/libnuttx.a(sched-mq_msgqfree.o) (sched_ufree)
../../spresense-exported-sdk/nuttx/libs/libnuttx.a(sched-sched_lock.o)
                              ../../spresense-exported-sdk/nuttx/libs/libnuttx.a(net-net_lock.o) (sched_lock)
../../spresense-exported-sdk/nuttx/libs/libnuttx.a(sched-sched_self.o)
                              ../../spresense-exported-sdk/nuttx/libs/libnuttx.a(sched-mq_descreate.o) (sched_self)
../../spresense-exported-sdk/nuttx/libs/libnuttx.a(sched-sched_unlock.o)
                              ../../spresense-exported-sdk/nuttx/libs/libnuttx.a(net-net_lock.o) (sched_unlock)
../../spresense-exported-sdk/nuttx/libs/libnuttx.a(sched-sem_destroy.o)
                              ../../spresense-exported-sdk/nuttx/libs/libnuttx.a(net-usrsock_conn.o) (nxsem_destroy)
../../spresense-exported-sdk/nuttx/libs/libnuttx.a(sched-sem_post.o)
                              ../../spresense-exported-sdk/nuttx/libs/libnuttx.a(arch-cxd56_clock.o) (nxsem_post)
../../spresense-exported-sdk/nuttx/libs/libnuttx.a(sched-sem_timedwait.o)
                              ../../spresense-exported-sdk/nuttx/libs/libnuttx.a(net-net_lock.o) (nxsem_timedwait)
../../spresense-exported-sdk/nuttx/libs/libnuttx.a(sched-sem_timeout.o)
                              ../../spresense-exported-sdk/nuttx/libs/libnuttx.a(sched-sem_timedwait.o) (nxsem_timeout)
../../spresense-exported-sdk/nuttx/libs/libnuttx.a(sched-sem_trywait.o)
                              ../../spresense-exported-sdk/nuttx/libs/libnuttx.a(sched-sem_timedwait.o) (nxsem_trywait)
../../spresense-exported-sdk/nuttx/libs/libnuttx.a(sched-sem_waitirq.o)
                              ../../spresense-exported-sdk/nuttx/libs/libnuttx.a(sched-sem_timeout.o) (nxsem_wait_irq)
../../spresense-exported-sdk/nuttx/libs/libnuttx.a(sched-sem_wait.o)
                              ../../spresense-exported-sdk/nuttx/libs/libnuttx.a(arch-cxd56_clock.o) (nxsem_wait)
../../spresense-exported-sdk/nuttx/libs/libnuttx.a(sched-sig_notification.o)
                              ../../spresense-exported-sdk/nuttx/libs/libnuttx.a(sched-mq_sndinternal.o) (nxsig_notification)
../../spresense-exported-sdk/nuttx/libs/libnuttx.a(sched-task_create.o)
                              ../../spresense-exported-sdk/nuttx/libs/libnuttx.a(sched-nx_bringup.o) (nxtask_create)
../../spresense-exported-sdk/nuttx/libs/libnuttx.a(sched-task_getpid.o)
                              ../../spresense-exported-sdk/nuttx/libs/libnuttx.a(c-lib_filesem.o) (getpid)
../../spresense-exported-sdk/nuttx/libs/libnuttx.a(sched-task_setup.o)
                              ../../spresense-exported-sdk/nuttx/libs/libnuttx.a(sched-task_create.o) (nxtask_schedsetup)
../../spresense-exported-sdk/nuttx/libs/libnuttx.a(sched-task_start.o)
                              ../../spresense-exported-sdk/nuttx/libs/libnuttx.a(sched-task_create.o) (nxtask_start)
../../spresense-exported-sdk/nuttx/libs/libnuttx.a(sched-wd_cancel.o)
                              ../../spresense-exported-sdk/nuttx/libs/libnuttx.a(sched-sem_timedwait.o) (wd_cancel)
../../spresense-exported-sdk/nuttx/libs/libnuttx.a(sched-wd_create.o)
                              ../../spresense-exported-sdk/nuttx/libs/libnuttx.a(sched-sem_timedwait.o) (wd_create)
../../spresense-exported-sdk/nuttx/libs/libnuttx.a(sched-wd_delete.o)
                              ../../spresense-exported-sdk/nuttx/libs/libnuttx.a(sched-sem_timedwait.o) (wd_delete)
../../spresense-exported-sdk/nuttx/libs/libnuttx.a(sched-wd_initialize.o)
                              ../../spresense-exported-sdk/nuttx/libs/libnuttx.a(sched-wd_cancel.o) (g_wdactivelist)
../../spresense-exported-sdk/nuttx/libs/libnuttx.a(sched-wd_start.o)
                              ../../spresense-exported-sdk/nuttx/libs/libnuttx.a(sched-sem_timedwait.o) (wd_start)
../../spresense-exported-sdk/nuttx/libs/libnuttx.a(drivers-dev_null.o)
                              ../../spresense-exported-sdk/nuttx/libs/libnuttx.a(arch-up_initialize.o) (devnull_register)
../../spresense-exported-sdk/nuttx/libs/libnuttx.a(drivers-serial_io.o)
                              ../../spresense-exported-sdk/nuttx/libs/libnuttx.a(arch-cxd56_serial.o) (uart_xmitchars)
../../spresense-exported-sdk/nuttx/libs/libnuttx.a(drivers-serial.o)
                              ../../spresense-exported-sdk/nuttx/libs/libnuttx.a(arch-cxd56_serial.o) (uart_register)
../../spresense-exported-sdk/nuttx/libs/libnuttx.a(drivers-syslog_consolechannel.o)
                              ../../spresense-exported-sdk/nuttx/libs/libnuttx.a(drivers-syslog_initialize.o) (syslog_console_channel)
../../spresense-exported-sdk/nuttx/libs/libnuttx.a(drivers-syslog_device.o)
                              ../../spresense-exported-sdk/nuttx/libs/libnuttx.a(drivers-syslog_consolechannel.o) (syslog_dev_initialize)
../../spresense-exported-sdk/nuttx/libs/libnuttx.a(c-dq_addlast.o)
                              ../../spresense-exported-sdk/nuttx/libs/libnuttx.a(arch-cxd56_powermgr.o) (dq_addlast)
../../spresense-exported-sdk/nuttx/libs/libnuttx.a(c-dq_remfirst.o)
                              ../../spresense-exported-sdk/nuttx/libs/libnuttx.a(net-usrsock_conn.o) (dq_remfirst)
../../spresense-exported-sdk/nuttx/libs/libnuttx.a(c-dq_rem.o)
                              ../../spresense-exported-sdk/nuttx/libs/libnuttx.a(arch-cxd56_powermgr.o) (dq_rem)
../../spresense-exported-sdk/nuttx/libs/libnuttx.a(c-lib_cfgetspeed.o)
                              ../../spresense-exported-sdk/nuttx/libs/libnuttx.a(arch-cxd56_serial.o) (cfgetspeed)
../../spresense-exported-sdk/nuttx/libs/libnuttx.a(c-lib_cfsetspeed.o)
                              ../../spresense-exported-sdk/nuttx/libs/libnuttx.a(arch-cxd56_serial.o) (cfsetspeed)
../../spresense-exported-sdk/nuttx/libs/libnuttx.a(c-lib_dtoa_engine.o)
                              ../../spresense-exported-sdk/nuttx/libs/libnuttx.a(c-lib_libvsprintf.o) (__dtoa_engine)
../../spresense-exported-sdk/nuttx/libs/libnuttx.a(c-lib_fputc.o)
                              ../../spresense-exported-sdk/nuttx/libs/libnuttx.a(c-lib_stdoutstream.o) (fputc)
../../spresense-exported-sdk/nuttx/libs/libnuttx.a(c-lib_libfflush.o)
                              ../../spresense-exported-sdk/nuttx/libs/libnuttx.a(c-lib_stdoutstream.o) (lib_fflush)
../../spresense-exported-sdk/nuttx/libs/libnuttx.a(c-lib_libfwrite.o)
                              ../../spresense-exported-sdk/nuttx/libs/libnuttx.a(c-lib_fputc.o) (lib_fwrite)
../../spresense-exported-sdk/nuttx/libs/libnuttx.a(c-lib_libnoflush.o)
                              ../../spresense-exported-sdk/nuttx/libs/libnuttx.a(c-lib_stdoutstream.o) (lib_noflush)
../../spresense-exported-sdk/nuttx/libs/libnuttx.a(c-lib_memcpy.o)
                              ../../spresense-exported-sdk/nuttx/libs/libnuttx.a(sched-mq_sndinternal.o) (memcpy)
../../spresense-exported-sdk/nuttx/libs/libnuttx.a(c-lib_memmove.o)
                              ../../spresense-exported-sdk/nuttx/libs/libnuttx.a(net-usrsock_dev.o) (memmove)
../../spresense-exported-sdk/nuttx/libs/libnuttx.a(c-lib_rdflush.o)
                              ../../spresense-exported-sdk/nuttx/libs/libnuttx.a(c-lib_libfwrite.o) (lib_rdflush)
../../spresense-exported-sdk/nuttx/libs/libnuttx.a(c-lib_snprintf.o)
                              ../../spresense-exported-sdk/nuttx/libs/libnuttx.a(fs-mq_open.o) (snprintf)
../../spresense-exported-sdk/nuttx/libs/libnuttx.a(c-lib_strcpy.o)
                              ../../spresense-exported-sdk/nuttx/libs/libnuttx.a(sched-task_setup.o) (strcpy)
../../spresense-exported-sdk/nuttx/libs/libnuttx.a(c-lib_strdup.o)
                              ../../spresense-exported-sdk/nuttx/libs/libnuttx.a(drivers-syslog_device.o) (strdup)
../../spresense-exported-sdk/nuttx/libs/libnuttx.a(c-lib_stream.o)
                              ../../spresense-exported-sdk/nuttx/libs/libnuttx.a(sched-group_setupstreams.o) (lib_stream_initialize)
../../spresense-exported-sdk/nuttx/libs/libnuttx.a(c-lib_strlen.o)
                              ../../spresense-exported-sdk/nuttx/libs/libnuttx.a(sched-task_setup.o) (strlen)
../../spresense-exported-sdk/nuttx/libs/libnuttx.a(c-sem_getvalue.o)
                              ../../spresense-exported-sdk/nuttx/libs/libnuttx.a(drivers-serial.o) (nxsem_getvalue)
../../spresense-exported-sdk/nuttx/libs/libnuttx.a(c-sem_setprotocol.o)
                              ../../spresense-exported-sdk/nuttx/libs/libnuttx.a(arch-cxd56_powermgr.o) (nxsem_setprotocol)
../../spresense-exported-sdk/nuttx/libs/libnuttx.a(c-sq_addafter.o)
                              ../../spresense-exported-sdk/nuttx/libs/libnuttx.a(sched-mq_sndinternal.o) (sq_addafter)
../../spresense-exported-sdk/nuttx/libs/libnuttx.a(c-sq_addfirst.o)
                              ../../spresense-exported-sdk/nuttx/libs/libnuttx.a(sched-mq_sndinternal.o) (sq_addfirst)
../../spresense-exported-sdk/nuttx/libs/libnuttx.a(c-sq_addlast.o)
                              ../../spresense-exported-sdk/nuttx/libs/libnuttx.a(arch-cxd56_powermgr.o) (sq_addlast)
../../spresense-exported-sdk/nuttx/libs/libnuttx.a(c-sq_count.o)
                              ../../spresense-exported-sdk/nuttx/libs/libnuttx.a(arch-cxd56_powermgr.o) (sq_count)
../../spresense-exported-sdk/nuttx/libs/libnuttx.a(c-sq_remafter.o)
                              ../../spresense-exported-sdk/nuttx/libs/libnuttx.a(sched-wd_cancel.o) (sq_remafter)
../../spresense-exported-sdk/nuttx/libs/libnuttx.a(c-sq_remfirst.o)
                              ../../spresense-exported-sdk/nuttx/libs/libnuttx.a(sched-mq_descreate.o) (sq_remfirst)
../../spresense-exported-sdk/nuttx/libs/libnuttx.a(c-sq_rem.o)
                              ../../spresense-exported-sdk/nuttx/libs/libnuttx.a(arch-cxd56_powermgr.o) (sq_rem)
../../spresense-exported-sdk/nuttx/libs/libnuttx.a(mm-mm_initialize.o)
                              ../../spresense-exported-sdk/nuttx/libs/libnuttx.a(mm-umm_initialize.o) (mm_initialize)
../../spresense-exported-sdk/nuttx/libs/libnuttx.a(mm-mm_sem.o)
                              ../../spresense-exported-sdk/nuttx/libs/libnuttx.a(mm-mm_initialize.o) (mm_seminitialize)
../../spresense-exported-sdk/nuttx/libs/libnuttx.a(mm-umm_free.o)
                              ../../spresense-exported-sdk/nuttx/libs/libnuttx.a(arch-cxd56_powermgr.o) (free)
../../spresense-exported-sdk/nuttx/libs/libnuttx.a(mm-umm_globals.o)
                              ../../spresense-exported-sdk/nuttx/libs/libnuttx.a(mm-umm_initialize.o) (g_mmheap)
../../spresense-exported-sdk/nuttx/libs/libnuttx.a(mm-umm_malloc.o)
                              ../../spresense-exported-sdk/nuttx/libs/libnuttx.a(arch-cxd56_powermgr.o) (malloc)
../../spresense-exported-sdk/nuttx/libs/libnuttx.a(mm-umm_sem.o)
                              ../../spresense-exported-sdk/nuttx/libs/libnuttx.a(sched-sched_free.o) (umm_trysemaphore)
../../spresense-exported-sdk/nuttx/libs/libnuttx.a(mm-umm_zalloc.o)
                              ../../spresense-exported-sdk/nuttx/libs/libnuttx.a(sched-group_create.o) (zalloc)
../../spresense-exported-sdk/nuttx/libs/libnuttx.a(arch-cxd56_farapistub.o)
                              ../../spresense-exported-sdk/nuttx/libs/libnuttx.a(arch-cxd56_powermgr.o) (fw_pm_coldsleep)
../../spresense-exported-sdk/nuttx/libs/libnuttx.a(arch-cxd56_icc.o)
                              ../../spresense-exported-sdk/nuttx/libs/libnuttx.a(arch-cxd56_powermgr.o) (cxd56_iccregisterhandler)
../../spresense-exported-sdk/nuttx/libs/libnuttx.a(arch-cxd56_irq.o)
                              ../../spresense-exported-sdk/nuttx/libs/libnuttx.a(arch-up_initialize.o) (up_irqinitialize)
../../spresense-exported-sdk/nuttx/libs/libnuttx.a(arch-cxd56_pmic.o)
                              ../../spresense-exported-sdk/nuttx/libs/libnuttx.a(arch-cxd56_powermgr.o) (cxd56_pmic_write)
../../spresense-exported-sdk/nuttx/libs/libnuttx.a(arch-cxd56_rtc.o)
                              ../../spresense-exported-sdk/nuttx/libs/libnuttx.a(sched-clock_initialize.o) (up_rtc_gettime)
../../spresense-exported-sdk/nuttx/libs/libnuttx.a(arch-cxd56_timerisr.o)
                              ../../spresense-exported-sdk/nuttx/libs/libnuttx.a(arch-up_initialize.o) (arm_timer_initialize)
../../spresense-exported-sdk/nuttx/libs/libnuttx.a(arch-cxd56_usbdev.o)
                              ../../spresense-exported-sdk/nuttx/libs/libnuttx.a(arch-up_initialize.o) (up_usbinitialize)
../../spresense-exported-sdk/nuttx/libs/libnuttx.a(arch-up_assert.o)
                              ../../spresense-exported-sdk/nuttx/libs/libnuttx.a(sched-irq_unexpectedisr.o) (up_assert)
../../spresense-exported-sdk/nuttx/libs/libnuttx.a(arch-up_blocktask.o)
                              ../../spresense-exported-sdk/nuttx/libs/libnuttx.a(sched-mq_sndinternal.o) (up_block_task)
../../spresense-exported-sdk/nuttx/libs/libnuttx.a(arch-up_checkstack.o)
                              ../../spresense-exported-sdk/nuttx/libs/libnuttx.a(arch-up_assert.o) (up_check_tcbstack)
../../spresense-exported-sdk/nuttx/libs/libnuttx.a(arch-up_copyfullstate.o)
                              ../../spresense-exported-sdk/nuttx/libs/libnuttx.a(arch-up_blocktask.o) (up_copyfullstate)
../../spresense-exported-sdk/nuttx/libs/libnuttx.a(arch-up_createstack.o)
                              ../../spresense-exported-sdk/nuttx/libs/libnuttx.a(sched-task_create.o) (up_create_stack)
../../spresense-exported-sdk/nuttx/libs/libnuttx.a(arch-up_doirq.o)
                              ../../spresense-exported-sdk/nuttx/libs/libnuttx.a(arch-up_exception.o) (up_doirq)
../../spresense-exported-sdk/nuttx/libs/libnuttx.a(arch-up_hardfault.o)
                              ../../spresense-exported-sdk/nuttx/libs/libnuttx.a(arch-cxd56_irq.o) (up_hardfault)
../../spresense-exported-sdk/nuttx/libs/libnuttx.a(arch-up_releasepending.o)
                              ../../spresense-exported-sdk/nuttx/libs/libnuttx.a(sched-sched_unlock.o) (up_release_pending)
../../spresense-exported-sdk/nuttx/libs/libnuttx.a(arch-up_releasestack.o)
                              ../../spresense-exported-sdk/nuttx/libs/libnuttx.a(arch-up_createstack.o) (up_release_stack)
../../spresense-exported-sdk/nuttx/libs/libnuttx.a(arch-up_saveusercontext.o)
                              ../../spresense-exported-sdk/nuttx/libs/libnuttx.a(arch-up_assert.o) (up_saveusercontext)
../../spresense-exported-sdk/nuttx/libs/libnuttx.a(arch-up_stackframe.o)
                              ../../spresense-exported-sdk/nuttx/libs/libnuttx.a(sched-task_setup.o) (up_stack_frame)
../../spresense-exported-sdk/nuttx/libs/libnuttx.a(arch-up_svcall.o)
                              ../../spresense-exported-sdk/nuttx/libs/libnuttx.a(arch-cxd56_irq.o) (up_svcall)
../../spresense-exported-sdk/nuttx/libs/libnuttx.a(arch-up_switchcontext.o)
                              ../../spresense-exported-sdk/nuttx/libs/libnuttx.a(arch-up_blocktask.o) (up_switchcontext)
../../spresense-exported-sdk/nuttx/libs/libnuttx.a(arch-up_unblocktask.o)
                              ../../spresense-exported-sdk/nuttx/libs/libnuttx.a(sched-mq_sndinternal.o) (up_unblock_task)
../../spresense-exported-sdk/nuttx/libs/libnuttx.a(net-devif_callback.o)
                              ../../spresense-exported-sdk/nuttx/libs/libnuttx.a(net-usrsock_conn.o) (devif_callback_alloc)
../../spresense-exported-sdk/nuttx/libs/libnuttx.a(net-devif_initialize.o)
                              ../../spresense-exported-sdk/nuttx/libs/libnuttx.a(net-net_initialize.o) (devif_initialize)
../../spresense-exported-sdk/nuttx/libs/libnuttx.a(net-netdev_verify.o)
                              ../../spresense-exported-sdk/nuttx/libs/libnuttx.a(net-devif_callback.o) (netdev_verify)
../../spresense-exported-sdk/nuttx/libs/libnuttx.a(net-net_sockets.o)
                              ../../spresense-exported-sdk/nuttx/libs/libnuttx.a(sched-group_setupidlefiles.o) (net_initlist)
../../spresense-exported-sdk/nuttx/libs/libnuttx.a(fs-fs_close.o)
                              ../../spresense-exported-sdk/nuttx/libs/libnuttx.a(sched-group_setupidlefiles.o) (close)
../../spresense-exported-sdk/nuttx/libs/libnuttx.a(fs-fs_dupfd2.o)
                              ../../spresense-exported-sdk/nuttx/libs/libnuttx.a(sched-group_setupidlefiles.o) (fs_dupfd2)
../../spresense-exported-sdk/nuttx/libs/libnuttx.a(fs-fs_fdopen.o)
                              ../../spresense-exported-sdk/nuttx/libs/libnuttx.a(sched-group_setupstreams.o) (fs_fdopen)
../../spresense-exported-sdk/nuttx/libs/libnuttx.a(fs-fs_fileopen.o)
                              ../../spresense-exported-sdk/nuttx/libs/libnuttx.a(drivers-syslog_device.o) (file_open)
../../spresense-exported-sdk/nuttx/libs/libnuttx.a(fs-fs_files.o)
                              ../../spresense-exported-sdk/nuttx/libs/libnuttx.a(sched-group_setupidlefiles.o) (files_initlist)
../../spresense-exported-sdk/nuttx/libs/libnuttx.a(fs-fs_getfilep.o)
                              ../../spresense-exported-sdk/nuttx/libs/libnuttx.a(fs-fs_dupfd2.o) (fs_getfilep)
../../spresense-exported-sdk/nuttx/libs/libnuttx.a(fs-fs_inodeaddref.o)
                              ../../spresense-exported-sdk/nuttx/libs/libnuttx.a(fs-fs_files.o) (inode_addref)
../../spresense-exported-sdk/nuttx/libs/libnuttx.a(fs-fs_inodefind.o)
                              ../../spresense-exported-sdk/nuttx/libs/libnuttx.a(fs-mq_open.o) (inode_find)
../../spresense-exported-sdk/nuttx/libs/libnuttx.a(fs-fs_inoderelease.o)
                              ../../spresense-exported-sdk/nuttx/libs/libnuttx.a(fs-mq_open.o) (inode_release)
../../spresense-exported-sdk/nuttx/libs/libnuttx.a(fs-fs_inodereserve.o)
                              ../../spresense-exported-sdk/nuttx/libs/libnuttx.a(fs-fs_registerdriver.o) (inode_reserve)
../../spresense-exported-sdk/nuttx/libs/libnuttx.a(fs-fs_inodesearch.o)
                              ../../spresense-exported-sdk/nuttx/libs/libnuttx.a(fs-fs_inodereserve.o) (inode_nextname)
../../spresense-exported-sdk/nuttx/libs/libnuttx.a(fs-fs_open.o)
                              ../../spresense-exported-sdk/nuttx/libs/libnuttx.a(fs-fs_fdopen.o) (inode_checkflags)
../../spresense-exported-sdk/nuttx/libs/libnuttx.a(fs-fs_procfs.o)
                              ../../spresense-exported-sdk/nuttx/libs/libnuttx.a(arch-cxd56_usbdev.o) (procfs_register)
../../spresense-exported-sdk/nuttx/libs/libnuttx.a(fs-fs_procfsproc.o)
                              ../../spresense-exported-sdk/nuttx/libs/libnuttx.a(fs-fs_procfs.o) (proc_operations)
../../spresense-exported-sdk/nuttx/libs/libnuttx.a(fs-fs_procfsuptime.o)
                              ../../spresense-exported-sdk/nuttx/libs/libnuttx.a(fs-fs_procfs.o) (uptime_operations)
../../spresense-exported-sdk/nuttx/libs/libnuttx.a(fs-fs_procfsutil.o)
                              ../../spresense-exported-sdk/nuttx/libs/libnuttx.a(arch-cxd56_usbdev.o) (procfs_memcpy)
../../spresense-exported-sdk/nuttx/libs/libnuttx.a(fs-fs_write.o)
                              ../../spresense-exported-sdk/nuttx/libs/libnuttx.a(drivers-syslog_device.o) (file_write)
../../spresense-exported-sdk/nuttx/libs/libnuttx.a(fs-smartfs_procfs.o)
                              ../../spresense-exported-sdk/nuttx/libs/libnuttx.a(fs-fs_procfs.o) (smartfs_procfsoperations)
../../spresense-exported-sdk/nuttx/libs/libnuttx.a(fs-smartfs_utils.o)
                              ../../spresense-exported-sdk/nuttx/libs/libnuttx.a(fs-smartfs_procfs.o) (smartfs_get_first_mount)
../../spresense-exported-sdk/nuttx/libs/libnuttx.a(board-cxd56_crashdump.o)
                              ../../spresense-exported-sdk/nuttx/libs/libnuttx.a(arch-up_assert.o) (board_crashdump)
../../spresense-exported-sdk/nuttx/libs/libnuttx.a(sched-clock_abstime2ticks.o)
                              ../../spresense-exported-sdk/nuttx/libs/libnuttx.a(sched-sem_timedwait.o) (clock_abstime2ticks)
../../spresense-exported-sdk/nuttx/libs/libnuttx.a(sched-clock_time2ticks.o)
                              ../../spresense-exported-sdk/nuttx/libs/libnuttx.a(sched-clock_abstime2ticks.o) (clock_time2ticks)
../../spresense-exported-sdk/nuttx/libs/libnuttx.a(sched-env_dup.o)
                              ../../spresense-exported-sdk/nuttx/libs/libnuttx.a(sched-group_create.o) (env_dup)
../../spresense-exported-sdk/nuttx/libs/libnuttx.a(sched-exit.o)
                              ../../spresense-exported-sdk/nuttx/libs/libnuttx.a(sched-task_start.o) (exit)
../../spresense-exported-sdk/nuttx/libs/libnuttx.a(sched-group_childstatus.o)
                              ../../spresense-exported-sdk/nuttx/libs/libnuttx.a(sched-task_setup.o) (group_allocchild)
../../spresense-exported-sdk/nuttx/libs/libnuttx.a(sched-group_setuptaskfiles.o)
                              ../../spresense-exported-sdk/nuttx/libs/libnuttx.a(sched-task_create.o) (group_setuptaskfiles)
../../spresense-exported-sdk/nuttx/libs/libnuttx.a(sched-irq_dispatch.o)
                              ../../spresense-exported-sdk/nuttx/libs/libnuttx.a(arch-up_doirq.o) (irq_dispatch)
../../spresense-exported-sdk/nuttx/libs/libnuttx.a(sched-kwork_hpthread.o)
                              ../../spresense-exported-sdk/nuttx/libs/libnuttx.a(sched-nx_bringup.o) (work_hpstart)
../../spresense-exported-sdk/nuttx/libs/libnuttx.a(sched-kwork_lpthread.o)
                              ../../spresense-exported-sdk/nuttx/libs/libnuttx.a(sched-nx_bringup.o) (work_lpstart)
../../spresense-exported-sdk/nuttx/libs/libnuttx.a(sched-kwork_process.o)
                              ../../spresense-exported-sdk/nuttx/libs/libnuttx.a(sched-kwork_hpthread.o) (work_process)
../../spresense-exported-sdk/nuttx/libs/libnuttx.a(sched-kwork_signal.o)
                              ../../spresense-exported-sdk/nuttx/libs/libnuttx.a(sched-sched_free.o) (work_signal)
../../spresense-exported-sdk/nuttx/libs/libnuttx.a(sched-mq_msgfree.o)
                              ../../spresense-exported-sdk/nuttx/libs/libnuttx.a(sched-mq_msgqfree.o) (nxmq_free_msg)
../../spresense-exported-sdk/nuttx/libs/libnuttx.a(sched-mq_rcvinternal.o)
                              ../../spresense-exported-sdk/nuttx/libs/libnuttx.a(sched-mq_receive.o) (nxmq_verify_receive)
../../spresense-exported-sdk/nuttx/libs/libnuttx.a(sched-sched_addblocked.o)
                              ../../spresense-exported-sdk/nuttx/libs/libnuttx.a(arch-up_blocktask.o) (sched_addblocked)
../../spresense-exported-sdk/nuttx/libs/libnuttx.a(sched-sched_addprioritized.o)
                              ../../spresense-exported-sdk/nuttx/libs/libnuttx.a(sched-sched_addblocked.o) (sched_addprioritized)
../../spresense-exported-sdk/nuttx/libs/libnuttx.a(sched-sched_addreadytorun.o)
                              ../../spresense-exported-sdk/nuttx/libs/libnuttx.a(arch-up_unblocktask.o) (sched_addreadytorun)
../../spresense-exported-sdk/nuttx/libs/libnuttx.a(sched-sched_foreach.o)
                              ../../spresense-exported-sdk/nuttx/libs/libnuttx.a(arch-up_assert.o) (sched_foreach)
../../spresense-exported-sdk/nuttx/libs/libnuttx.a(sched-sched_garbage.o)
                              ../../spresense-exported-sdk/nuttx/libs/libnuttx.a(sched-kwork_lpthread.o) (sched_garbage_collection)
../../spresense-exported-sdk/nuttx/libs/libnuttx.a(sched-sched_getfiles.o)
                              ../../spresense-exported-sdk/nuttx/libs/libnuttx.a(fs-fs_files.o) (sched_getfiles)
../../spresense-exported-sdk/nuttx/libs/libnuttx.a(sched-sched_getsockets.o)
                              ../../spresense-exported-sdk/nuttx/libs/libnuttx.a(net-net_sockets.o) (sched_getsockets)
../../spresense-exported-sdk/nuttx/libs/libnuttx.a(sched-sched_gettcb.o)
                              ../../spresense-exported-sdk/nuttx/libs/libnuttx.a(sched-sem_timeout.o) (sched_gettcb)
../../spresense-exported-sdk/nuttx/libs/libnuttx.a(sched-sched_idletask.o)
                              ../../spresense-exported-sdk/nuttx/libs/libnuttx.a(drivers-serial.o) (sched_idletask)
../../spresense-exported-sdk/nuttx/libs/libnuttx.a(sched-sched_mergepending.o)
                              ../../spresense-exported-sdk/nuttx/libs/libnuttx.a(arch-up_blocktask.o) (sched_mergepending)
../../spresense-exported-sdk/nuttx/libs/libnuttx.a(sched-sched_processtimer.o)
                              ../../spresense-exported-sdk/nuttx/libs/libnuttx.a(arch-cxd56_timerisr.o) (nxsched_process_timer)
../../spresense-exported-sdk/nuttx/libs/libnuttx.a(sched-sched_releasetcb.o)
                              ../../spresense-exported-sdk/nuttx/libs/libnuttx.a(sched-task_create.o) (sched_releasetcb)
../../spresense-exported-sdk/nuttx/libs/libnuttx.a(sched-sched_removeblocked.o)
                              ../../spresense-exported-sdk/nuttx/libs/libnuttx.a(arch-up_unblocktask.o) (sched_removeblocked)
../../spresense-exported-sdk/nuttx/libs/libnuttx.a(sched-sched_removereadytorun.o)
                              ../../spresense-exported-sdk/nuttx/libs/libnuttx.a(arch-up_blocktask.o) (sched_removereadytorun)
../../spresense-exported-sdk/nuttx/libs/libnuttx.a(sched-sched_resumescheduler.o)
                              ../../spresense-exported-sdk/nuttx/libs/libnuttx.a(arch-up_blocktask.o) (sched_resume_scheduler)
../../spresense-exported-sdk/nuttx/libs/libnuttx.a(sched-sched_roundrobin.o)
                              ../../spresense-exported-sdk/nuttx/libs/libnuttx.a(sched-sched_processtimer.o) (sched_roundrobin_process)
../../spresense-exported-sdk/nuttx/libs/libnuttx.a(sched-sem_reset.o)
                              ../../spresense-exported-sdk/nuttx/libs/libnuttx.a(drivers-serial.o) (nxsem_reset)
../../spresense-exported-sdk/nuttx/libs/libnuttx.a(sched-sig_dispatch.o)
                              ../../spresense-exported-sdk/nuttx/libs/libnuttx.a(sched-sig_notification.o) (nxsig_dispatch)
../../spresense-exported-sdk/nuttx/libs/libnuttx.a(sched-sig_findaction.o)
                              ../../spresense-exported-sdk/nuttx/libs/libnuttx.a(sched-sig_dispatch.o) (nxsig_find_action)
../../spresense-exported-sdk/nuttx/libs/libnuttx.a(sched-sig_initialize.o)
                              ../../spresense-exported-sdk/nuttx/libs/libnuttx.a(sched-sig_dispatch.o) (g_sigpendingsignal)
../../spresense-exported-sdk/nuttx/libs/libnuttx.a(sched-sig_kill.o)
                              ../../spresense-exported-sdk/nuttx/libs/libnuttx.a(sched-kwork_signal.o) (nxsig_kill)
../../spresense-exported-sdk/nuttx/libs/libnuttx.a(sched-sig_procmask.o)
                              ../../spresense-exported-sdk/nuttx/libs/libnuttx.a(sched-task_setup.o) (nxsig_procmask)
../../spresense-exported-sdk/nuttx/libs/libnuttx.a(sched-sig_queue.o)
                              ../../spresense-exported-sdk/nuttx/libs/libnuttx.a(arch-cxd56_icc.o) (sigqueue)
../../spresense-exported-sdk/nuttx/libs/libnuttx.a(sched-sig_timedwait.o)
                              ../../spresense-exported-sdk/nuttx/libs/libnuttx.a(sched-kwork_process.o) (nxsig_timedwait)
../../spresense-exported-sdk/nuttx/libs/libnuttx.a(sched-sig_unmaskpendingsignal.o)
                              ../../spresense-exported-sdk/nuttx/libs/libnuttx.a(sched-sig_procmask.o) (nxsig_unmask_pendingsignal)
../../spresense-exported-sdk/nuttx/libs/libnuttx.a(sched-sig_usleep.o)
                              ../../spresense-exported-sdk/nuttx/libs/libnuttx.a(drivers-serial.o) (nxsig_usleep)
../../spresense-exported-sdk/nuttx/libs/libnuttx.a(sched-task_activate.o)
                              ../../spresense-exported-sdk/nuttx/libs/libnuttx.a(sched-task_create.o) (task_activate)
../../spresense-exported-sdk/nuttx/libs/libnuttx.a(sched-task_exithook.o)
                              ../../spresense-exported-sdk/nuttx/libs/libnuttx.a(sched-exit.o) (nxtask_exithook)
../../spresense-exported-sdk/nuttx/libs/libnuttx.a(sched-task_recover.o)
                              ../../spresense-exported-sdk/nuttx/libs/libnuttx.a(sched-task_exithook.o) (nxtask_recover)
../../spresense-exported-sdk/nuttx/libs/libnuttx.a(sched-wd_recover.o)
                              ../../spresense-exported-sdk/nuttx/libs/libnuttx.a(sched-task_recover.o) (wd_recover)
../../spresense-exported-sdk/nuttx/libs/libnuttx.a(drivers-syslog_channel.o)
                              ../../spresense-exported-sdk/nuttx/libs/libnuttx.a(drivers-syslog_consolechannel.o) (syslog_channel)
../../spresense-exported-sdk/nuttx/libs/libnuttx.a(drivers-syslog_flush.o)
                              ../../spresense-exported-sdk/nuttx/libs/libnuttx.a(arch-up_assert.o) (syslog_flush)
../../spresense-exported-sdk/nuttx/libs/libnuttx.a(c-lib_dtoa_data.o)
                              ../../spresense-exported-sdk/nuttx/libs/libnuttx.a(c-lib_dtoa_engine.o) (g_dtoa_round)
../../spresense-exported-sdk/nuttx/libs/libnuttx.a(c-lib_fseek.o)
                              ../../spresense-exported-sdk/nuttx/libs/libnuttx.a(c-lib_rdflush.o) (fseek)
../../spresense-exported-sdk/nuttx/libs/libnuttx.a(c-lib_libflushall.o)
                              ../../spresense-exported-sdk/nuttx/libs/libnuttx.a(sched-task_exithook.o) (lib_flushall)
../../spresense-exported-sdk/nuttx/libs/libnuttx.a(c-lib_match.o)
                              ../../spresense-exported-sdk/nuttx/libs/libnuttx.a(fs-fs_procfs.o) (match)
../../spresense-exported-sdk/nuttx/libs/libnuttx.a(c-lib_memoutstream.o)
                              ../../spresense-exported-sdk/nuttx/libs/libnuttx.a(c-lib_snprintf.o) (lib_memoutstream)
../../spresense-exported-sdk/nuttx/libs/libnuttx.a(c-lib_nulloutstream.o)
                              ../../spresense-exported-sdk/nuttx/libs/libnuttx.a(c-lib_snprintf.o) (lib_nulloutstream)
../../spresense-exported-sdk/nuttx/libs/libnuttx.a(c-lib_strchr.o)
                              ../../spresense-exported-sdk/nuttx/libs/libnuttx.a(fs-smartfs_procfs.o) (strchr)
../../spresense-exported-sdk/nuttx/libs/libnuttx.a(c-lib_strcmp.o)
                              ../../spresense-exported-sdk/nuttx/libs/libnuttx.a(fs-fs_procfsproc.o) (strcmp)
../../spresense-exported-sdk/nuttx/libs/libnuttx.a(c-lib_strcspn.o)
                              ../../spresense-exported-sdk/nuttx/libs/libnuttx.a(fs-fs_procfs.o) (strcspn)
../../spresense-exported-sdk/nuttx/libs/libnuttx.a(c-lib_streamsem.o)
                              ../../spresense-exported-sdk/nuttx/libs/libnuttx.a(c-lib_libflushall.o) (stream_semtake)
../../spresense-exported-sdk/nuttx/libs/libnuttx.a(c-lib_strncmp.o)
                              ../../spresense-exported-sdk/nuttx/libs/libnuttx.a(fs-fs_procfs.o) (strncmp)
../../spresense-exported-sdk/nuttx/libs/libnuttx.a(c-lib_strtol.o)
                              ../../spresense-exported-sdk/nuttx/libs/libnuttx.a(fs-smartfs_procfs.o) (strtol)
../../spresense-exported-sdk/nuttx/libs/libnuttx.a(c-lib_strtoul.o)
                              ../../spresense-exported-sdk/nuttx/libs/libnuttx.a(fs-fs_procfsproc.o) (strtoul)
../../spresense-exported-sdk/nuttx/libs/libnuttx.a(c-lib_syslog.o)
                              ../../spresense-exported-sdk/nuttx/libs/libnuttx.a(arch-up_assert.o) (syslog)
../../spresense-exported-sdk/nuttx/libs/libnuttx.a(c-lib_time.o)
                              ../../spresense-exported-sdk/nuttx/libs/libnuttx.a(fs-smartfs_utils.o) (time)
../../spresense-exported-sdk/nuttx/libs/libnuttx.a(c-lib_wrflush.o)
                              ../../spresense-exported-sdk/nuttx/libs/libnuttx.a(c-lib_fseek.o) (lib_wrflush)
../../spresense-exported-sdk/nuttx/libs/libnuttx.a(c-sig_addset.o)
                              ../../spresense-exported-sdk/nuttx/libs/libnuttx.a(sched-kwork_process.o) (sigaddset)
../../spresense-exported-sdk/nuttx/libs/libnuttx.a(c-sig_delset.o)
                              ../../spresense-exported-sdk/nuttx/libs/libnuttx.a(sched-sig_unmaskpendingsignal.o) (sigdelset)
../../spresense-exported-sdk/nuttx/libs/libnuttx.a(c-sig_emptyset.o)
                              ../../spresense-exported-sdk/nuttx/libs/libnuttx.a(sched-kwork_process.o) (sigemptyset)
../../spresense-exported-sdk/nuttx/libs/libnuttx.a(c-sig_ismember.o)
                              ../../spresense-exported-sdk/nuttx/libs/libnuttx.a(sched-sig_dispatch.o) (sigismember)
../../spresense-exported-sdk/nuttx/libs/libnuttx.a(mm-mm_addfreechunk.o)
                              ../../spresense-exported-sdk/nuttx/libs/libnuttx.a(mm-mm_initialize.o) (mm_addfreechunk)
../../spresense-exported-sdk/nuttx/libs/libnuttx.a(mm-mm_free.o)
                              ../../spresense-exported-sdk/nuttx/libs/libnuttx.a(mm-umm_free.o) (mm_free)
../../spresense-exported-sdk/nuttx/libs/libnuttx.a(mm-mm_malloc.o)
                              ../../spresense-exported-sdk/nuttx/libs/libnuttx.a(mm-umm_malloc.o) (mm_malloc)
../../spresense-exported-sdk/nuttx/libs/libnuttx.a(mm-mm_size2ndx.o)
                              ../../spresense-exported-sdk/nuttx/libs/libnuttx.a(mm-mm_addfreechunk.o) (mm_size2ndx)
../../spresense-exported-sdk/nuttx/libs/libnuttx.a(mm-mm_zalloc.o)
                              ../../spresense-exported-sdk/nuttx/libs/libnuttx.a(mm-umm_zalloc.o) (mm_zalloc)
../../spresense-exported-sdk/nuttx/libs/libnuttx.a(mm-umm_heapmember.o)
                              ../../spresense-exported-sdk/nuttx/libs/libnuttx.a(arch-up_releasestack.o) (umm_heapmember)
../../spresense-exported-sdk/nuttx/libs/libnuttx.a(mm-umm_realloc.o)
                              ../../spresense-exported-sdk/nuttx/libs/libnuttx.a(fs-fs_procfs.o) (realloc)
../../spresense-exported-sdk/nuttx/libs/libnuttx.a(arch-cxd56_backuplog.o)
                              ../../spresense-exported-sdk/nuttx/libs/libnuttx.a(board-cxd56_crashdump.o) (up_backuplog_alloc)
../../spresense-exported-sdk/nuttx/libs/libnuttx.a(arch-cxd56_cpufifo.o)
                              ../../spresense-exported-sdk/nuttx/libs/libnuttx.a(arch-cxd56_icc.o) (cxd56_cfpush)
../../spresense-exported-sdk/nuttx/libs/libnuttx.a(arch-cxd56_farapi.o)
                              ../../spresense-exported-sdk/nuttx/libs/libnuttx.a(arch-cxd56_farapistub.o) (farapi_main)
../../spresense-exported-sdk/nuttx/libs/libnuttx.a(arch-up_exit.o)
                              ../../spresense-exported-sdk/nuttx/libs/libnuttx.a(sched-exit.o) (_exit)
../../spresense-exported-sdk/nuttx/libs/libnuttx.a(arch-up_fullcontextrestore.o)
                              ../../spresense-exported-sdk/nuttx/libs/libnuttx.a(arch-up_exit.o) (up_fullcontextrestore)
../../spresense-exported-sdk/nuttx/libs/libnuttx.a(arch-up_reprioritizertr.o)
                              ../../spresense-exported-sdk/nuttx/libs/libnuttx.a(sched-sched_roundrobin.o) (up_reprioritize_rtr)
../../spresense-exported-sdk/nuttx/libs/libnuttx.a(arch-up_schedulesigaction.o)
                              ../../spresense-exported-sdk/nuttx/libs/libnuttx.a(sched-sig_dispatch.o) (up_schedule_sigaction)
../../spresense-exported-sdk/nuttx/libs/libnuttx.a(arch-up_sigdeliver.o)
                              ../../spresense-exported-sdk/nuttx/libs/libnuttx.a(arch-up_schedulesigaction.o) (up_sigdeliver)
../../spresense-exported-sdk/nuttx/libs/libnuttx.a(net-net_checksd.o)
                              ../../spresense-exported-sdk/nuttx/libs/libnuttx.a(fs-fs_fdopen.o) (net_checksd)
../../spresense-exported-sdk/nuttx/libs/libnuttx.a(net-net_close.o)
                              ../../spresense-exported-sdk/nuttx/libs/libnuttx.a(net-net_sockets.o) (psock_close)
../../spresense-exported-sdk/nuttx/libs/libnuttx.a(net-netdev_register.o)
                              ../../spresense-exported-sdk/nuttx/libs/libnuttx.a(net-netdev_verify.o) (g_netdevices)
../../spresense-exported-sdk/nuttx/libs/libnuttx.a(net-net_procfs.o)
                              ../../spresense-exported-sdk/nuttx/libs/libnuttx.a(fs-fs_procfs.o) (net_procfsoperations)
../../spresense-exported-sdk/nuttx/libs/libnuttx.a(net-send.o)
                              ../../spresense-exported-sdk/nuttx/libs/libnuttx.a(fs-fs_write.o) (nx_send)
../../spresense-exported-sdk/nuttx/libs/libnuttx.a(fs-fs_blockproxy.o)
                              ../../spresense-exported-sdk/nuttx/libs/libnuttx.a(fs-fs_open.o) (block_proxy)
../../spresense-exported-sdk/nuttx/libs/libnuttx.a(fs-fs_filedetach.o)
                              ../../spresense-exported-sdk/nuttx/libs/libnuttx.a(fs-fs_fileopen.o) (file_detach)
../../spresense-exported-sdk/nuttx/libs/libnuttx.a(fs-fs_inodefree.o)
                              ../../spresense-exported-sdk/nuttx/libs/libnuttx.a(fs-fs_inoderelease.o) (inode_free)
../../spresense-exported-sdk/nuttx/libs/libnuttx.a(fs-fs_lseek.o)
                              ../../spresense-exported-sdk/nuttx/libs/libnuttx.a(c-lib_fseek.o) (lseek)
../../spresense-exported-sdk/nuttx/libs/libnuttx.a(fs-fs_procfsmeminfo.o)
                              ../../spresense-exported-sdk/nuttx/libs/libnuttx.a(fs-fs_procfs.o) (meminfo_operations)
../../spresense-exported-sdk/nuttx/libs/libnuttx.a(fs-fs_procfs_mount.o)
                              ../../spresense-exported-sdk/nuttx/libs/libnuttx.a(fs-fs_procfs.o) (mount_procfsoperations)
../../spresense-exported-sdk/nuttx/libs/libnuttx.a(fs-fs_stat.o)
                              ../../spresense-exported-sdk/nuttx/libs/libnuttx.a(fs-fs_blockproxy.o) (stat)
../../spresense-exported-sdk/nuttx/libs/libnuttx.a(fs-fs_unlink.o)
                              ../../spresense-exported-sdk/nuttx/libs/libnuttx.a(fs-fs_blockproxy.o) (unlink)
../../spresense-exported-sdk/nuttx/libs/libnuttx.a(sched-group_leave.o)
                              ../../spresense-exported-sdk/nuttx/libs/libnuttx.a(sched-sched_releasetcb.o) (group_leave)
../../spresense-exported-sdk/nuttx/libs/libnuttx.a(sched-group_signal.o)
                              ../../spresense-exported-sdk/nuttx/libs/libnuttx.a(sched-sig_dispatch.o) (group_signal)
../../spresense-exported-sdk/nuttx/libs/libnuttx.a(sched-mq_recover.o)
                              ../../spresense-exported-sdk/nuttx/libs/libnuttx.a(sched-task_recover.o) (nxmq_recover)
../../spresense-exported-sdk/nuttx/libs/libnuttx.a(sched-mq_release.o)
                              ../../spresense-exported-sdk/nuttx/libs/libnuttx.a(sched-group_leave.o) (nxmq_release)
../../spresense-exported-sdk/nuttx/libs/libnuttx.a(sched-mq_waitirq.o)
                              ../../spresense-exported-sdk/nuttx/libs/libnuttx.a(sched-sig_dispatch.o) (nxmq_wait_irq)
../../spresense-exported-sdk/nuttx/libs/libnuttx.a(sched-pthread_release.o)
                              ../../spresense-exported-sdk/nuttx/libs/libnuttx.a(sched-group_leave.o) (pthread_release)
../../spresense-exported-sdk/nuttx/libs/libnuttx.a(sched-sem_recover.o)
                              ../../spresense-exported-sdk/nuttx/libs/libnuttx.a(sched-task_recover.o) (nxsem_recover)
../../spresense-exported-sdk/nuttx/libs/libnuttx.a(sched-sig_allocpendingsigaction.o)
                              ../../spresense-exported-sdk/nuttx/libs/libnuttx.a(sched-sig_dispatch.o) (nxsig_alloc_pendingsigaction)
../../spresense-exported-sdk/nuttx/libs/libnuttx.a(sched-sig_cleanup.o)
                              ../../spresense-exported-sdk/nuttx/libs/libnuttx.a(sched-task_exithook.o) (nxsig_cleanup)
../../spresense-exported-sdk/nuttx/libs/libnuttx.a(sched-sig_deliver.o)
                              ../../spresense-exported-sdk/nuttx/libs/libnuttx.a(sched-sig_dispatch.o) (nxsig_deliver)
../../spresense-exported-sdk/nuttx/libs/libnuttx.a(sched-sig_lowest.o)
                              ../../spresense-exported-sdk/nuttx/libs/libnuttx.a(sched-sig_timedwait.o) (nxsig_lowest)
../../spresense-exported-sdk/nuttx/libs/libnuttx.a(sched-sig_nanosleep.o)
                              ../../spresense-exported-sdk/nuttx/libs/libnuttx.a(sched-sig_usleep.o) (nxsig_nanosleep)
../../spresense-exported-sdk/nuttx/libs/libnuttx.a(sched-sig_pending.o)
                              ../../spresense-exported-sdk/nuttx/libs/libnuttx.a(sched-sig_timedwait.o) (nxsig_pendingset)
../../spresense-exported-sdk/nuttx/libs/libnuttx.a(sched-sig_releasependingsigaction.o)
                              ../../spresense-exported-sdk/nuttx/libs/libnuttx.a(sched-sig_cleanup.o) (nxsig_release_pendingsigaction)
../../spresense-exported-sdk/nuttx/libs/libnuttx.a(sched-sig_releasependingsignal.o)
                              ../../spresense-exported-sdk/nuttx/libs/libnuttx.a(sched-sig_timedwait.o) (nxsig_release_pendingsignal)
../../spresense-exported-sdk/nuttx/libs/libnuttx.a(sched-sig_removependingsignal.o)
                              ../../spresense-exported-sdk/nuttx/libs/libnuttx.a(sched-sig_timedwait.o) (nxsig_remove_pendingsignal)
../../spresense-exported-sdk/nuttx/libs/libnuttx.a(sched-task_exit.o)
                              ../../spresense-exported-sdk/nuttx/libs/libnuttx.a(arch-up_exit.o) (nxtask_exit)
../../spresense-exported-sdk/nuttx/libs/libnuttx.a(sched-task_terminate.o)
                              ../../spresense-exported-sdk/nuttx/libs/libnuttx.a(sched-task_exit.o) (nxtask_terminate)
../../spresense-exported-sdk/nuttx/libs/libnuttx.a(drivers-bchdev_register.o)
                              ../../spresense-exported-sdk/nuttx/libs/libnuttx.a(fs-fs_blockproxy.o) (bchdev_register)
../../spresense-exported-sdk/nuttx/libs/libnuttx.a(drivers-bchlib_setup.o)
                              ../../spresense-exported-sdk/nuttx/libs/libnuttx.a(drivers-bchdev_register.o) (bchlib_setup)
../../spresense-exported-sdk/nuttx/libs/libnuttx.a(drivers-bchlib_teardown.o)
                              ../../spresense-exported-sdk/nuttx/libs/libnuttx.a(drivers-bchdev_register.o) (bchlib_teardown)
../../spresense-exported-sdk/nuttx/libs/libnuttx.a(drivers-vsyslog.o)
                              ../../spresense-exported-sdk/nuttx/libs/libnuttx.a(c-lib_syslog.o) (nx_vsyslog)
../../spresense-exported-sdk/nuttx/libs/libnuttx.a(c-lib_basename.o)
                              ../../spresense-exported-sdk/nuttx/libs/libnuttx.a(net-net_procfs.o) (basename)
../../spresense-exported-sdk/nuttx/libs/libnuttx.a(c-lib_checkbase.o)
                              ../../spresense-exported-sdk/nuttx/libs/libnuttx.a(c-lib_strtoul.o) (lib_checkbase)
../../spresense-exported-sdk/nuttx/libs/libnuttx.a(c-lib_isbasedigit.o)
                              ../../spresense-exported-sdk/nuttx/libs/libnuttx.a(c-lib_strtoul.o) (lib_isbasedigit)
../../spresense-exported-sdk/nuttx/libs/libnuttx.a(c-lib_setlogmask.o)
                              ../../spresense-exported-sdk/nuttx/libs/libnuttx.a(c-lib_syslog.o) (g_syslog_mask)
../../spresense-exported-sdk/nuttx/libs/libnuttx.a(c-lib_skipspace.o)
                              ../../spresense-exported-sdk/nuttx/libs/libnuttx.a(c-lib_strtol.o) (lib_skipspace)
../../spresense-exported-sdk/nuttx/libs/libnuttx.a(c-lib_strrchr.o)
                              ../../spresense-exported-sdk/nuttx/libs/libnuttx.a(c-lib_basename.o) (strrchr)
../../spresense-exported-sdk/nuttx/libs/libnuttx.a(c-lib_vsnprintf.o)
                              ../../spresense-exported-sdk/nuttx/libs/libnuttx.a(fs-fs_procfs_mount.o) (vsnprintf)
../../spresense-exported-sdk/nuttx/libs/libnuttx.a(mm-mm_heapmember.o)
                              ../../spresense-exported-sdk/nuttx/libs/libnuttx.a(mm-umm_heapmember.o) (mm_heapmember)
../../spresense-exported-sdk/nuttx/libs/libnuttx.a(mm-mm_realloc.o)
                              ../../spresense-exported-sdk/nuttx/libs/libnuttx.a(mm-umm_realloc.o) (mm_realloc)
../../spresense-exported-sdk/nuttx/libs/libnuttx.a(mm-mm_shrinkchunk.o)
                              ../../spresense-exported-sdk/nuttx/libs/libnuttx.a(mm-mm_realloc.o) (mm_shrinkchunk)
../../spresense-exported-sdk/nuttx/libs/libnuttx.a(mm-umm_mallinfo.o)
                              ../../spresense-exported-sdk/nuttx/libs/libnuttx.a(fs-fs_procfsmeminfo.o) (mallinfo)
../../spresense-exported-sdk/nuttx/libs/libnuttx.a(net-netdev_count.o)
                              ../../spresense-exported-sdk/nuttx/libs/libnuttx.a(net-net_procfs.o) (netdev_count)
../../spresense-exported-sdk/nuttx/libs/libnuttx.a(net-netdev_findbyindex.o)
                              ../../spresense-exported-sdk/nuttx/libs/libnuttx.a(net-net_procfs.o) (netdev_findbyindex)
../../spresense-exported-sdk/nuttx/libs/libnuttx.a(net-netdev_findbyname.o)
                              ../../spresense-exported-sdk/nuttx/libs/libnuttx.a(net-net_procfs.o) (netdev_findbyname)
../../spresense-exported-sdk/nuttx/libs/libnuttx.a(net-netdev_statistics.o)
                              ../../spresense-exported-sdk/nuttx/libs/libnuttx.a(net-net_procfs.o) (netprocfs_read_devstats)
../../spresense-exported-sdk/nuttx/libs/libnuttx.a(fs-fs_closeblockdriver.o)
                              ../../spresense-exported-sdk/nuttx/libs/libnuttx.a(drivers-bchlib_teardown.o) (close_blockdriver)
../../spresense-exported-sdk/nuttx/libs/libnuttx.a(fs-fs_foreachmountpoint.o)
                              ../../spresense-exported-sdk/nuttx/libs/libnuttx.a(fs-fs_procfs_mount.o) (foreach_mountpoint)
../../spresense-exported-sdk/nuttx/libs/libnuttx.a(fs-fs_gettype.o)
                              ../../spresense-exported-sdk/nuttx/libs/libnuttx.a(fs-fs_procfs_mount.o) (fs_gettype)
../../spresense-exported-sdk/nuttx/libs/libnuttx.a(fs-fs_inoderemove.o)
                              ../../spresense-exported-sdk/nuttx/libs/libnuttx.a(fs-fs_unlink.o) (inode_remove)
../../spresense-exported-sdk/nuttx/libs/libnuttx.a(fs-fs_openblockdriver.o)
                              ../../spresense-exported-sdk/nuttx/libs/libnuttx.a(drivers-bchlib_setup.o) (open_blockdriver)
../../spresense-exported-sdk/nuttx/libs/libnuttx.a(fs-mq_close.o)
                              ../../spresense-exported-sdk/nuttx/libs/libnuttx.a(sched-mq_release.o) (nxmq_close_group)
../../spresense-exported-sdk/nuttx/libs/libnuttx.a(sched-clock_timespec_subtract.o)
                              ../../spresense-exported-sdk/nuttx/libs/libnuttx.a(sched-sig_nanosleep.o) (clock_timespec_subtract)
../../spresense-exported-sdk/nuttx/libs/libnuttx.a(sched-env_release.o)
                              ../../spresense-exported-sdk/nuttx/libs/libnuttx.a(sched-group_leave.o) (env_release)
../../spresense-exported-sdk/nuttx/libs/libnuttx.a(sched-group_foreachchild.o)
                              ../../spresense-exported-sdk/nuttx/libs/libnuttx.a(sched-group_signal.o) (group_foreachchild)
../../spresense-exported-sdk/nuttx/libs/libnuttx.a(sched-mq_desclose.o)
                              ../../spresense-exported-sdk/nuttx/libs/libnuttx.a(fs-mq_close.o) (nxmq_desclose_group)
../../spresense-exported-sdk/nuttx/libs/libnuttx.a(sched-sig_action.o)
                              ../../spresense-exported-sdk/nuttx/libs/libnuttx.a(sched-sig_cleanup.o) (nxsig_release_action)
../../spresense-exported-sdk/nuttx/libs/libnuttx.a(drivers-bchdev_driver.o)
                              ../../spresense-exported-sdk/nuttx/libs/libnuttx.a(drivers-bchdev_register.o) (bch_fops)
../../spresense-exported-sdk/nuttx/libs/libnuttx.a(drivers-bchlib_cache.o)
                              ../../spresense-exported-sdk/nuttx/libs/libnuttx.a(drivers-bchlib_teardown.o) (bchlib_flushsector)
../../spresense-exported-sdk/nuttx/libs/libnuttx.a(drivers-bchlib_read.o)
                              ../../spresense-exported-sdk/nuttx/libs/libnuttx.a(drivers-bchdev_driver.o) (bchlib_read)
../../spresense-exported-sdk/nuttx/libs/libnuttx.a(drivers-bchlib_sem.o)
                              ../../spresense-exported-sdk/nuttx/libs/libnuttx.a(drivers-bchdev_driver.o) (bchlib_semtake)
../../spresense-exported-sdk/nuttx/libs/libnuttx.a(drivers-bchlib_write.o)
                              ../../spresense-exported-sdk/nuttx/libs/libnuttx.a(drivers-bchdev_driver.o) (bchlib_write)
../../spresense-exported-sdk/nuttx/libs/libnuttx.a(drivers-syslog_emergstream.o)
                              ../../spresense-exported-sdk/nuttx/libs/libnuttx.a(drivers-vsyslog.o) (emergstream)
../../spresense-exported-sdk/nuttx/libs/libnuttx.a(drivers-syslog_force.o)
                              ../../spresense-exported-sdk/nuttx/libs/libnuttx.a(drivers-syslog_emergstream.o) (syslog_force)
../../spresense-exported-sdk/nuttx/libs/libnuttx.a(drivers-syslog_stream.o)
                              ../../spresense-exported-sdk/nuttx/libs/libnuttx.a(drivers-vsyslog.o) (syslogstream_create)
../../spresense-exported-sdk/nuttx/libs/libnuttx.a(c-lib_etherntoa.o)
                              ../../spresense-exported-sdk/nuttx/libs/libnuttx.a(net-netdev_statistics.o) (ether_ntoa)
../../spresense-exported-sdk/nuttx/libs/libnuttx.a(c-lib_sprintf.o)
                              ../../spresense-exported-sdk/nuttx/libs/libnuttx.a(fs-fs_foreachmountpoint.o) (sprintf)
../../spresense-exported-sdk/nuttx/libs/libnuttx.a(mm-mm_mallinfo.o)
                              ../../spresense-exported-sdk/nuttx/libs/libnuttx.a(mm-umm_mallinfo.o) (mm_mallinfo)
../../spresense-exported-sdk/nuttx/libs/libnuttx.a(fs-fs_findblockdriver.o)
                              ../../spresense-exported-sdk/nuttx/libs/libnuttx.a(fs-fs_openblockdriver.o) (find_blockdriver)
../../spresense-exported-sdk/nuttx/libs/libnuttx.a(fs-fs_foreachinode.o)
                              ../../spresense-exported-sdk/nuttx/libs/libnuttx.a(fs-fs_foreachmountpoint.o) (foreach_inode)
../../spresense-exported-sdk/nuttx/libs/libnuttx.a(fs-fs_mtdproxy.o)
                              ../../spresense-exported-sdk/nuttx/libs/libnuttx.a(fs-fs_openblockdriver.o) (mtd_proxy)
../../spresense-exported-sdk/nuttx/libs/libnuttx.a(drivers-ftl.o)
                              ../../spresense-exported-sdk/nuttx/libs/libnuttx.a(fs-fs_mtdproxy.o) (ftl_initialize_by_path)
../../spresense-exported-sdk/nuttx/libs/libnuttx.a(drivers-syslog_putc.o)
                              ../../spresense-exported-sdk/nuttx/libs/libnuttx.a(drivers-syslog_stream.o) (syslog_putc)
../../spresense-exported-sdk/nuttx/libs/libnuttx.a(fs-fs_findmtddriver.o)
                              ../../spresense-exported-sdk/nuttx/libs/libnuttx.a(fs-fs_mtdproxy.o) (find_mtddriver)
../../spresense-exported-sdk/nuttx/libs/libnuttx.a(fs-fs_registerblockdriver.o)
                              ../../spresense-exported-sdk/nuttx/libs/libnuttx.a(drivers-ftl.o) (register_blockdriver)
../../spresense-exported-sdk/nuttx/libs/libapps.a(nsh_main.o)
                              ../../spresense-exported-sdk/nuttx/libs/libnuttx.a(board-cxd56_main.o) (nsh_main)
../../spresense-exported-sdk/nuttx/libs/libapps.a(lateinit.o)
                              ../../spresense-exported-sdk/nuttx/libs/libnuttx.a(sched-nx_bringup.o) (board_late_initialize)
../../spresense-exported-sdk/nuttx/libs/libapps.a(gnu_cxxinitialize.o)
                              ../../spresense-exported-sdk/nuttx/libs/libapps.a(nsh_main.o) (up_cxxinitialize)
../../spresense-exported-sdk/nuttx/libs/libapps.a(nsh_init.o)
                              ../../spresense-exported-sdk/nuttx/libs/libapps.a(nsh_main.o) (nsh_initialize)
../../spresense-exported-sdk/nuttx/libs/libapps.a(nsh_parse.o)
                              ../../spresense-exported-sdk/nuttx/libs/libapps.a(nsh_init.o) (g_nshprompt)
../../spresense-exported-sdk/nuttx/libs/libapps.a(nsh_command.o)
                              ../../spresense-exported-sdk/nuttx/libs/libapps.a(nsh_parse.o) (nsh_command)
../../spresense-exported-sdk/nuttx/libs/libapps.a(nsh_fscmds.o)
                              ../../spresense-exported-sdk/nuttx/libs/libapps.a(nsh_command.o) (cmd_basename)
../../spresense-exported-sdk/nuttx/libs/libapps.a(nsh_ddcmd.o)
                              ../../spresense-exported-sdk/nuttx/libs/libapps.a(nsh_command.o) (cmd_dd)
../../spresense-exported-sdk/nuttx/libs/libapps.a(nsh_proccmds.o)
                              ../../spresense-exported-sdk/nuttx/libs/libapps.a(nsh_command.o) (cmd_exec)
../../spresense-exported-sdk/nuttx/libs/libapps.a(nsh_mmcmds.o)
                              ../../spresense-exported-sdk/nuttx/libs/libapps.a(nsh_command.o) (cmd_free)
../../spresense-exported-sdk/nuttx/libs/libapps.a(nsh_timcmds.o)
                              ../../spresense-exported-sdk/nuttx/libs/libapps.a(nsh_command.o) (cmd_time)
../../spresense-exported-sdk/nuttx/libs/libapps.a(nsh_envcmds.o)
                              ../../spresense-exported-sdk/nuttx/libs/libapps.a(nsh_fscmds.o) (nsh_getcwd)
../../spresense-exported-sdk/nuttx/libs/libapps.a(nsh_syscmds.o)
                              ../../spresense-exported-sdk/nuttx/libs/libapps.a(nsh_command.o) (cmd_poweroff)
../../spresense-exported-sdk/nuttx/libs/libapps.a(nsh_dbgcmds.o)
                              ../../spresense-exported-sdk/nuttx/libs/libapps.a(nsh_command.o) (cmd_mb)
../../spresense-exported-sdk/nuttx/libs/libapps.a(nsh_fsutils.o)
                              ../../spresense-exported-sdk/nuttx/libs/libapps.a(nsh_fscmds.o) (nsh_catfile)
../../spresense-exported-sdk/nuttx/libs/libapps.a(nsh_builtin.o)
                              ../../spresense-exported-sdk/nuttx/libs/libapps.a(nsh_parse.o) (nsh_builtin)
../../spresense-exported-sdk/nuttx/libs/libapps.a(nsh_netcmds.o)
                              ../../spresense-exported-sdk/nuttx/libs/libapps.a(nsh_command.o) (cmd_ifup)
../../spresense-exported-sdk/nuttx/libs/libapps.a(nsh_mntcmds.o)
                              ../../spresense-exported-sdk/nuttx/libs/libapps.a(nsh_command.o) (cmd_df)
../../spresense-exported-sdk/nuttx/libs/libapps.a(nsh_consolemain.o)
                              ../../spresense-exported-sdk/nuttx/libs/libapps.a(nsh_main.o) (nsh_consolemain)
../../spresense-exported-sdk/nuttx/libs/libapps.a(nsh_test.o)
                              ../../spresense-exported-sdk/nuttx/libs/libapps.a(nsh_command.o) (cmd_test)
../../spresense-exported-sdk/nuttx/libs/libapps.a(exec_builtin.o)
                              ../../spresense-exported-sdk/nuttx/libs/libapps.a(nsh_builtin.o) (exec_builtin)
../../spresense-exported-sdk/nuttx/libs/libapps.a(readline_common.o)
                              ../../spresense-exported-sdk/nuttx/libs/libapps.a(nsh_init.o) (readline_prompt)
../../spresense-exported-sdk/nuttx/libs/libapps.a(netlib_ipv4addrconv.o)
                              ../../spresense-exported-sdk/nuttx/libs/libapps.a(nsh_netcmds.o) (netlib_ipv4addrconv)
../../spresense-exported-sdk/nuttx/libs/libapps.a(netlib_ethaddrconv.o)
                              ../../spresense-exported-sdk/nuttx/libs/libapps.a(nsh_netcmds.o) (netlib_ethaddrconv)
../../spresense-exported-sdk/nuttx/libs/libapps.a(netlib_setifstatus.o)
                              ../../spresense-exported-sdk/nuttx/libs/libapps.a(nsh_netcmds.o) (netlib_ifup)
../../spresense-exported-sdk/nuttx/libs/libapps.a(netlib_setmacaddr.o)
                              ../../spresense-exported-sdk/nuttx/libs/libapps.a(nsh_netcmds.o) (netlib_setmacaddr)
../../spresense-exported-sdk/nuttx/libs/libapps.a(netinit.o)
                              ../../spresense-exported-sdk/nuttx/libs/libapps.a(nsh_init.o) (netinit_bringup)
../../spresense-exported-sdk/nuttx/libs/libapps.a(mksmartfs.o)
                              ../../spresense-exported-sdk/nuttx/libs/libapps.a(nsh_fscmds.o) (issmartfs)
../../spresense-exported-sdk/nuttx/libs/libapps.a(mkfatfs.o)
                              ../../spresense-exported-sdk/nuttx/libs/libapps.a(nsh_fscmds.o) (mkfatfs)
../../spresense-exported-sdk/nuttx/libs/libapps.a(configfat.o)
                              ../../spresense-exported-sdk/nuttx/libs/libapps.a(mkfatfs.o) (mkfatfs_configfatfs)
../../spresense-exported-sdk/nuttx/libs/libapps.a(writefat.o)
                              ../../spresense-exported-sdk/nuttx/libs/libapps.a(mkfatfs.o) (mkfatfs_writefatfs)
../../spresense-exported-sdk/nuttx/libs/libapps.a(nsh_console.o)
                              ../../spresense-exported-sdk/nuttx/libs/libapps.a(nsh_consolemain.o) (nsh_newconsole)
../../spresense-exported-sdk/nuttx/libs/libapps.a(nsh_script.o)
                              ../../spresense-exported-sdk/nuttx/libs/libapps.a(nsh_fscmds.o) (nsh_script)
../../spresense-exported-sdk/nuttx/libs/libapps.a(nsh_session.o)
                              ../../spresense-exported-sdk/nuttx/libs/libapps.a(nsh_consolemain.o) (nsh_session)
../../spresense-exported-sdk/nuttx/libs/libapps.a(readline.o)
                              ../../spresense-exported-sdk/nuttx/libs/libapps.a(nsh_session.o) (readline)
../../spresense-exported-sdk/nuttx/libs/libnuttx.a(sched-clock_settime.o)
                              ../../spresense-exported-sdk/nuttx/libs/libapps.a(nsh_timcmds.o) (clock_settime)
../../spresense-exported-sdk/nuttx/libs/libnuttx.a(sched-env_getenv.o)
                              ../../spresense-exported-sdk/nuttx/libs/libapps.a(nsh_parse.o) (getenv)
../../spresense-exported-sdk/nuttx/libs/libnuttx.a(sched-env_setenv.o)
                              ../../spresense-exported-sdk/nuttx/libs/libapps.a(nsh_envcmds.o) (setenv)
../../spresense-exported-sdk/nuttx/libs/libnuttx.a(sched-env_unsetenv.o)
                              ../../spresense-exported-sdk/nuttx/libs/libapps.a(nsh_envcmds.o) (unsetenv)
../../spresense-exported-sdk/nuttx/libs/libnuttx.a(sched-pthread_create.o)
                              ../../spresense-exported-sdk/nuttx/libs/libapps.a(nsh_parse.o) (pthread_create)
../../spresense-exported-sdk/nuttx/libs/libnuttx.a(sched-pthread_detach.o)
                              ../../spresense-exported-sdk/nuttx/libs/libapps.a(nsh_parse.o) (pthread_detach)
../../spresense-exported-sdk/nuttx/libs/libnuttx.a(sched-pthread_exit.o)
                              ../../spresense-exported-sdk/nuttx/libs/libnuttx.a(sched-pthread_create.o) (pthread_exit)
../../spresense-exported-sdk/nuttx/libs/libnuttx.a(sched-pthread_findjoininfo.o)
                              ../../spresense-exported-sdk/nuttx/libs/libnuttx.a(sched-pthread_detach.o) (pthread_findjoininfo)
../../spresense-exported-sdk/nuttx/libs/libnuttx.a(sched-pthread_initialize.o)
                              ../../spresense-exported-sdk/nuttx/libs/libnuttx.a(sched-pthread_create.o) (pthread_sem_take)
../../spresense-exported-sdk/nuttx/libs/libnuttx.a(sched-pthread_mutexinconsistent.o)
                              ../../spresense-exported-sdk/nuttx/libs/libnuttx.a(sched-pthread_exit.o) (pthread_mutex_inconsistent)
../../spresense-exported-sdk/nuttx/libs/libnuttx.a(sched-sched_getparam.o)
                              ../../spresense-exported-sdk/nuttx/libs/libnuttx.a(sched-pthread_create.o) (nxsched_getparam)
../../spresense-exported-sdk/nuttx/libs/libnuttx.a(sched-sched_getscheduler.o)
                              ../../spresense-exported-sdk/nuttx/libs/libnuttx.a(sched-pthread_create.o) (nxsched_getscheduler)
../../spresense-exported-sdk/nuttx/libs/libnuttx.a(sched-sched_setparam.o)
                              ../../spresense-exported-sdk/nuttx/libs/libapps.a(nsh_main.o) (sched_setparam)
../../spresense-exported-sdk/nuttx/libs/libnuttx.a(sched-sched_setpriority.o)
                              ../../spresense-exported-sdk/nuttx/libs/libnuttx.a(sched-pthread_create.o) (nxsched_setpriority)
../../spresense-exported-sdk/nuttx/libs/libnuttx.a(sched-sched_waitpid.o)
                              ../../spresense-exported-sdk/nuttx/libs/libapps.a(nsh_builtin.o) (waitpid)
../../spresense-exported-sdk/nuttx/libs/libnuttx.a(sched-task_spawn.o)
                              ../../spresense-exported-sdk/nuttx/libs/libapps.a(exec_builtin.o) (task_spawn)
../../spresense-exported-sdk/nuttx/libs/libnuttx.a(sched-task_spawnparms.o)
                              ../../spresense-exported-sdk/nuttx/libs/libnuttx.a(sched-task_spawn.o) (spawn_semtake)
../../spresense-exported-sdk/nuttx/libs/libnuttx.a(boards-boardctl.o)
                              ../../spresense-exported-sdk/nuttx/libs/libapps.a(nsh_init.o) (boardctl)
../../spresense-exported-sdk/nuttx/libs/libnuttx.a(c-lib_asprintf.o)
                              ../../spresense-exported-sdk/nuttx/libs/libapps.a(nsh_parse.o) (asprintf)
../../spresense-exported-sdk/nuttx/libs/libnuttx.a(c-lib_builtin_forindex.o)
                              ../../spresense-exported-sdk/nuttx/libs/libapps.a(exec_builtin.o) (builtin_for_index)
../../spresense-exported-sdk/nuttx/libs/libnuttx.a(c-lib_builtin_getname.o)
                              ../../spresense-exported-sdk/nuttx/libs/libapps.a(nsh_command.o) (builtin_getname)
../../spresense-exported-sdk/nuttx/libs/libnuttx.a(c-lib_builtin_isavail.o)
                              ../../spresense-exported-sdk/nuttx/libs/libapps.a(exec_builtin.o) (builtin_isavail)
../../spresense-exported-sdk/nuttx/libs/libnuttx.a(c-lib_chdir.o)
                              ../../spresense-exported-sdk/nuttx/libs/libapps.a(nsh_envcmds.o) (chdir)
../../spresense-exported-sdk/nuttx/libs/libnuttx.a(c-lib_dirname.o)
                              ../../spresense-exported-sdk/nuttx/libs/libapps.a(nsh_fscmds.o) (dirname)
../../spresense-exported-sdk/nuttx/libs/libnuttx.a(c-lib_fclose.o)
                              ../../spresense-exported-sdk/nuttx/libs/libapps.a(nsh_console.o) (fclose)
../../spresense-exported-sdk/nuttx/libs/libnuttx.a(c-lib_fflush.o)
                              ../../spresense-exported-sdk/nuttx/libs/libapps.a(nsh_console.o) (fflush)
../../spresense-exported-sdk/nuttx/libs/libnuttx.a(c-lib_fgets.o)
                              ../../spresense-exported-sdk/nuttx/libs/libapps.a(nsh_script.o) (fgets)
../../spresense-exported-sdk/nuttx/libs/libnuttx.a(c-lib_fopen.o)
                              ../../spresense-exported-sdk/nuttx/libs/libapps.a(nsh_console.o) (fdopen)
../../spresense-exported-sdk/nuttx/libs/libnuttx.a(c-lib_fprintf.o)
                              ../../spresense-exported-sdk/nuttx/libs/libapps.a(nsh_main.o) (fprintf)
../../spresense-exported-sdk/nuttx/libs/libnuttx.a(c-lib_fputs.o)
                              ../../spresense-exported-sdk/nuttx/libs/libapps.a(nsh_session.o) (fputs)
../../spresense-exported-sdk/nuttx/libs/libnuttx.a(c-lib_ftell.o)
                              ../../spresense-exported-sdk/nuttx/libs/libapps.a(nsh_script.o) (ftell)
../../spresense-exported-sdk/nuttx/libs/libnuttx.a(c-lib_fwrite.o)
                              ../../spresense-exported-sdk/nuttx/libs/libapps.a(nsh_console.o) (fwrite)
../../spresense-exported-sdk/nuttx/libs/libnuttx.a(c-lib_getopt.o)
                              ../../spresense-exported-sdk/nuttx/libs/libapps.a(nsh_fscmds.o) (getopt)
../../spresense-exported-sdk/nuttx/libs/libnuttx.a(c-lib_gmtimer.o)
                              ../../spresense-exported-sdk/nuttx/libs/libapps.a(nsh_timcmds.o) (gmtime_r)
../../spresense-exported-sdk/nuttx/libs/libnuttx.a(c-lib_isleapyear.o)
                              ../../spresense-exported-sdk/nuttx/libs/libnuttx.a(c-lib_gmtimer.o) (clock_isleapyear)
../../spresense-exported-sdk/nuttx/libs/libnuttx.a(c-lib_libfgets.o)
                              ../../spresense-exported-sdk/nuttx/libs/libnuttx.a(c-lib_fgets.o) (lib_fgets)
../../spresense-exported-sdk/nuttx/libs/libnuttx.a(c-lib_memcmp.o)
                              ../../spresense-exported-sdk/nuttx/libs/libapps.a(nsh_fscmds.o) (memcmp)
../../spresense-exported-sdk/nuttx/libs/libnuttx.a(c-lib_mkfifo.o)
                              ../../spresense-exported-sdk/nuttx/libs/libapps.a(nsh_fscmds.o) (mkfifo)
../../spresense-exported-sdk/nuttx/libs/libnuttx.a(c-lib_mktime.o)
                              ../../spresense-exported-sdk/nuttx/libs/libapps.a(nsh_timcmds.o) (mktime)
../../spresense-exported-sdk/nuttx/libs/libnuttx.a(c-lib_psa_init.o)
                              ../../spresense-exported-sdk/nuttx/libs/libapps.a(exec_builtin.o) (posix_spawnattr_init)
../../spresense-exported-sdk/nuttx/libs/libnuttx.a(c-lib_psa_setflags.o)
                              ../../spresense-exported-sdk/nuttx/libs/libapps.a(exec_builtin.o) (posix_spawnattr_setflags)
../../spresense-exported-sdk/nuttx/libs/libnuttx.a(c-lib_psa_setschedparam.o)
                              ../../spresense-exported-sdk/nuttx/libs/libapps.a(exec_builtin.o) (posix_spawnattr_setschedparam)
../../spresense-exported-sdk/nuttx/libs/libnuttx.a(c-lib_psa_setschedpolicy.o)
                              ../../spresense-exported-sdk/nuttx/libs/libapps.a(exec_builtin.o) (posix_spawnattr_setschedpolicy)
../../spresense-exported-sdk/nuttx/libs/libnuttx.a(c-lib_psa_setstacksize.o)
                              ../../spresense-exported-sdk/nuttx/libs/libapps.a(exec_builtin.o) (task_spawnattr_setstacksize)
../../spresense-exported-sdk/nuttx/libs/libnuttx.a(c-lib_psfa_addopen.o)
                              ../../spresense-exported-sdk/nuttx/libs/libapps.a(exec_builtin.o) (posix_spawn_file_actions_addopen)
../../spresense-exported-sdk/nuttx/libs/libnuttx.a(c-lib_psfa_destroy.o)
                              ../../spresense-exported-sdk/nuttx/libs/libapps.a(exec_builtin.o) (posix_spawn_file_actions_destroy)
../../spresense-exported-sdk/nuttx/libs/libnuttx.a(c-lib_psfa_init.o)
                              ../../spresense-exported-sdk/nuttx/libs/libapps.a(exec_builtin.o) (posix_spawn_file_actions_init)
../../spresense-exported-sdk/nuttx/libs/libnuttx.a(c-lib_sleep.o)
                              ../../spresense-exported-sdk/nuttx/libs/libapps.a(nsh_proccmds.o) (sleep)
../../spresense-exported-sdk/nuttx/libs/libnuttx.a(c-lib_strcat.o)
                              ../../spresense-exported-sdk/nuttx/libs/libapps.a(nsh_parse.o) (strcat)
../../spresense-exported-sdk/nuttx/libs/libnuttx.a(c-lib_strftime.o)
                              ../../spresense-exported-sdk/nuttx/libs/libapps.a(nsh_timcmds.o) (strftime)
../../spresense-exported-sdk/nuttx/libs/libnuttx.a(c-lib_strncasecmp.o)
                              ../../spresense-exported-sdk/nuttx/libs/libapps.a(nsh_timcmds.o) (strncasecmp)
../../spresense-exported-sdk/nuttx/libs/libnuttx.a(c-lib_strtokr.o)
                              ../../spresense-exported-sdk/nuttx/libs/libapps.a(nsh_timcmds.o) (strtok_r)
../../spresense-exported-sdk/nuttx/libs/libnuttx.a(c-lib_usleep.o)
                              ../../spresense-exported-sdk/nuttx/libs/libapps.a(nsh_proccmds.o) (usleep)
../../spresense-exported-sdk/nuttx/libs/libnuttx.a(c-lib_utsname.o)
                              ../../spresense-exported-sdk/nuttx/libs/libapps.a(nsh_syscmds.o) (uname)
../../spresense-exported-sdk/nuttx/libs/libnuttx.a(c-lib_vasprintf.o)
                              ../../spresense-exported-sdk/nuttx/libs/libnuttx.a(c-lib_asprintf.o) (vasprintf)
../../spresense-exported-sdk/nuttx/libs/libnuttx.a(c-pthread_attr_init.o)
                              ../../spresense-exported-sdk/nuttx/libs/libapps.a(nsh_parse.o) (pthread_attr_init)
../../spresense-exported-sdk/nuttx/libs/libnuttx.a(c-pthread_attr_setschedparam.o)
                              ../../spresense-exported-sdk/nuttx/libs/libapps.a(nsh_parse.o) (pthread_attr_setschedparam)
../../spresense-exported-sdk/nuttx/libs/libnuttx.a(c-pthread_attr_setschedpolicy.o)
                              ../../spresense-exported-sdk/nuttx/libs/libapps.a(nsh_parse.o) (pthread_attr_setschedpolicy)
../../spresense-exported-sdk/nuttx/libs/libnuttx.a(c-sched_getprioritymax.o)
                              ../../spresense-exported-sdk/nuttx/libs/libapps.a(nsh_parse.o) (sched_get_priority_max)
../../spresense-exported-sdk/nuttx/libs/libnuttx.a(c-sched_getprioritymin.o)
                              ../../spresense-exported-sdk/nuttx/libs/libapps.a(nsh_parse.o) (sched_get_priority_min)
../../spresense-exported-sdk/nuttx/libs/libnuttx.a(arch-up_usestack.o)
                              ../../spresense-exported-sdk/nuttx/libs/libnuttx.a(sched-pthread_create.o) (up_use_stack)
../../spresense-exported-sdk/nuttx/libs/libnuttx.a(net-socket.o)
                              ../../spresense-exported-sdk/nuttx/libs/libapps.a(netlib_setifstatus.o) (socket)
../../spresense-exported-sdk/nuttx/libs/libnuttx.a(net-usrsock_sockif.o)
                              ../../spresense-exported-sdk/nuttx/libs/libnuttx.a(net-socket.o) (g_usrsock_sockif)
../../spresense-exported-sdk/nuttx/libs/libnuttx.a(fs-fs_closedir.o)
                              ../../spresense-exported-sdk/nuttx/libs/libapps.a(nsh_fsutils.o) (closedir)
../../spresense-exported-sdk/nuttx/libs/libnuttx.a(fs-fs_dup2.o)
                              ../../spresense-exported-sdk/nuttx/libs/libnuttx.a(sched-task_spawnparms.o) (dup2)
../../spresense-exported-sdk/nuttx/libs/libnuttx.a(fs-fs_ioctl.o)
                              ../../spresense-exported-sdk/nuttx/libs/libapps.a(nsh_builtin.o) (ioctl)
../../spresense-exported-sdk/nuttx/libs/libnuttx.a(fs-fs_mkdir.o)
                              ../../spresense-exported-sdk/nuttx/libs/libapps.a(nsh_fscmds.o) (mkdir)
../../spresense-exported-sdk/nuttx/libs/libnuttx.a(fs-fs_mount.o)
                              ../../spresense-exported-sdk/nuttx/libs/libapps.a(nsh_mntcmds.o) (mount)
../../spresense-exported-sdk/nuttx/libs/libnuttx.a(fs-fs_opendir.o)
                              ../../spresense-exported-sdk/nuttx/libs/libapps.a(nsh_fsutils.o) (opendir)
../../spresense-exported-sdk/nuttx/libs/libnuttx.a(fs-fs_readdir.o)
                              ../../spresense-exported-sdk/nuttx/libs/libapps.a(nsh_fsutils.o) (readdir)
../../spresense-exported-sdk/nuttx/libs/libnuttx.a(fs-fs_read.o)
                              ../../spresense-exported-sdk/nuttx/libs/libapps.a(nsh_parse.o) (read)
../../spresense-exported-sdk/nuttx/libs/libnuttx.a(fs-fs_rename.o)
                              ../../spresense-exported-sdk/nuttx/libs/libapps.a(nsh_fscmds.o) (rename)
../../spresense-exported-sdk/nuttx/libs/libnuttx.a(fs-fs_rmdir.o)
                              ../../spresense-exported-sdk/nuttx/libs/libapps.a(nsh_fscmds.o) (rmdir)
../../spresense-exported-sdk/nuttx/libs/libnuttx.a(fs-fs_romfs.o)
                              ../../spresense-exported-sdk/nuttx/libs/libnuttx.a(fs-fs_mount.o) (romfs_operations)
../../spresense-exported-sdk/nuttx/libs/libnuttx.a(fs-fs_romfsutil.o)
                              ../../spresense-exported-sdk/nuttx/libs/libnuttx.a(fs-fs_romfs.o) (romfs_semtake)
../../spresense-exported-sdk/nuttx/libs/libnuttx.a(fs-fs_umount2.o)
                              ../../spresense-exported-sdk/nuttx/libs/libapps.a(nsh_mntcmds.o) (umount2)
../../spresense-exported-sdk/nuttx/libs/libnuttx.a(fs-smartfs_smart.o)
                              ../../spresense-exported-sdk/nuttx/libs/libnuttx.a(fs-fs_mount.o) (smartfs_operations)
../../spresense-exported-sdk/nuttx/libs/libnuttx.a(board-cxd56_appinit.o)
                              ../../spresense-exported-sdk/nuttx/libs/libnuttx.a(boards-boardctl.o) (board_app_initialize)
../../spresense-exported-sdk/nuttx/libs/libnuttx.a(board-cxd56_bringup.o)
                              ../../spresense-exported-sdk/nuttx/libs/libapps.a(lateinit.o) (cxd56_bringup)
../../spresense-exported-sdk/nuttx/libs/libnuttx.a(board-cxd56_clock.o)
                              ../../spresense-exported-sdk/nuttx/libs/libnuttx.a(board-cxd56_bringup.o) (board_clock_initialize)
../../spresense-exported-sdk/nuttx/libs/libnuttx.a(board-cxd56_flash.o)
                              ../../spresense-exported-sdk/nuttx/libs/libnuttx.a(board-cxd56_bringup.o) (board_flash_initialize)
../../spresense-exported-sdk/nuttx/libs/libnuttx.a(board-cxd56_i2cdev.o)
                              ../../spresense-exported-sdk/nuttx/libs/libnuttx.a(board-cxd56_bringup.o) (board_i2cdev_initialize)
../../spresense-exported-sdk/nuttx/libs/libnuttx.a(board-cxd56_ioctl.o)
                              ../../spresense-exported-sdk/nuttx/libs/libnuttx.a(boards-boardctl.o) (board_ioctl)
../../spresense-exported-sdk/nuttx/libs/libnuttx.a(board-cxd56_power.o)
                              ../../spresense-exported-sdk/nuttx/libs/libnuttx.a(board-cxd56_bringup.o) (board_power_setup)
../../spresense-exported-sdk/nuttx/libs/libnuttx.a(board-cxd56_pwm.o)
                              ../../spresense-exported-sdk/nuttx/libs/libnuttx.a(board-cxd56_bringup.o) (board_pwm_setup)
../../spresense-exported-sdk/nuttx/libs/libnuttx.a(board-cxd56_uid.o)
                              ../../spresense-exported-sdk/nuttx/libs/libnuttx.a(boards-boardctl.o) (board_uniqueid)
../../spresense-exported-sdk/nuttx/libs/libnuttx.a(board-cxd56_usbmsc.o)
                              ../../spresense-exported-sdk/nuttx/libs/libnuttx.a(boards-boardctl.o) (board_usbmsc_initialize)
../../spresense-exported-sdk/nuttx/libs/libnuttx.a(sched-env_findvar.o)
                              ../../spresense-exported-sdk/nuttx/libs/libnuttx.a(sched-env_getenv.o) (env_findvar)
../../spresense-exported-sdk/nuttx/libs/libnuttx.a(sched-env_removevar.o)
                              ../../spresense-exported-sdk/nuttx/libs/libnuttx.a(sched-env_setenv.o) (env_removevar)
../../spresense-exported-sdk/nuttx/libs/libnuttx.a(sched-group_join.o)
                              ../../spresense-exported-sdk/nuttx/libs/libnuttx.a(sched-pthread_create.o) (group_bind)
../../spresense-exported-sdk/nuttx/libs/libnuttx.a(sched-pthread_completejoin.o)
                              ../../spresense-exported-sdk/nuttx/libs/libnuttx.a(sched-pthread_detach.o) (pthread_destroyjoin)
../../spresense-exported-sdk/nuttx/libs/libnuttx.a(sched-sched_setscheduler.o)
                              ../../spresense-exported-sdk/nuttx/libs/libnuttx.a(sched-task_spawnparms.o) (nxsched_setscheduler)
../../spresense-exported-sdk/nuttx/libs/libnuttx.a(sched-task_getgroup.o)
                              ../../spresense-exported-sdk/nuttx/libs/libnuttx.a(sched-pthread_completejoin.o) (task_getgroup)
../../spresense-exported-sdk/nuttx/libs/libnuttx.a(sched-task_reparent.o)
                              ../../spresense-exported-sdk/nuttx/libs/libnuttx.a(sched-task_spawn.o) (task_reparent)
../../spresense-exported-sdk/nuttx/libs/libnuttx.a(drivers-cdcacm.o)
                              ../../spresense-exported-sdk/nuttx/libs/libnuttx.a(boards-boardctl.o) (cdcacm_initialize)
../../spresense-exported-sdk/nuttx/libs/libnuttx.a(drivers-fifo.o)
                              ../../spresense-exported-sdk/nuttx/libs/libnuttx.a(c-lib_mkfifo.o) (mkfifo2)
../../spresense-exported-sdk/nuttx/libs/libnuttx.a(drivers-i2c_driver.o)
                              ../../spresense-exported-sdk/nuttx/libs/libnuttx.a(board-cxd56_i2cdev.o) (i2c_register)
../../spresense-exported-sdk/nuttx/libs/libnuttx.a(drivers-mkrd.o)
                              ../../spresense-exported-sdk/nuttx/libs/libnuttx.a(boards-boardctl.o) (mkrd)
../../spresense-exported-sdk/nuttx/libs/libnuttx.a(drivers-pipe_common.o)
                              ../../spresense-exported-sdk/nuttx/libs/libnuttx.a(drivers-fifo.o) (pipecommon_allocdev)
../../spresense-exported-sdk/nuttx/libs/libnuttx.a(drivers-ramdisk.o)
                              ../../spresense-exported-sdk/nuttx/libs/libnuttx.a(drivers-mkrd.o) (ramdisk_register)
../../spresense-exported-sdk/nuttx/libs/libnuttx.a(drivers-rtc.o)
                              ../../spresense-exported-sdk/nuttx/libs/libnuttx.a(board-cxd56_bringup.o) (rtc_initialize)
../../spresense-exported-sdk/nuttx/libs/libnuttx.a(drivers-smart.o)
                              ../../spresense-exported-sdk/nuttx/libs/libnuttx.a(board-cxd56_flash.o) (smart_initialize)
../../spresense-exported-sdk/nuttx/libs/libnuttx.a(drivers-usbmsc.o)
                              ../../spresense-exported-sdk/nuttx/libs/libnuttx.a(boards-boardctl.o) (usbmsc_uninitialize)
../../spresense-exported-sdk/nuttx/libs/libnuttx.a(drivers-usbmsc_scsi.o)
                              ../../spresense-exported-sdk/nuttx/libs/libnuttx.a(drivers-usbmsc.o) (usbmsc_scsi_main)
../../spresense-exported-sdk/nuttx/libs/libnuttx.a(c-lib_calendar2utc.o)
                              ../../spresense-exported-sdk/nuttx/libs/libnuttx.a(c-lib_mktime.o) (clock_calendar2utc)
../../spresense-exported-sdk/nuttx/libs/libnuttx.a(c-lib_crc8.o)
                              ../../spresense-exported-sdk/nuttx/libs/libnuttx.a(drivers-smart.o) (crc8part)
../../spresense-exported-sdk/nuttx/libs/libnuttx.a(c-lib_daysbeforemonth.o)
                              ../../spresense-exported-sdk/nuttx/libs/libnuttx.a(c-lib_gmtimer.o) (clock_daysbeforemonth)
../../spresense-exported-sdk/nuttx/libs/libnuttx.a(c-lib_fgetc.o)
                              ../../spresense-exported-sdk/nuttx/libs/libnuttx.a(c-lib_libfgets.o) (fgetc)
../../spresense-exported-sdk/nuttx/libs/libnuttx.a(c-lib_gethostname.o)
                              ../../spresense-exported-sdk/nuttx/libs/libnuttx.a(c-lib_utsname.o) (gethostname)
../../spresense-exported-sdk/nuttx/libs/libnuttx.a(c-lib_libfread.o)
                              ../../spresense-exported-sdk/nuttx/libs/libnuttx.a(c-lib_fgetc.o) (lib_fread)
../../spresense-exported-sdk/nuttx/libs/libnuttx.a(c-lib_psfa_addaction.o)
                              ../../spresense-exported-sdk/nuttx/libs/libnuttx.a(c-lib_psfa_addopen.o) (add_file_action)
../../spresense-exported-sdk/nuttx/libs/libnuttx.a(arch-cxd56_i2c.o)
                              ../../spresense-exported-sdk/nuttx/libs/libnuttx.a(board-cxd56_i2cdev.o) (cxd56_i2cbus_initialize)
../../spresense-exported-sdk/nuttx/libs/libnuttx.a(arch-cxd56_rtc_lowerhalf.o)
                              ../../spresense-exported-sdk/nuttx/libs/libnuttx.a(board-cxd56_bringup.o) (cxd56_rtc_lowerhalf)
../../spresense-exported-sdk/nuttx/libs/libnuttx.a(arch-cxd56_scu.o)
                              ../../spresense-exported-sdk/nuttx/libs/libnuttx.a(board-cxd56_bringup.o) (scu_initialize)
../../spresense-exported-sdk/nuttx/libs/libnuttx.a(arch-cxd56_sfc.o)
                              ../../spresense-exported-sdk/nuttx/libs/libnuttx.a(board-cxd56_flash.o) (cxd56_sfc_initialize)
../../spresense-exported-sdk/nuttx/libs/libnuttx.a(arch-cxd56_sysctl.o)
                              ../../spresense-exported-sdk/nuttx/libs/libnuttx.a(board-cxd56_bringup.o) (cxd56_sysctlinitialize)
../../spresense-exported-sdk/nuttx/libs/libnuttx.a(arch-cxd56_timer.o)
                              ../../spresense-exported-sdk/nuttx/libs/libnuttx.a(board-cxd56_bringup.o) (cxd56_timer_initialize)
../../spresense-exported-sdk/nuttx/libs/libnuttx.a(arch-cxd56_udmac.o)
                              ../../spresense-exported-sdk/nuttx/libs/libnuttx.a(arch-cxd56_scu.o) (cxd56_udmainitialize)
../../spresense-exported-sdk/nuttx/libs/libnuttx.a(arch-cxd56_uid.o)
                              ../../spresense-exported-sdk/nuttx/libs/libnuttx.a(board-cxd56_uid.o) (cxd56_get_uniqueid)
../../spresense-exported-sdk/nuttx/libs/libnuttx.a(arch-cxd56_wdt.o)
                              ../../spresense-exported-sdk/nuttx/libs/libnuttx.a(board-cxd56_bringup.o) (cxd56_wdt_initialize)
../../spresense-exported-sdk/nuttx/libs/libnuttx.a(net-netdev_ioctl.o)
                              ../../spresense-exported-sdk/nuttx/libs/libnuttx.a(fs-fs_ioctl.o) (netdev_ioctl)
../../spresense-exported-sdk/nuttx/libs/libnuttx.a(net-net_dupsd2.o)
                              ../../spresense-exported-sdk/nuttx/libs/libnuttx.a(fs-fs_dup2.o) (net_dupsd2)
../../spresense-exported-sdk/nuttx/libs/libnuttx.a(net-net_sockif.o)
                              ../../spresense-exported-sdk/nuttx/libs/libnuttx.a(net-socket.o) (net_sockif)
../../spresense-exported-sdk/nuttx/libs/libnuttx.a(net-recvfrom.o)
                              ../../spresense-exported-sdk/nuttx/libs/libnuttx.a(fs-fs_read.o) (nx_recvfrom)
../../spresense-exported-sdk/nuttx/libs/libnuttx.a(net-usrsock_accept.o)
                              ../../spresense-exported-sdk/nuttx/libs/libnuttx.a(net-usrsock_sockif.o) (usrsock_accept)
../../spresense-exported-sdk/nuttx/libs/libnuttx.a(net-usrsock_bind.o)
                              ../../spresense-exported-sdk/nuttx/libs/libnuttx.a(net-usrsock_sockif.o) (usrsock_bind)
../../spresense-exported-sdk/nuttx/libs/libnuttx.a(net-usrsock_close.o)
                              ../../spresense-exported-sdk/nuttx/libs/libnuttx.a(net-usrsock_sockif.o) (usrsock_close)
../../spresense-exported-sdk/nuttx/libs/libnuttx.a(net-usrsock_connect.o)
                              ../../spresense-exported-sdk/nuttx/libs/libnuttx.a(net-usrsock_sockif.o) (usrsock_connect)
../../spresense-exported-sdk/nuttx/libs/libnuttx.a(net-usrsock_getpeername.o)
                              ../../spresense-exported-sdk/nuttx/libs/libnuttx.a(net-usrsock_sockif.o) (usrsock_getpeername)
../../spresense-exported-sdk/nuttx/libs/libnuttx.a(net-usrsock_getsockname.o)
                              ../../spresense-exported-sdk/nuttx/libs/libnuttx.a(net-usrsock_sockif.o) (usrsock_getsockname)
../../spresense-exported-sdk/nuttx/libs/libnuttx.a(net-usrsock_ioctl.o)
                              ../../spresense-exported-sdk/nuttx/libs/libnuttx.a(net-usrsock_sockif.o) (usrsock_ioctl)
../../spresense-exported-sdk/nuttx/libs/libnuttx.a(net-usrsock_listen.o)
                              ../../spresense-exported-sdk/nuttx/libs/libnuttx.a(net-usrsock_sockif.o) (usrsock_listen)
../../spresense-exported-sdk/nuttx/libs/libnuttx.a(net-usrsock_poll.o)
                              ../../spresense-exported-sdk/nuttx/libs/libnuttx.a(net-usrsock_sockif.o) (usrsock_poll)
../../spresense-exported-sdk/nuttx/libs/libnuttx.a(net-usrsock_recvfrom.o)
                              ../../spresense-exported-sdk/nuttx/libs/libnuttx.a(net-usrsock_sockif.o) (usrsock_recvfrom)
../../spresense-exported-sdk/nuttx/libs/libnuttx.a(net-usrsock_sendto.o)
                              ../../spresense-exported-sdk/nuttx/libs/libnuttx.a(net-usrsock_sockif.o) (usrsock_sendto)
../../spresense-exported-sdk/nuttx/libs/libnuttx.a(net-usrsock_socket.o)
                              ../../spresense-exported-sdk/nuttx/libs/libnuttx.a(net-usrsock_sockif.o) (usrsock_socket)
../../spresense-exported-sdk/nuttx/libs/libnuttx.a(fs-fs_fat32.o)
                              ../../spresense-exported-sdk/nuttx/libs/libnuttx.a(fs-fs_mount.o) (fat_operations)
../../spresense-exported-sdk/nuttx/libs/libnuttx.a(fs-fs_fat32util.o)
                              ../../spresense-exported-sdk/nuttx/libs/libnuttx.a(fs-fs_fat32.o) (fat_semtake)
../../spresense-exported-sdk/nuttx/libs/libnuttx.a(fs-fs_unregisterblockdriver.o)
                              ../../spresense-exported-sdk/nuttx/libs/libnuttx.a(drivers-smart.o) (unregister_blockdriver)
../../spresense-exported-sdk/nuttx/libs/libnuttx.a(fs-fs_unregisterdriver.o)
                              ../../spresense-exported-sdk/nuttx/libs/libnuttx.a(drivers-cdcacm.o) (unregister_driver)
../../spresense-exported-sdk/nuttx/libs/libnuttx.a(drivers-cdcacm_desc.o)
                              ../../spresense-exported-sdk/nuttx/libs/libnuttx.a(drivers-cdcacm.o) (cdcacm_mkstrdesc)
../../spresense-exported-sdk/nuttx/libs/libnuttx.a(drivers-timer.o)
                              ../../spresense-exported-sdk/nuttx/libs/libnuttx.a(arch-cxd56_timer.o) (timer_register)
../../spresense-exported-sdk/nuttx/libs/libnuttx.a(drivers-usbmsc_desc.o)
                              ../../spresense-exported-sdk/nuttx/libs/libnuttx.a(drivers-usbmsc.o) (usbmsc_mkstrdesc)
../../spresense-exported-sdk/nuttx/libs/libnuttx.a(drivers-watchdog.o)
                              ../../spresense-exported-sdk/nuttx/libs/libnuttx.a(arch-cxd56_wdt.o) (watchdog_register)
../../spresense-exported-sdk/nuttx/libs/libnuttx.a(arch-cxd56_scufifo.o)
                              ../../spresense-exported-sdk/nuttx/libs/libnuttx.a(arch-cxd56_scu.o) (scufifo_memalloc)
../../spresense-exported-sdk/nuttx/libs/libnuttx.a(net-net_clone.o)
                              ../../spresense-exported-sdk/nuttx/libs/libnuttx.a(net-net_dupsd2.o) (net_clone)
../../spresense-exported-sdk/nuttx/libs/libnuttx.a(fs-fs_fat32dirent.o)
                              ../../spresense-exported-sdk/nuttx/libs/libnuttx.a(fs-fs_fat32.o) (fat_finddirentry)
../../spresense-exported-sdk/nuttx/libs/libapps.a(builtin_list.o)
                              ../../spresense-exported-sdk/nuttx/libs/libnuttx.a(c-lib_builtin_forindex.o) (g_builtin_count)
../../spresense-exported-sdk/nuttx/libs/libapps.a(hello_main.o)
                              ../../spresense-exported-sdk/nuttx/libs/libapps.a(builtin_list.o) (hello_main)
../../spresense-exported-sdk/nuttx/libs/libnuttx.a(c-lib_sin.o)
                              ../../spresense-exported-sdk/nuttx/libs/libapps.a(hello_main.o) (sin)
../../spresense-exported-sdk/nuttx/libs/libnuttx.a(c-lib_fmod.o)
                              ../../spresense-exported-sdk/nuttx/libs/libnuttx.a(c-lib_sin.o) (fmod)
../../spresense-exported-sdk/nuttx/libs/libnuttx.a(c-lib_modf.o)
                              ../../spresense-exported-sdk/nuttx/libs/libnuttx.a(c-lib_fmod.o) (modf)
../../spresense-exported-sdk/nuttx/libs/libnuttx.a(c-lib_fabs.o)
                              ../../spresense-exported-sdk/nuttx/libs/libnuttx.a(c-lib_modf.o) (fabs)

Allocating common symbols
Common symbol       size              file

g_grouphead         0x4               ../../spresense-exported-sdk/nuttx/libs/libnuttx.a(sched-group_create.o)
g_msgfree           0x8               ../../spresense-exported-sdk/nuttx/libs/libnuttx.a(sched-mq_initialize.o)
g_waitingformqnotempty
                    0x8               ../../spresense-exported-sdk/nuttx/libs/libnuttx.a(sched-nx_start.o)
g_sigfreeaction     0x8               ../../spresense-exported-sdk/nuttx/libs/libnuttx.a(sched-sig_initialize.o)
g_spawn_parms       0x1c              ../../spresense-exported-sdk/nuttx/libs/libnuttx.a(sched-task_spawnparms.o)
g_waitingforsemaphore
                    0x8               ../../spresense-exported-sdk/nuttx/libs/libnuttx.a(sched-nx_start.o)
g_readytorun        0x8               ../../spresense-exported-sdk/nuttx/libs/libnuttx.a(sched-nx_start.o)
optarg              0x4               ../../spresense-exported-sdk/nuttx/libs/libnuttx.a(c-lib_getopt.o)
g_sigpendingaction  0x8               ../../spresense-exported-sdk/nuttx/libs/libnuttx.a(sched-sig_initialize.o)
g_system_timer      0x4               ../../spresense-exported-sdk/nuttx/libs/libnuttx.a(sched-clock_initialize.o)
g_fifomem           0x7c              ../../spresense-exported-sdk/nuttx/libs/libnuttx.a(arch-cxd56_scufifo.o)
g_msgfreeirq        0x8               ../../spresense-exported-sdk/nuttx/libs/libnuttx.a(sched-mq_initialize.o)
g_hpwork            0xc               ../../spresense-exported-sdk/nuttx/libs/libnuttx.a(sched-kwork_hpthread.o)
g_wdfreelist        0x8               ../../spresense-exported-sdk/nuttx/libs/libnuttx.a(sched-wd_initialize.o)
g_sigpendingirqaction
                    0x8               ../../spresense-exported-sdk/nuttx/libs/libnuttx.a(sched-sig_initialize.o)
g_waitingformqnotfull
                    0x8               ../../spresense-exported-sdk/nuttx/libs/libnuttx.a(sched-nx_start.o)
g_inactivetasks     0x8               ../../spresense-exported-sdk/nuttx/libs/libnuttx.a(sched-nx_start.o)
g_desfree           0x8               ../../spresense-exported-sdk/nuttx/libs/libnuttx.a(sched-mq_initialize.o)
g_waitingforsignal  0x8               ../../spresense-exported-sdk/nuttx/libs/libnuttx.a(sched-nx_start.o)
g_mmheap            0x144             ../../spresense-exported-sdk/nuttx/libs/libnuttx.a(mm-umm_globals.o)
g_sigpendingirqsignal
                    0x8               ../../spresense-exported-sdk/nuttx/libs/libnuttx.a(sched-sig_initialize.o)
g_lpwork            0x14              ../../spresense-exported-sdk/nuttx/libs/libnuttx.a(sched-kwork_lpthread.o)
g_scudev            0x130             ../../spresense-exported-sdk/nuttx/libs/libnuttx.a(arch-cxd56_scu.o)
g_pidhash           0x100             ../../spresense-exported-sdk/nuttx/libs/libnuttx.a(sched-nx_start.o)
g_basetime          0x8               ../../spresense-exported-sdk/nuttx/libs/libnuttx.a(sched-clock_initialize.o)
g_pendingtasks      0x8               ../../spresense-exported-sdk/nuttx/libs/libnuttx.a(sched-nx_start.o)
g_wdnfree           0x2               ../../spresense-exported-sdk/nuttx/libs/libnuttx.a(sched-wd_initialize.o)
g_sigpendingsignal  0x8               ../../spresense-exported-sdk/nuttx/libs/libnuttx.a(sched-sig_initialize.o)
g_usbmsc_handoff    0x4               ../../spresense-exported-sdk/nuttx/libs/libnuttx.a(drivers-usbmsc.o)
g_lastpid           0x2               ../../spresense-exported-sdk/nuttx/libs/libnuttx.a(sched-nx_start.o)
g_current_regs      0x4               ../../spresense-exported-sdk/nuttx/libs/libnuttx.a(arch-cxd56_irq.o)
g_nx_initstate      0x1               ../../spresense-exported-sdk/nuttx/libs/libnuttx.a(sched-nx_start.o)
g_wdactivelist      0x8               ../../spresense-exported-sdk/nuttx/libs/libnuttx.a(sched-wd_initialize.o)
g_irqvector         0x480             ../../spresense-exported-sdk/nuttx/libs/libnuttx.a(sched-irq_initialize.o)
g_delayed_kufree    0x8               ../../spresense-exported-sdk/nuttx/libs/libnuttx.a(sched-nx_start.o)
g_running_tasks     0x4               ../../spresense-exported-sdk/nuttx/libs/libnuttx.a(sched-nx_start.o)

Memory Configuration

Name             Origin             Length             Attributes
ram              0x000000000d000000 0x0000000000180000 xrw
*default*        0x0000000000000000 0xffffffffffffffff

Linker script and memory map


.text           0x000000000d000000    0x28068
                0x000000000d000000                _stext = ABSOLUTE (.)
 *(.vectors)
 .vectors       0x000000000d000000      0x240 ../../spresense-exported-sdk/nuttx/libs/libnuttx.a(arch-up_vectors.o)
                0x000000000d000000                _vectors
 *(.text .text.*)
 .text          0x000000000d000240       0x24 CMakeFiles/hellocpp.dir/HelloWorld.cpp.obj
                0x000000000d000240                CHelloWorld::CHelloWorld()
                0x000000000d000240                CHelloWorld::CHelloWorld()
                0x000000000d00024c                CHelloWorld::~CHelloWorld()
                0x000000000d00024c                CHelloWorld::~CHelloWorld()
                0x000000000d000250                CHelloWorld::HelloWorld()
 .text          0x000000000d000264       0x1c CMakeFiles/hellocpp.dir/main.cpp.obj
                0x000000000d000264                hellocpp_main
 .text          0x000000000d000280        0x0 ../../spresense-exported-sdk/nuttx/libs/libnuttx.a(c-lib_printf.o)
 .text.printf   0x000000000d000280       0x26 ../../spresense-exported-sdk/nuttx/libs/libnuttx.a(c-lib_printf.o)
                0x000000000d000280                printf
 .text          0x000000000d0002a6        0x0 ../../spresense-exported-sdk/nuttx/libs/libnuttx.a(c-lib_vfprintf.o)
 .text.vfprintf
                0x000000000d0002a6       0x38 ../../spresense-exported-sdk/nuttx/libs/libnuttx.a(c-lib_vfprintf.o)
                0x000000000d0002a6                vfprintf
 .text          0x000000000d0002de        0x0 ../../spresense-exported-sdk/nuttx/libs/libnuttx.a(arch-cxd56_start.o)
 .text.go_nx_start
                0x000000000d0002de       0x24 ../../spresense-exported-sdk/nuttx/libs/libnuttx.a(arch-cxd56_start.o)
 *fill*         0x000000000d000302        0x2 
 .text.fpuconfig
                0x000000000d000304       0x28 ../../spresense-exported-sdk/nuttx/libs/libnuttx.a(arch-cxd56_start.o)
                0x000000000d000304                fpuconfig
 .text.__start  0x000000000d00032c       0x78 ../../spresense-exported-sdk/nuttx/libs/libnuttx.a(arch-cxd56_start.o)
                0x000000000d00032c                __start
 .text          0x000000000d0003a4        0x0 ../../spresense-exported-sdk/nuttx/libs/libnuttx.a(arch-cxd56_uart.o)
 .text.cxd56_uart_stop.constprop.0
                0x000000000d0003a4       0x4c ../../spresense-exported-sdk/nuttx/libs/libnuttx.a(arch-cxd56_uart.o)
 .text.up_lowputc
                0x000000000d0003f0       0x18 ../../spresense-exported-sdk/nuttx/libs/libnuttx.a(arch-cxd56_uart.o)
                0x000000000d0003f0                up_lowputc
 .text.cxd56_uart_reset
                0x000000000d000408       0x44 ../../spresense-exported-sdk/nuttx/libs/libnuttx.a(arch-cxd56_uart.o)
                0x000000000d000408                cxd56_uart_reset
 .text.cxd56_uart_setup
                0x000000000d00044c       0x64 ../../spresense-exported-sdk/nuttx/libs/libnuttx.a(arch-cxd56_uart.o)
                0x000000000d00044c                cxd56_uart_setup
 .text.cxd56_setbaud
                0x000000000d0004b0       0x70 ../../spresense-exported-sdk/nuttx/libs/libnuttx.a(arch-cxd56_uart.o)
                0x000000000d0004b0                cxd56_setbaud
 .text.cxd56_lowsetup
                0x000000000d000520       0x40 ../../spresense-exported-sdk/nuttx/libs/libnuttx.a(arch-cxd56_uart.o)
                0x000000000d000520                cxd56_lowsetup
 .text.cxd56_uart_start.constprop.0
                0x000000000d000560       0x48 ../../spresense-exported-sdk/nuttx/libs/libnuttx.a(arch-cxd56_uart.o)
 .text.cxd56_uart_clockchange
                0x000000000d0005a8       0x30 ../../spresense-exported-sdk/nuttx/libs/libnuttx.a(arch-cxd56_uart.o)
 .text.cxd56_uart_initialize
                0x000000000d0005d8       0x18 ../../spresense-exported-sdk/nuttx/libs/libnuttx.a(arch-cxd56_uart.o)
                0x000000000d0005d8                cxd56_uart_initialize
 .text          0x000000000d0005f0        0x0 ../../spresense-exported-sdk/nuttx/libs/libnuttx.a(arch-up_vectors.o)
 .text          0x000000000d0005f0        0x0 ../../spresense-exported-sdk/nuttx/libs/libnuttx.a(board-cxd56_boot.o)
 .text.cxd56_boardinitialize
                0x000000000d0005f0        0x2 ../../spresense-exported-sdk/nuttx/libs/libnuttx.a(board-cxd56_boot.o)
                0x000000000d0005f0                cxd56_boardinitialize
 .text          0x000000000d0005f2        0x0 ../../spresense-exported-sdk/nuttx/libs/libnuttx.a(board-cxd56_main.o)
 .text.spresense_main
                0x000000000d0005f2        0x4 ../../spresense-exported-sdk/nuttx/libs/libnuttx.a(board-cxd56_main.o)
                0x000000000d0005f2                spresense_main
 .text          0x000000000d0005f6        0x0 ../../spresense-exported-sdk/nuttx/libs/libnuttx.a(sched-nx_start.o)
 *fill*         0x000000000d0005f6        0x2 
 .text.nx_start
                0x000000000d0005f8      0x1b0 ../../spresense-exported-sdk/nuttx/libs/libnuttx.a(sched-nx_start.o)
                0x000000000d0005f8                nx_start
 .text          0x000000000d0007a8        0x0 ../../spresense-exported-sdk/nuttx/libs/libnuttx.a(sched-sched_getstreams.o)
 .text.sched_getstreams
                0x000000000d0007a8       0x10 ../../spresense-exported-sdk/nuttx/libs/libnuttx.a(sched-sched_getstreams.o)
                0x000000000d0007a8                sched_getstreams
 .text          0x000000000d0007b8        0x0 ../../spresense-exported-sdk/nuttx/libs/libnuttx.a(drivers-syslog_initialize.o)
 .text.syslog_initialize
                0x000000000d0007b8        0xc ../../spresense-exported-sdk/nuttx/libs/libnuttx.a(drivers-syslog_initialize.o)
                0x000000000d0007b8                syslog_initialize
 .text          0x000000000d0007c4        0x0 ../../spresense-exported-sdk/nuttx/libs/libnuttx.a(c-dq_addfirst.o)
 .text.dq_addfirst
                0x000000000d0007c4       0x16 ../../spresense-exported-sdk/nuttx/libs/libnuttx.a(c-dq_addfirst.o)
                0x000000000d0007c4                dq_addfirst
 .text          0x000000000d0007da        0x0 ../../spresense-exported-sdk/nuttx/libs/libnuttx.a(c-lib_filesem.o)
 .text.lib_sem_initialize
                0x000000000d0007da       0x1a ../../spresense-exported-sdk/nuttx/libs/libnuttx.a(c-lib_filesem.o)
                0x000000000d0007da                lib_sem_initialize
 .text.lib_take_semaphore
                0x000000000d0007f4       0x2c ../../spresense-exported-sdk/nuttx/libs/libnuttx.a(c-lib_filesem.o)
                0x000000000d0007f4                lib_take_semaphore
 .text.lib_give_semaphore
                0x000000000d000820       0x1c ../../spresense-exported-sdk/nuttx/libs/libnuttx.a(c-lib_filesem.o)
                0x000000000d000820                lib_give_semaphore
 .text          0x000000000d00083c        0x0 ../../spresense-exported-sdk/nuttx/libs/libnuttx.a(c-lib_libvsprintf.o)
 .text.lib_vsprintf
                0x000000000d00083c      0x7f8 ../../spresense-exported-sdk/nuttx/libs/libnuttx.a(c-lib_libvsprintf.o)
                0x000000000d00083c                lib_vsprintf
 .text          0x000000000d001034        0x0 ../../spresense-exported-sdk/nuttx/libs/libnuttx.a(c-lib_memset.o)
 .text.memset   0x000000000d001034       0x10 ../../spresense-exported-sdk/nuttx/libs/libnuttx.a(c-lib_memset.o)
                0x000000000d001034                memset
 .text          0x000000000d001044        0x0 ../../spresense-exported-sdk/nuttx/libs/libnuttx.a(c-lib_stdoutstream.o)
 .text.stdoutstream_flush
                0x000000000d001044        0x8 ../../spresense-exported-sdk/nuttx/libs/libnuttx.a(c-lib_stdoutstream.o)
 .text.stdoutstream_putc
                0x000000000d00104c       0x26 ../../spresense-exported-sdk/nuttx/libs/libnuttx.a(c-lib_stdoutstream.o)
 *fill*         0x000000000d001072        0x2 
 .text.lib_stdoutstream
                0x000000000d001074       0x30 ../../spresense-exported-sdk/nuttx/libs/libnuttx.a(c-lib_stdoutstream.o)
                0x000000000d001074                lib_stdoutstream
 .text          0x000000000d0010a4        0x0 ../../spresense-exported-sdk/nuttx/libs/libnuttx.a(c-lib_strncpy.o)
 .text.strncpy  0x000000000d0010a4       0x24 ../../spresense-exported-sdk/nuttx/libs/libnuttx.a(c-lib_strncpy.o)
                0x000000000d0010a4                strncpy
 .text          0x000000000d0010c8        0x0 ../../spresense-exported-sdk/nuttx/libs/libnuttx.a(c-lib_strnlen.o)
 .text.strnlen  0x000000000d0010c8       0x1a ../../spresense-exported-sdk/nuttx/libs/libnuttx.a(c-lib_strnlen.o)
                0x000000000d0010c8                strnlen
 .text          0x000000000d0010e2        0x0 ../../spresense-exported-sdk/nuttx/libs/libnuttx.a(c-lib_ultoa_invert.o)
 .text.__ultoa_invert
                0x000000000d0010e2       0x58 ../../spresense-exported-sdk/nuttx/libs/libnuttx.a(c-lib_ultoa_invert.o)
                0x000000000d0010e2                __ultoa_invert
 .text          0x000000000d00113a        0x0 ../../spresense-exported-sdk/nuttx/libs/libnuttx.a(c-sem_init.o)
 .text.nxsem_init
                0x000000000d00113a       0x16 ../../spresense-exported-sdk/nuttx/libs/libnuttx.a(c-sem_init.o)
                0x000000000d00113a                nxsem_init
 .text.sem_init
                0x000000000d001150       0x20 ../../spresense-exported-sdk/nuttx/libs/libnuttx.a(c-sem_init.o)
                0x000000000d001150                sem_init
 .text          0x000000000d001170        0x0 ../../spresense-exported-sdk/nuttx/libs/libnuttx.a(mm-umm_initialize.o)
 .text.umm_initialize
                0x000000000d001170       0x10 ../../spresense-exported-sdk/nuttx/libs/libnuttx.a(mm-umm_initialize.o)
                0x000000000d001170                umm_initialize
 .text          0x000000000d001180        0x0 ../../spresense-exported-sdk/nuttx/libs/libnuttx.a(arch-cxd56_allocateheap.o)
 .text.up_allocate_heap
                0x000000000d001180       0x18 ../../spresense-exported-sdk/nuttx/libs/libnuttx.a(arch-cxd56_allocateheap.o)
                0x000000000d001180                up_allocate_heap
 .text          0x000000000d001198        0x0 ../../spresense-exported-sdk/nuttx/libs/libnuttx.a(arch-cxd56_clock.o)
 .text.busy_wait
                0x000000000d001198       0x10 ../../spresense-exported-sdk/nuttx/libs/libnuttx.a(arch-cxd56_clock.o)
 .text.do_power_control
                0x000000000d0011a8       0x34 ../../spresense-exported-sdk/nuttx/libs/libnuttx.a(arch-cxd56_clock.o)
 .text.enable_pwd
                0x000000000d0011dc       0x40 ../../spresense-exported-sdk/nuttx/libs/libnuttx.a(arch-cxd56_clock.o)
 .text.disable_pwd
                0x000000000d00121c       0x30 ../../spresense-exported-sdk/nuttx/libs/libnuttx.a(arch-cxd56_clock.o)
 .text.disable_apwd
                0x000000000d00124c       0x30 ../../spresense-exported-sdk/nuttx/libs/libnuttx.a(arch-cxd56_clock.o)
 .text.cxd56_img_clock_enable
                0x000000000d00127c       0x20 ../../spresense-exported-sdk/nuttx/libs/libnuttx.a(arch-cxd56_clock.o)
 .text.cxd56_scu_clock_ctrl
                0x000000000d00129c       0x54 ../../spresense-exported-sdk/nuttx/libs/libnuttx.a(arch-cxd56_clock.o)
 .text.cxd56_get_clock
                0x000000000d0012f0       0x6c ../../spresense-exported-sdk/nuttx/libs/libnuttx.a(arch-cxd56_clock.o)
 .text.cxd56_img_clock_disable
                0x000000000d00135c       0x44 ../../spresense-exported-sdk/nuttx/libs/libnuttx.a(arch-cxd56_clock.o)
 .text.cxd56_get_suc32k_baseclock
                0x000000000d0013a0       0x28 ../../spresense-exported-sdk/nuttx/libs/libnuttx.a(arch-cxd56_clock.o)
 .text.clock_semgive.constprop.0
                0x000000000d0013c8       0x18 ../../spresense-exported-sdk/nuttx/libs/libnuttx.a(arch-cxd56_clock.o)
 .text.clock_semtake.constprop.0
                0x000000000d0013e0       0x20 ../../spresense-exported-sdk/nuttx/libs/libnuttx.a(arch-cxd56_clock.o)
 .text.cxd56_rcosc_enable
                0x000000000d001400       0x2c ../../spresense-exported-sdk/nuttx/libs/libnuttx.a(arch-cxd56_clock.o)
                0x000000000d001400                cxd56_rcosc_enable
 .text.cxd56_scu_clock_enable.part.0
                0x000000000d00142c       0x5c ../../spresense-exported-sdk/nuttx/libs/libnuttx.a(arch-cxd56_clock.o)
 .text.cxd56_scu_peri_clock_enable
                0x000000000d001488       0x70 ../../spresense-exported-sdk/nuttx/libs/libnuttx.a(arch-cxd56_clock.o)
 .text.cxd56_rcosc_disable
                0x000000000d0014f8        0x6 ../../spresense-exported-sdk/nuttx/libs/libnuttx.a(arch-cxd56_clock.o)
                0x000000000d0014f8                cxd56_rcosc_disable
 *fill*         0x000000000d0014fe        0x2 
 .text.cxd56_xosc_enable
                0x000000000d001500       0x2c ../../spresense-exported-sdk/nuttx/libs/libnuttx.a(arch-cxd56_clock.o)
                0x000000000d001500                cxd56_xosc_enable
 .text.cxd56_xosc_disable
                0x000000000d00152c        0x6 ../../spresense-exported-sdk/nuttx/libs/libnuttx.a(arch-cxd56_clock.o)
                0x000000000d00152c                cxd56_xosc_disable
 *fill*         0x000000000d001532        0x2 
 .text.cxd56_spif_clock_enable
                0x000000000d001534       0x30 ../../spresense-exported-sdk/nuttx/libs/libnuttx.a(arch-cxd56_clock.o)
                0x000000000d001534                cxd56_spif_clock_enable
 .text.cxd56_spif_clock_disable
                0x000000000d001564       0x24 ../../spresense-exported-sdk/nuttx/libs/libnuttx.a(arch-cxd56_clock.o)
                0x000000000d001564                cxd56_spif_clock_disable
 .text.cxd56_cpulist_clock_enable
                0x000000000d001588       0x14 ../../spresense-exported-sdk/nuttx/libs/libnuttx.a(arch-cxd56_clock.o)
                0x000000000d001588                cxd56_cpulist_clock_enable
 .text.cxd56_cpu_clock_enable
                0x000000000d00159c        0xa ../../spresense-exported-sdk/nuttx/libs/libnuttx.a(arch-cxd56_clock.o)
                0x000000000d00159c                cxd56_cpu_clock_enable
 *fill*         0x000000000d0015a6        0x2 
 .text.cxd56_cpulist_clock_disable
                0x000000000d0015a8       0x18 ../../spresense-exported-sdk/nuttx/libs/libnuttx.a(arch-cxd56_clock.o)
                0x000000000d0015a8                cxd56_cpulist_clock_disable
 .text.cxd56_cpu_clock_disable
                0x000000000d0015c0        0xa ../../spresense-exported-sdk/nuttx/libs/libnuttx.a(arch-cxd56_clock.o)
                0x000000000d0015c0                cxd56_cpu_clock_disable
 *fill*         0x000000000d0015ca        0x2 
 .text.cxd56_cpulist_reset
                0x000000000d0015cc       0x34 ../../spresense-exported-sdk/nuttx/libs/libnuttx.a(arch-cxd56_clock.o)
                0x000000000d0015cc                cxd56_cpulist_reset
 .text.cxd56_cpu_reset
                0x000000000d001600        0xa ../../spresense-exported-sdk/nuttx/libs/libnuttx.a(arch-cxd56_clock.o)
                0x000000000d001600                cxd56_cpu_reset
 *fill*         0x000000000d00160a        0x2 
 .text.cxd56_usb_clock_enable
                0x000000000d00160c       0x4c ../../spresense-exported-sdk/nuttx/libs/libnuttx.a(arch-cxd56_clock.o)
                0x000000000d00160c                cxd56_usb_clock_enable
 .text.cxd56_usb_clock_disable
                0x000000000d001658       0x38 ../../spresense-exported-sdk/nuttx/libs/libnuttx.a(arch-cxd56_clock.o)
                0x000000000d001658                cxd56_usb_clock_disable
 .text.cxd56_emmc_clock_enable
                0x000000000d001690       0x90 ../../spresense-exported-sdk/nuttx/libs/libnuttx.a(arch-cxd56_clock.o)
                0x000000000d001690                cxd56_emmc_clock_enable
 .text.cxd56_emmc_clock_disable
                0x000000000d001720       0x30 ../../spresense-exported-sdk/nuttx/libs/libnuttx.a(arch-cxd56_clock.o)
                0x000000000d001720                cxd56_emmc_clock_disable
 .text.cxd56_sdio_clock_enable
                0x000000000d001750       0x44 ../../spresense-exported-sdk/nuttx/libs/libnuttx.a(arch-cxd56_clock.o)
                0x000000000d001750                cxd56_sdio_clock_enable
 .text.cxd56_sdio_clock_disable
                0x000000000d001794       0x30 ../../spresense-exported-sdk/nuttx/libs/libnuttx.a(arch-cxd56_clock.o)
                0x000000000d001794                cxd56_sdio_clock_disable
 .text.cxd56_audio_clock_enable
                0x000000000d0017c4       0x5c ../../spresense-exported-sdk/nuttx/libs/libnuttx.a(arch-cxd56_clock.o)
                0x000000000d0017c4                cxd56_audio_clock_enable
 .text.cxd56_audio_clock_disable
                0x000000000d001820       0x38 ../../spresense-exported-sdk/nuttx/libs/libnuttx.a(arch-cxd56_clock.o)
                0x000000000d001820                cxd56_audio_clock_disable
 .text.cxd56_audio_clock_is_enabled
                0x000000000d001858       0x10 ../../spresense-exported-sdk/nuttx/libs/libnuttx.a(arch-cxd56_clock.o)
                0x000000000d001858                cxd56_audio_clock_is_enabled
 .text.cxd56_spi_clock_enable
                0x000000000d001868       0x60 ../../spresense-exported-sdk/nuttx/libs/libnuttx.a(arch-cxd56_clock.o)
                0x000000000d001868                cxd56_spi_clock_enable
 .text.cxd56_spi_clock_disable
                0x000000000d0018c8       0x6c ../../spresense-exported-sdk/nuttx/libs/libnuttx.a(arch-cxd56_clock.o)
                0x000000000d0018c8                cxd56_spi_clock_disable
 .text.cxd56_spi_clock_gate_enable
                0x000000000d001934       0x14 ../../spresense-exported-sdk/nuttx/libs/libnuttx.a(arch-cxd56_clock.o)
                0x000000000d001934                cxd56_spi_clock_gate_enable
 .text.cxd56_spi_clock_gate_disable
                0x000000000d001948       0x14 ../../spresense-exported-sdk/nuttx/libs/libnuttx.a(arch-cxd56_clock.o)
                0x000000000d001948                cxd56_spi_clock_gate_disable
 .text.cxd56_i2c_clock_enable
                0x000000000d00195c       0x10 ../../spresense-exported-sdk/nuttx/libs/libnuttx.a(arch-cxd56_clock.o)
                0x000000000d00195c                cxd56_i2c_clock_enable
 .text.cxd56_i2c_clock_disable
                0x000000000d00196c       0x38 ../../spresense-exported-sdk/nuttx/libs/libnuttx.a(arch-cxd56_clock.o)
                0x000000000d00196c                cxd56_i2c_clock_disable
 .text.cxd56_i2c_clock_gate_enable
                0x000000000d0019a4       0x14 ../../spresense-exported-sdk/nuttx/libs/libnuttx.a(arch-cxd56_clock.o)
                0x000000000d0019a4                cxd56_i2c_clock_gate_enable
 .text.cxd56_i2c_clock_gate_disable
                0x000000000d0019b8       0x14 ../../spresense-exported-sdk/nuttx/libs/libnuttx.a(arch-cxd56_clock.o)
                0x000000000d0019b8                cxd56_i2c_clock_gate_disable
 .text.cxd56_img_uart_clock_enable
                0x000000000d0019cc       0x30 ../../spresense-exported-sdk/nuttx/libs/libnuttx.a(arch-cxd56_clock.o)
                0x000000000d0019cc                cxd56_img_uart_clock_enable
 .text.cxd56_img_uart_clock_disable
                0x000000000d0019fc       0x28 ../../spresense-exported-sdk/nuttx/libs/libnuttx.a(arch-cxd56_clock.o)
                0x000000000d0019fc                cxd56_img_uart_clock_disable
 .text.cxd56_img_cisif_clock_enable
                0x000000000d001a24       0x28 ../../spresense-exported-sdk/nuttx/libs/libnuttx.a(arch-cxd56_clock.o)
                0x000000000d001a24                cxd56_img_cisif_clock_enable
 .text.cxd56_img_cisif_clock_disable
                0x000000000d001a4c       0x28 ../../spresense-exported-sdk/nuttx/libs/libnuttx.a(arch-cxd56_clock.o)
                0x000000000d001a4c                cxd56_img_cisif_clock_disable
 .text.cxd56_img_ge2d_clock_enable
                0x000000000d001a74       0x28 ../../spresense-exported-sdk/nuttx/libs/libnuttx.a(arch-cxd56_clock.o)
                0x000000000d001a74                cxd56_img_ge2d_clock_enable
 .text.cxd56_img_ge2d_clock_disable
                0x000000000d001a9c       0x28 ../../spresense-exported-sdk/nuttx/libs/libnuttx.a(arch-cxd56_clock.o)
                0x000000000d001a9c                cxd56_img_ge2d_clock_disable
 .text.cxd56_get_sys_baseclock
                0x000000000d001ac4       0x4c ../../spresense-exported-sdk/nuttx/libs/libnuttx.a(arch-cxd56_clock.o)
                0x000000000d001ac4                cxd56_get_sys_baseclock
 .text.cxd56_get_scu_baseclock
                0x000000000d001b10       0x40 ../../spresense-exported-sdk/nuttx/libs/libnuttx.a(arch-cxd56_clock.o)
                0x000000000d001b10                cxd56_get_scu_baseclock
 .text.cxd56_get_appsmp_baseclock
                0x000000000d001b50       0x4c ../../spresense-exported-sdk/nuttx/libs/libnuttx.a(arch-cxd56_clock.o)
                0x000000000d001b50                cxd56_get_appsmp_baseclock
 .text.cxd56_get_cpu_baseclk
                0x000000000d001b9c       0x30 ../../spresense-exported-sdk/nuttx/libs/libnuttx.a(arch-cxd56_clock.o)
                0x000000000d001b9c                cxd56_get_cpu_baseclk
 .text.cxd56_spi_clock_gear_adjust
                0x000000000d001bcc       0x50 ../../spresense-exported-sdk/nuttx/libs/libnuttx.a(arch-cxd56_clock.o)
                0x000000000d001bcc                cxd56_spi_clock_gear_adjust
 .text.cxd56_get_img_uart_baseclock
                0x000000000d001c1c       0x28 ../../spresense-exported-sdk/nuttx/libs/libnuttx.a(arch-cxd56_clock.o)
                0x000000000d001c1c                cxd56_get_img_uart_baseclock
 .text.cxd56_get_com_baseclock
                0x000000000d001c44       0x1c ../../spresense-exported-sdk/nuttx/libs/libnuttx.a(arch-cxd56_clock.o)
                0x000000000d001c44                cxd56_get_com_baseclock
 .text.cxd56_get_sdio_baseclock
                0x000000000d001c60       0x24 ../../spresense-exported-sdk/nuttx/libs/libnuttx.a(arch-cxd56_clock.o)
                0x000000000d001c60                cxd56_get_sdio_baseclock
 .text.cxd56_get_img_spi_baseclock
                0x000000000d001c84       0x28 ../../spresense-exported-sdk/nuttx/libs/libnuttx.a(arch-cxd56_clock.o)
                0x000000000d001c84                cxd56_get_img_spi_baseclock
 .text.cxd56_get_img_wspi_baseclock
                0x000000000d001cac       0x28 ../../spresense-exported-sdk/nuttx/libs/libnuttx.a(arch-cxd56_clock.o)
                0x000000000d001cac                cxd56_get_img_wspi_baseclock
 .text.cxd56_get_spi_baseclock
                0x000000000d001cd4       0x1c ../../spresense-exported-sdk/nuttx/libs/libnuttx.a(arch-cxd56_clock.o)
                0x000000000d001cd4                cxd56_get_spi_baseclock
 .text.cxd56_get_i2c_baseclock
                0x000000000d001cf0        0xa ../../spresense-exported-sdk/nuttx/libs/libnuttx.a(arch-cxd56_clock.o)
                0x000000000d001cf0                cxd56_get_i2c_baseclock
 .text.cxd56_get_pwm_baseclock
                0x000000000d001cfa        0x4 ../../spresense-exported-sdk/nuttx/libs/libnuttx.a(arch-cxd56_clock.o)
                0x000000000d001cfa                cxd56_get_pwm_baseclock
 *fill*         0x000000000d001cfe        0x2 
 .text.cxd56_scu_clock_disable
                0x000000000d001d00       0x70 ../../spresense-exported-sdk/nuttx/libs/libnuttx.a(arch-cxd56_clock.o)
                0x000000000d001d00                cxd56_scu_clock_disable
 .text.cxd56_scuseq_clock_is_enabled
                0x000000000d001d70       0x10 ../../spresense-exported-sdk/nuttx/libs/libnuttx.a(arch-cxd56_clock.o)
                0x000000000d001d70                cxd56_scuseq_clock_is_enabled
 .text.cxd56_scuseq_clock_enable
                0x000000000d001d80       0x28 ../../spresense-exported-sdk/nuttx/libs/libnuttx.a(arch-cxd56_clock.o)
                0x000000000d001d80                cxd56_scuseq_clock_enable
 .text.cxd56_scuseq_release_reset
                0x000000000d001da8       0x2c ../../spresense-exported-sdk/nuttx/libs/libnuttx.a(arch-cxd56_clock.o)
                0x000000000d001da8                cxd56_scuseq_release_reset
 .text.cxd56_scuseq_clock_disable
                0x000000000d001dd4       0x28 ../../spresense-exported-sdk/nuttx/libs/libnuttx.a(arch-cxd56_clock.o)
                0x000000000d001dd4                cxd56_scuseq_clock_disable
 .text.cxd56_udmac_clock_enable
                0x000000000d001dfc       0x10 ../../spresense-exported-sdk/nuttx/libs/libnuttx.a(arch-cxd56_clock.o)
                0x000000000d001dfc                cxd56_udmac_clock_enable
 .text.cxd56_udmac_clock_disable
                0x000000000d001e0c       0x10 ../../spresense-exported-sdk/nuttx/libs/libnuttx.a(arch-cxd56_clock.o)
                0x000000000d001e0c                cxd56_udmac_clock_disable
 .text.cxd56_lpadc_clock_enable
                0x000000000d001e1c        0x2 ../../spresense-exported-sdk/nuttx/libs/libnuttx.a(arch-cxd56_clock.o)
                0x000000000d001e1c                cxd56_lpadc_clock_enable
 .text.cxd56_lpadc_clock_disable
                0x000000000d001e1e        0x2 ../../spresense-exported-sdk/nuttx/libs/libnuttx.a(arch-cxd56_clock.o)
                0x000000000d001e1e                cxd56_lpadc_clock_disable
 .text.cxd56_hpadc_clock_enable
                0x000000000d001e20        0x2 ../../spresense-exported-sdk/nuttx/libs/libnuttx.a(arch-cxd56_clock.o)
                0x000000000d001e20                cxd56_hpadc_clock_enable
 .text.cxd56_hpadc_clock_disable
                0x000000000d001e22        0x2 ../../spresense-exported-sdk/nuttx/libs/libnuttx.a(arch-cxd56_clock.o)
                0x000000000d001e22                cxd56_hpadc_clock_disable
 .text.cxd56_get_xosc_clock
                0x000000000d001e24        0x6 ../../spresense-exported-sdk/nuttx/libs/libnuttx.a(arch-cxd56_clock.o)
                0x000000000d001e24                cxd56_get_xosc_clock
 .text.cxd56_get_rcosc_clock
                0x000000000d001e2a        0x6 ../../spresense-exported-sdk/nuttx/libs/libnuttx.a(arch-cxd56_clock.o)
                0x000000000d001e2a                cxd56_get_rcosc_clock
 .text.cxd56_get_rtc_clock
                0x000000000d001e30        0x6 ../../spresense-exported-sdk/nuttx/libs/libnuttx.a(arch-cxd56_clock.o)
                0x000000000d001e30                cxd56_get_rtc_clock
 .text.cxd56_get_syspll_clock
                0x000000000d001e36        0x6 ../../spresense-exported-sdk/nuttx/libs/libnuttx.a(arch-cxd56_clock.o)
                0x000000000d001e36                cxd56_get_syspll_clock
 .text.cxd56_get_sys_ahb_baseclock
                0x000000000d001e3c       0x1c ../../spresense-exported-sdk/nuttx/libs/libnuttx.a(arch-cxd56_clock.o)
                0x000000000d001e3c                cxd56_get_sys_ahb_baseclock
 .text.cxd56_get_sys_apb_baseclock
                0x000000000d001e58       0x1c ../../spresense-exported-sdk/nuttx/libs/libnuttx.a(arch-cxd56_clock.o)
                0x000000000d001e58                cxd56_get_sys_apb_baseclock
 .text.cxd56_get_sys_sfc_baseclock
                0x000000000d001e74       0x2c ../../spresense-exported-sdk/nuttx/libs/libnuttx.a(arch-cxd56_clock.o)
                0x000000000d001e74                cxd56_get_sys_sfc_baseclock
 .text.cxd56_get_hpadc_baseclock
                0x000000000d001ea0       0x18 ../../spresense-exported-sdk/nuttx/libs/libnuttx.a(arch-cxd56_clock.o)
                0x000000000d001ea0                cxd56_get_hpadc_baseclock
 .text.cxd56_get_lpadc_baseclock
                0x000000000d001eb8       0x18 ../../spresense-exported-sdk/nuttx/libs/libnuttx.a(arch-cxd56_clock.o)
                0x000000000d001eb8                cxd56_get_lpadc_baseclock
 .text.cxd56_get_pmui2c_baseclock
                0x000000000d001ed0       0x28 ../../spresense-exported-sdk/nuttx/libs/libnuttx.a(arch-cxd56_clock.o)
                0x000000000d001ed0                cxd56_get_pmui2c_baseclock
 .text.cxd56_get_gps_cpu_baseclock
                0x000000000d001ef8       0x1c ../../spresense-exported-sdk/nuttx/libs/libnuttx.a(arch-cxd56_clock.o)
                0x000000000d001ef8                cxd56_get_gps_cpu_baseclock
 .text.cxd56_get_gps_ahb_baseclock
                0x000000000d001f14       0x1c ../../spresense-exported-sdk/nuttx/libs/libnuttx.a(arch-cxd56_clock.o)
                0x000000000d001f14                cxd56_get_gps_ahb_baseclock
 .text.cxd56_get_usb_baseclock
                0x000000000d001f30       0x24 ../../spresense-exported-sdk/nuttx/libs/libnuttx.a(arch-cxd56_clock.o)
                0x000000000d001f30                cxd56_get_usb_baseclock
 .text.cxd56_get_img_vsync_baseclock
                0x000000000d001f54       0x20 ../../spresense-exported-sdk/nuttx/libs/libnuttx.a(arch-cxd56_clock.o)
                0x000000000d001f54                cxd56_get_img_vsync_baseclock
 .text.up_pmramctrl
                0x000000000d001f74       0xd0 ../../spresense-exported-sdk/nuttx/libs/libnuttx.a(arch-cxd56_clock.o)
                0x000000000d001f74                up_pmramctrl
 .text          0x000000000d002044        0x0 ../../spresense-exported-sdk/nuttx/libs/libnuttx.a(arch-cxd56_delay.o)
 *fill*         0x000000000d002044        0x4 
 .text.up_mdelay
                0x000000000d002048       0x48 ../../spresense-exported-sdk/nuttx/libs/libnuttx.a(arch-cxd56_delay.o)
                0x000000000d002048                up_mdelay
 .text.up_udelay
                0x000000000d002090       0x78 ../../spresense-exported-sdk/nuttx/libs/libnuttx.a(arch-cxd56_delay.o)
                0x000000000d002090                up_udelay
 .text          0x000000000d002108        0x0 ../../spresense-exported-sdk/nuttx/libs/libnuttx.a(arch-cxd56_idle.o)
 .text.up_idle  0x000000000d002108        0x4 ../../spresense-exported-sdk/nuttx/libs/libnuttx.a(arch-cxd56_idle.o)
                0x000000000d002108                up_idle
 .text          0x000000000d00210c        0x0 ../../spresense-exported-sdk/nuttx/libs/libnuttx.a(arch-cxd56_pinconfig.o)
 .text.get_mode_regaddr
                0x000000000d00210c      0x138 ../../spresense-exported-sdk/nuttx/libs/libnuttx.a(arch-cxd56_pinconfig.o)
 .text.cxd56_pin_configs
                0x000000000d002244       0xd8 ../../spresense-exported-sdk/nuttx/libs/libnuttx.a(arch-cxd56_pinconfig.o)
                0x000000000d002244                cxd56_pin_configs
 .text.cxd56_pin_config
                0x000000000d00231c       0x12 ../../spresense-exported-sdk/nuttx/libs/libnuttx.a(arch-cxd56_pinconfig.o)
                0x000000000d00231c                cxd56_pin_config
 .text.cxd56_pin_status
                0x000000000d00232e       0x76 ../../spresense-exported-sdk/nuttx/libs/libnuttx.a(arch-cxd56_pinconfig.o)
                0x000000000d00232e                cxd56_pin_status
 .text          0x000000000d0023a4        0x0 ../../spresense-exported-sdk/nuttx/libs/libnuttx.a(arch-cxd56_powermgr.o)
 .text.cxd56_pm_semtake
                0x000000000d0023a4       0x16 ../../spresense-exported-sdk/nuttx/libs/libnuttx.a(arch-cxd56_powermgr.o)
 .text.cxd56_pmsendmsg
                0x000000000d0023ba       0x1c ../../spresense-exported-sdk/nuttx/libs/libnuttx.a(arch-cxd56_powermgr.o)
 *fill*         0x000000000d0023d6        0x2 
 .text.cxd56_pm_checkfreqlock
                0x000000000d0023d8       0x44 ../../spresense-exported-sdk/nuttx/libs/libnuttx.a(arch-cxd56_powermgr.o)
 .text.cxd56_pmmsghandler
                0x000000000d00241c       0x44 ../../spresense-exported-sdk/nuttx/libs/libnuttx.a(arch-cxd56_powermgr.o)
 .text.cxd56_pm_needcallback.constprop.0
                0x000000000d002460       0x58 ../../spresense-exported-sdk/nuttx/libs/libnuttx.a(arch-cxd56_powermgr.o)
 .text.cxd56_pm_maintask
                0x000000000d0024b8       0xec ../../spresense-exported-sdk/nuttx/libs/libnuttx.a(arch-cxd56_powermgr.o)
 .text.cxd56_pm_register_callback
                0x000000000d0025a4       0x34 ../../spresense-exported-sdk/nuttx/libs/libnuttx.a(arch-cxd56_powermgr.o)
                0x000000000d0025a4                cxd56_pm_register_callback
 .text.cxd56_pm_unregister_callback
                0x000000000d0025d8       0x2c ../../spresense-exported-sdk/nuttx/libs/libnuttx.a(arch-cxd56_powermgr.o)
                0x000000000d0025d8                cxd56_pm_unregister_callback
 .text.cxd56_pm_bootup
                0x000000000d002604       0x14 ../../spresense-exported-sdk/nuttx/libs/libnuttx.a(arch-cxd56_powermgr.o)
                0x000000000d002604                cxd56_pm_bootup
 .text.up_pm_get_freqlock_count
                0x000000000d002618       0x2c ../../spresense-exported-sdk/nuttx/libs/libnuttx.a(arch-cxd56_powermgr.o)
                0x000000000d002618                up_pm_get_freqlock_count
 .text.up_pm_acquire_wakelock
                0x000000000d002644       0x34 ../../spresense-exported-sdk/nuttx/libs/libnuttx.a(arch-cxd56_powermgr.o)
                0x000000000d002644                up_pm_acquire_wakelock
 .text.up_pm_release_wakelock
                0x000000000d002678       0x38 ../../spresense-exported-sdk/nuttx/libs/libnuttx.a(arch-cxd56_powermgr.o)
                0x000000000d002678                up_pm_release_wakelock
 .text.up_pm_acquire_freqlock
                0x000000000d0026b0       0x54 ../../spresense-exported-sdk/nuttx/libs/libnuttx.a(arch-cxd56_powermgr.o)
                0x000000000d0026b0                up_pm_acquire_freqlock
 .text.up_pm_release_freqlock
                0x000000000d002704       0x58 ../../spresense-exported-sdk/nuttx/libs/libnuttx.a(arch-cxd56_powermgr.o)
                0x000000000d002704                up_pm_release_freqlock
 .text.up_pm_count_acquire_wakelock
                0x000000000d00275c       0x20 ../../spresense-exported-sdk/nuttx/libs/libnuttx.a(arch-cxd56_powermgr.o)
                0x000000000d00275c                up_pm_count_acquire_wakelock
 .text.cxd56_pm_hotsleep
                0x000000000d00277c       0x30 ../../spresense-exported-sdk/nuttx/libs/libnuttx.a(arch-cxd56_powermgr.o)
                0x000000000d00277c                cxd56_pm_hotsleep
 .text.cxd56_pm_initialize
                0x000000000d0027ac       0xb0 ../../spresense-exported-sdk/nuttx/libs/libnuttx.a(arch-cxd56_powermgr.o)
                0x000000000d0027ac                cxd56_pm_initialize
 .text.up_pm_get_bootcause
                0x000000000d00285c        0x8 ../../spresense-exported-sdk/nuttx/libs/libnuttx.a(arch-cxd56_powermgr.o)
                0x000000000d00285c                up_pm_get_bootcause
 .text.up_pm_get_bootmask
                0x000000000d002864        0x8 ../../spresense-exported-sdk/nuttx/libs/libnuttx.a(arch-cxd56_powermgr.o)
                0x000000000d002864                up_pm_get_bootmask
 .text.up_pm_set_bootmask
                0x000000000d00286c       0x44 ../../spresense-exported-sdk/nuttx/libs/libnuttx.a(arch-cxd56_powermgr.o)
                0x000000000d00286c                up_pm_set_bootmask
 .text.up_pm_clr_bootmask
                0x000000000d0028b0       0x5e ../../spresense-exported-sdk/nuttx/libs/libnuttx.a(arch-cxd56_powermgr.o)
                0x000000000d0028b0                up_pm_clr_bootmask
 .text.up_pm_sleep
                0x000000000d00290e       0x1c ../../spresense-exported-sdk/nuttx/libs/libnuttx.a(arch-cxd56_powermgr.o)
                0x000000000d00290e                up_pm_sleep
 .text.up_pm_reboot
                0x000000000d00292a        0xc ../../spresense-exported-sdk/nuttx/libs/libnuttx.a(arch-cxd56_powermgr.o)
                0x000000000d00292a                up_pm_reboot
 .text          0x000000000d002936        0x0 ../../spresense-exported-sdk/nuttx/libs/libnuttx.a(arch-cxd56_serial.o)
 .text.up_receive
                0x000000000d002936       0x10 ../../spresense-exported-sdk/nuttx/libs/libnuttx.a(arch-cxd56_serial.o)
 .text.up_rxint
                0x000000000d002946       0x28 ../../spresense-exported-sdk/nuttx/libs/libnuttx.a(arch-cxd56_serial.o)
 .text.up_rxflowcontrol
                0x000000000d00296e       0x10 ../../spresense-exported-sdk/nuttx/libs/libnuttx.a(arch-cxd56_serial.o)
 .text.up_rxavailable
                0x000000000d00297e       0x10 ../../spresense-exported-sdk/nuttx/libs/libnuttx.a(arch-cxd56_serial.o)
 .text.up_send  0x000000000d00298e        0x8 ../../spresense-exported-sdk/nuttx/libs/libnuttx.a(arch-cxd56_serial.o)
 .text.up_txready
                0x000000000d002996       0x10 ../../spresense-exported-sdk/nuttx/libs/libnuttx.a(arch-cxd56_serial.o)
 .text.up_txempty
                0x000000000d0029a6       0x14 ../../spresense-exported-sdk/nuttx/libs/libnuttx.a(arch-cxd56_serial.o)
 .text.up_txint
                0x000000000d0029ba       0x32 ../../spresense-exported-sdk/nuttx/libs/libnuttx.a(arch-cxd56_serial.o)
 .text.up_set_format
                0x000000000d0029ec       0x9c ../../spresense-exported-sdk/nuttx/libs/libnuttx.a(arch-cxd56_serial.o)
 .text.up_detach
                0x000000000d002a88       0x18 ../../spresense-exported-sdk/nuttx/libs/libnuttx.a(arch-cxd56_serial.o)
 .text.up_attach
                0x000000000d002aa0       0x20 ../../spresense-exported-sdk/nuttx/libs/libnuttx.a(arch-cxd56_serial.o)
 .text.up_interrupt
                0x000000000d002ac0       0x30 ../../spresense-exported-sdk/nuttx/libs/libnuttx.a(arch-cxd56_serial.o)
 .text.up_setup
                0x000000000d002af0       0x78 ../../spresense-exported-sdk/nuttx/libs/libnuttx.a(arch-cxd56_serial.o)
 .text.cxd56_serial2_pm_event
                0x000000000d002b68       0x1c ../../spresense-exported-sdk/nuttx/libs/libnuttx.a(arch-cxd56_serial.o)
 .text.up_shutdown
                0x000000000d002b84       0x48 ../../spresense-exported-sdk/nuttx/libs/libnuttx.a(arch-cxd56_serial.o)
 .text.up_ioctl
                0x000000000d002bcc      0x172 ../../spresense-exported-sdk/nuttx/libs/libnuttx.a(arch-cxd56_serial.o)
 *fill*         0x000000000d002d3e        0x2 
 .text.up_earlyserialinit
                0x000000000d002d40       0x10 ../../spresense-exported-sdk/nuttx/libs/libnuttx.a(arch-cxd56_serial.o)
                0x000000000d002d40                up_earlyserialinit
 .text.up_serialinit
                0x000000000d002d50       0x34 ../../spresense-exported-sdk/nuttx/libs/libnuttx.a(arch-cxd56_serial.o)
                0x000000000d002d50                up_serialinit
 .text.up_putc  0x000000000d002d84       0x60 ../../spresense-exported-sdk/nuttx/libs/libnuttx.a(arch-cxd56_serial.o)
                0x000000000d002d84                up_putc
 .text          0x000000000d002de4       0x7c ../../spresense-exported-sdk/nuttx/libs/libnuttx.a(arch-up_exception.o)
                0x000000000d002de4                exception_common
 .text          0x000000000d002e60        0x0 ../../spresense-exported-sdk/nuttx/libs/libnuttx.a(arch-up_initialize.o)
 .text.up_initialize
                0x000000000d002e60       0x50 ../../spresense-exported-sdk/nuttx/libs/libnuttx.a(arch-up_initialize.o)
                0x000000000d002e60                up_initialize
 .text          0x000000000d002eb0        0x0 ../../spresense-exported-sdk/nuttx/libs/libnuttx.a(arch-up_initialstate.o)
 .text.up_initial_state
                0x000000000d002eb0       0x3c ../../spresense-exported-sdk/nuttx/libs/libnuttx.a(arch-up_initialstate.o)
                0x000000000d002eb0                up_initial_state
 .text          0x000000000d002eec        0x0 ../../spresense-exported-sdk/nuttx/libs/libnuttx.a(arch-up_interruptcontext.o)
 .text.up_interrupt_context
                0x000000000d002eec       0x10 ../../spresense-exported-sdk/nuttx/libs/libnuttx.a(arch-up_interruptcontext.o)
                0x000000000d002eec                up_interrupt_context
 .text          0x000000000d002efc        0x0 ../../spresense-exported-sdk/nuttx/libs/libnuttx.a(arch-up_modifyreg32.o)
 .text.modifyreg32
                0x000000000d002efc       0x1e ../../spresense-exported-sdk/nuttx/libs/libnuttx.a(arch-up_modifyreg32.o)
                0x000000000d002efc                modifyreg32
 .text          0x000000000d002f1a        0x0 ../../spresense-exported-sdk/nuttx/libs/libnuttx.a(net-net_initialize.o)
 .text.net_initialize
                0x000000000d002f1a       0x12 ../../spresense-exported-sdk/nuttx/libs/libnuttx.a(net-net_initialize.o)
                0x000000000d002f1a                net_initialize
 .text          0x000000000d002f2c        0x0 ../../spresense-exported-sdk/nuttx/libs/libnuttx.a(net-net_lock.o)
 .text.net_lockinitialize
                0x000000000d002f2c       0x10 ../../spresense-exported-sdk/nuttx/libs/libnuttx.a(net-net_lock.o)
                0x000000000d002f2c                net_lockinitialize
 .text.net_lock
                0x000000000d002f3c       0x4c ../../spresense-exported-sdk/nuttx/libs/libnuttx.a(net-net_lock.o)
                0x000000000d002f3c                net_lock
 .text.net_unlock
                0x000000000d002f88       0x2c ../../spresense-exported-sdk/nuttx/libs/libnuttx.a(net-net_lock.o)
                0x000000000d002f88                net_unlock
 .text.net_breaklock
                0x000000000d002fb4       0x50 ../../spresense-exported-sdk/nuttx/libs/libnuttx.a(net-net_lock.o)
                0x000000000d002fb4                net_breaklock
 .text.net_restorelock
                0x000000000d003004       0x38 ../../spresense-exported-sdk/nuttx/libs/libnuttx.a(net-net_lock.o)
                0x000000000d003004                net_restorelock
 .text._net_timedwait
                0x000000000d00303c       0x7e ../../spresense-exported-sdk/nuttx/libs/libnuttx.a(net-net_lock.o)
 .text.net_timedwait
                0x000000000d0030ba        0x8 ../../spresense-exported-sdk/nuttx/libs/libnuttx.a(net-net_lock.o)
                0x000000000d0030ba                net_timedwait
 .text.net_lockedwait
                0x000000000d0030c2        0x6 ../../spresense-exported-sdk/nuttx/libs/libnuttx.a(net-net_lock.o)
                0x000000000d0030c2                net_lockedwait
 .text.net_timedwait_uninterruptible
                0x000000000d0030c8        0x8 ../../spresense-exported-sdk/nuttx/libs/libnuttx.a(net-net_lock.o)
                0x000000000d0030c8                net_timedwait_uninterruptible
 .text.net_lockedwait_uninterruptible
                0x000000000d0030d0        0x6 ../../spresense-exported-sdk/nuttx/libs/libnuttx.a(net-net_lock.o)
                0x000000000d0030d0                net_lockedwait_uninterruptible
 .text          0x000000000d0030d6        0x0 ../../spresense-exported-sdk/nuttx/libs/libnuttx.a(net-usrsock_conn.o)
 *fill*         0x000000000d0030d6        0x2 
 .text.usrsock_alloc
                0x000000000d0030d8       0x54 ../../spresense-exported-sdk/nuttx/libs/libnuttx.a(net-usrsock_conn.o)
                0x000000000d0030d8                usrsock_alloc
 .text.usrsock_free
                0x000000000d00312c       0x54 ../../spresense-exported-sdk/nuttx/libs/libnuttx.a(net-usrsock_conn.o)
                0x000000000d00312c                usrsock_free
 .text.usrsock_nextconn
                0x000000000d003180       0x10 ../../spresense-exported-sdk/nuttx/libs/libnuttx.a(net-usrsock_conn.o)
                0x000000000d003180                usrsock_nextconn
 .text.usrsock_connidx
                0x000000000d003190       0x14 ../../spresense-exported-sdk/nuttx/libs/libnuttx.a(net-usrsock_conn.o)
                0x000000000d003190                usrsock_connidx
 .text.usrsock_active
                0x000000000d0031a4       0x16 ../../spresense-exported-sdk/nuttx/libs/libnuttx.a(net-usrsock_conn.o)
                0x000000000d0031a4                usrsock_active
 .text.usrsock_setup_request_callback
                0x000000000d0031ba       0x62 ../../spresense-exported-sdk/nuttx/libs/libnuttx.a(net-usrsock_conn.o)
                0x000000000d0031ba                usrsock_setup_request_callback
 .text.usrsock_setup_data_request_callback
                0x000000000d00321c        0xc ../../spresense-exported-sdk/nuttx/libs/libnuttx.a(net-usrsock_conn.o)
                0x000000000d00321c                usrsock_setup_data_request_callback
 .text.usrsock_teardown_request_callback
                0x000000000d003228       0x2c ../../spresense-exported-sdk/nuttx/libs/libnuttx.a(net-usrsock_conn.o)
                0x000000000d003228                usrsock_teardown_request_callback
 .text.usrsock_setup_datain
                0x000000000d003254       0x22 ../../spresense-exported-sdk/nuttx/libs/libnuttx.a(net-usrsock_conn.o)
                0x000000000d003254                usrsock_setup_datain
 *fill*         0x000000000d003276        0x2 
 .text.usrsock_initialize
                0x000000000d003278       0x60 ../../spresense-exported-sdk/nuttx/libs/libnuttx.a(net-usrsock_conn.o)
                0x000000000d003278                usrsock_initialize
 .text          0x000000000d0032d8        0x0 ../../spresense-exported-sdk/nuttx/libs/libnuttx.a(net-usrsock_dev.o)
 .text.nxsem_wait_uninterruptible
                0x000000000d0032d8       0x16 ../../spresense-exported-sdk/nuttx/libs/libnuttx.a(net-usrsock_dev.o)
 .text.usrsockdev_open
                0x000000000d0032ee       0x24 ../../spresense-exported-sdk/nuttx/libs/libnuttx.a(net-usrsock_dev.o)
 .text.iovec_do
                0x000000000d003312       0xa0 ../../spresense-exported-sdk/nuttx/libs/libnuttx.a(net-usrsock_dev.o)
 *fill*         0x000000000d0033b2        0x2 
 .text.usrsockdev_close
                0x000000000d0033b4       0xbc ../../spresense-exported-sdk/nuttx/libs/libnuttx.a(net-usrsock_dev.o)
 .text.usrsockdev_handle_datareq_response
                0x000000000d003470       0xaa ../../spresense-exported-sdk/nuttx/libs/libnuttx.a(net-usrsock_dev.o)
 .text.usrsockdev_handle_response
                0x000000000d00351a       0x26 ../../spresense-exported-sdk/nuttx/libs/libnuttx.a(net-usrsock_dev.o)
 .text.usrsockdev_write
                0x000000000d003540      0x158 ../../spresense-exported-sdk/nuttx/libs/libnuttx.a(net-usrsock_dev.o)
 .text.usrsockdev_pollnotify.constprop.0
                0x000000000d003698       0x1a ../../spresense-exported-sdk/nuttx/libs/libnuttx.a(net-usrsock_dev.o)
 .text.usrsockdev_poll
                0x000000000d0036b2       0x7a ../../spresense-exported-sdk/nuttx/libs/libnuttx.a(net-usrsock_dev.o)
 .text.usrsockdev_seek
                0x000000000d00372c       0x5a ../../spresense-exported-sdk/nuttx/libs/libnuttx.a(net-usrsock_dev.o)
 .text.usrsockdev_read
                0x000000000d003786       0x52 ../../spresense-exported-sdk/nuttx/libs/libnuttx.a(net-usrsock_dev.o)
 .text.usrsockdev_do_request
                0x000000000d0037d8       0x84 ../../spresense-exported-sdk/nuttx/libs/libnuttx.a(net-usrsock_dev.o)
                0x000000000d0037d8                usrsockdev_do_request
 .text.usrsockdev_register
                0x000000000d00385c       0x54 ../../spresense-exported-sdk/nuttx/libs/libnuttx.a(net-usrsock_dev.o)
                0x000000000d00385c                usrsockdev_register
 .text          0x000000000d0038b0        0x0 ../../spresense-exported-sdk/nuttx/libs/libnuttx.a(net-usrsock_event.o)
 .text.usrsock_event
                0x000000000d0038b0       0x78 ../../spresense-exported-sdk/nuttx/libs/libnuttx.a(net-usrsock_event.o)
                0x000000000d0038b0                usrsock_event
 .text          0x000000000d003928        0x0 ../../spresense-exported-sdk/nuttx/libs/libnuttx.a(fs-fs_initialize.o)
 .text.fs_initialize
                0x000000000d003928        0x4 ../../spresense-exported-sdk/nuttx/libs/libnuttx.a(fs-fs_initialize.o)
                0x000000000d003928                fs_initialize
 .text          0x000000000d00392c        0x0 ../../spresense-exported-sdk/nuttx/libs/libnuttx.a(fs-fs_inode.o)
 .text.inode_initialize
                0x000000000d00392c       0x2c ../../spresense-exported-sdk/nuttx/libs/libnuttx.a(fs-fs_inode.o)
                0x000000000d00392c                inode_initialize
 .text.inode_semtake
                0x000000000d003958       0x38 ../../spresense-exported-sdk/nuttx/libs/libnuttx.a(fs-fs_inode.o)
                0x000000000d003958                inode_semtake
 .text.inode_semgive
                0x000000000d003990       0x24 ../../spresense-exported-sdk/nuttx/libs/libnuttx.a(fs-fs_inode.o)
                0x000000000d003990                inode_semgive
 .text          0x000000000d0039b4        0x0 ../../spresense-exported-sdk/nuttx/libs/libnuttx.a(fs-fs_registerdriver.o)
 .text.register_driver
                0x000000000d0039b4       0x32 ../../spresense-exported-sdk/nuttx/libs/libnuttx.a(fs-fs_registerdriver.o)
                0x000000000d0039b4                register_driver
 .text          0x000000000d0039e6        0x0 ../../spresense-exported-sdk/nuttx/libs/libnuttx.a(fs-mq_open.o)
 *fill*         0x000000000d0039e6        0x2 
 .text.mq_open  0x000000000d0039e8      0x110 ../../spresense-exported-sdk/nuttx/libs/libnuttx.a(fs-mq_open.o)
                0x000000000d0039e8                mq_open
 .text          0x000000000d003af8        0x0 ../../spresense-exported-sdk/nuttx/libs/libnuttx.a(binfmt-binfmt_initialize.o)
 .text.binfmt_initialize
                0x000000000d003af8        0x2 ../../spresense-exported-sdk/nuttx/libs/libnuttx.a(binfmt-binfmt_initialize.o)
                0x000000000d003af8                binfmt_initialize
 .text          0x000000000d003afa        0x0 ../../spresense-exported-sdk/nuttx/libs/libnuttx.a(sched-clock_gettime.o)
 *fill*         0x000000000d003afa        0x2 
 .text.clock_gettime
                0x000000000d003afc       0x90 ../../spresense-exported-sdk/nuttx/libs/libnuttx.a(sched-clock_gettime.o)
                0x000000000d003afc                clock_gettime
 .text          0x000000000d003b8c        0x0 ../../spresense-exported-sdk/nuttx/libs/libnuttx.a(sched-clock_initialize.o)
 .text.clock_basetime
                0x000000000d003b8c        0x4 ../../spresense-exported-sdk/nuttx/libs/libnuttx.a(sched-clock_initialize.o)
                0x000000000d003b8c                clock_basetime
 .text.clock_inittime
                0x000000000d003b90       0x54 ../../spresense-exported-sdk/nuttx/libs/libnuttx.a(sched-clock_initialize.o)
 .text.clock_initialize
                0x000000000d003be4        0xe ../../spresense-exported-sdk/nuttx/libs/libnuttx.a(sched-clock_initialize.o)
                0x000000000d003be4                clock_initialize
 .text.clock_synchronize
                0x000000000d003bf2       0x18 ../../spresense-exported-sdk/nuttx/libs/libnuttx.a(sched-clock_initialize.o)
                0x000000000d003bf2                clock_synchronize
 *fill*         0x000000000d003c0a        0x2 
 .text.clock_resynchronize
                0x000000000d003c0c       0xdc ../../spresense-exported-sdk/nuttx/libs/libnuttx.a(sched-clock_initialize.o)
                0x000000000d003c0c                clock_resynchronize
 .text.clock_timer
                0x000000000d003ce8       0x10 ../../spresense-exported-sdk/nuttx/libs/libnuttx.a(sched-clock_initialize.o)
                0x000000000d003ce8                clock_timer
 .text          0x000000000d003cf8        0x0 ../../spresense-exported-sdk/nuttx/libs/libnuttx.a(sched-clock_systimespec.o)
 .text.clock_systimespec
                0x000000000d003cf8       0x94 ../../spresense-exported-sdk/nuttx/libs/libnuttx.a(sched-clock_systimespec.o)
                0x000000000d003cf8                clock_systimespec
 .text          0x000000000d003d8c        0x0 ../../spresense-exported-sdk/nuttx/libs/libnuttx.a(sched-clock_ticks2time.o)
 .text.clock_ticks2time
                0x000000000d003d8c       0x1c ../../spresense-exported-sdk/nuttx/libs/libnuttx.a(sched-clock_ticks2time.o)
                0x000000000d003d8c                clock_ticks2time
 .text          0x000000000d003da8        0x0 ../../spresense-exported-sdk/nuttx/libs/libnuttx.a(sched-errno_getptr.o)
 .text.get_errno_ptr
                0x000000000d003da8       0x24 ../../spresense-exported-sdk/nuttx/libs/libnuttx.a(sched-errno_getptr.o)
                0x000000000d003da8                get_errno_ptr
 .text          0x000000000d003dcc        0x0 ../../spresense-exported-sdk/nuttx/libs/libnuttx.a(sched-group_create.o)
 .text.group_allocate
                0x000000000d003dcc       0x94 ../../spresense-exported-sdk/nuttx/libs/libnuttx.a(sched-group_create.o)
                0x000000000d003dcc                group_allocate
 .text.group_initialize
                0x000000000d003e60       0x54 ../../spresense-exported-sdk/nuttx/libs/libnuttx.a(sched-group_create.o)
                0x000000000d003e60                group_initialize
 .text          0x000000000d003eb4        0x0 ../../spresense-exported-sdk/nuttx/libs/libnuttx.a(sched-group_find.o)
 .text.group_findby_grpid
                0x000000000d003eb4       0x2c ../../spresense-exported-sdk/nuttx/libs/libnuttx.a(sched-group_find.o)
                0x000000000d003eb4                group_findby_grpid
 .text.group_findbypid
                0x000000000d003ee0       0x2c ../../spresense-exported-sdk/nuttx/libs/libnuttx.a(sched-group_find.o)
                0x000000000d003ee0                group_findbypid
 .text          0x000000000d003f0c        0x0 ../../spresense-exported-sdk/nuttx/libs/libnuttx.a(sched-group_setupidlefiles.o)
 .text.group_setupidlefiles
                0x000000000d003f0c       0x4c ../../spresense-exported-sdk/nuttx/libs/libnuttx.a(sched-group_setupidlefiles.o)
                0x000000000d003f0c                group_setupidlefiles
 .text          0x000000000d003f58        0x0 ../../spresense-exported-sdk/nuttx/libs/libnuttx.a(sched-group_setupstreams.o)
 .text.group_setupstreams
                0x000000000d003f58       0x32 ../../spresense-exported-sdk/nuttx/libs/libnuttx.a(sched-group_setupstreams.o)
                0x000000000d003f58                group_setupstreams
 .text          0x000000000d003f8a        0x0 ../../spresense-exported-sdk/nuttx/libs/libnuttx.a(sched-irq_attach.o)
 *fill*         0x000000000d003f8a        0x2 
 .text.irq_attach
                0x000000000d003f8c       0x44 ../../spresense-exported-sdk/nuttx/libs/libnuttx.a(sched-irq_attach.o)
                0x000000000d003f8c                irq_attach
 .text          0x000000000d003fd0        0x0 ../../spresense-exported-sdk/nuttx/libs/libnuttx.a(sched-irq_initialize.o)
 .text.irq_initialize
                0x000000000d003fd0       0x20 ../../spresense-exported-sdk/nuttx/libs/libnuttx.a(sched-irq_initialize.o)
                0x000000000d003fd0                irq_initialize
 .text          0x000000000d003ff0        0x0 ../../spresense-exported-sdk/nuttx/libs/libnuttx.a(sched-irq_unexpectedisr.o)
 .text.irq_unexpected_isr
                0x000000000d003ff0       0x18 ../../spresense-exported-sdk/nuttx/libs/libnuttx.a(sched-irq_unexpectedisr.o)
                0x000000000d003ff0                irq_unexpected_isr
 .text          0x000000000d004008        0x0 ../../spresense-exported-sdk/nuttx/libs/libnuttx.a(sched-mq_descreate.o)
 .text.nxmq_create_des
                0x000000000d004008       0x48 ../../spresense-exported-sdk/nuttx/libs/libnuttx.a(sched-mq_descreate.o)
                0x000000000d004008                nxmq_create_des
 .text          0x000000000d004050        0x0 ../../spresense-exported-sdk/nuttx/libs/libnuttx.a(sched-mq_initialize.o)
 .text.nxmq_alloc_desblock
                0x000000000d004050       0x34 ../../spresense-exported-sdk/nuttx/libs/libnuttx.a(sched-mq_initialize.o)
                0x000000000d004050                nxmq_alloc_desblock
 .text.nxmq_initialize
                0x000000000d004084       0x6c ../../spresense-exported-sdk/nuttx/libs/libnuttx.a(sched-mq_initialize.o)
                0x000000000d004084                nxmq_initialize
 .text          0x000000000d0040f0        0x0 ../../spresense-exported-sdk/nuttx/libs/libnuttx.a(sched-mq_msgqalloc.o)
 .text.nxmq_alloc_msgq
                0x000000000d0040f0       0x3a ../../spresense-exported-sdk/nuttx/libs/libnuttx.a(sched-mq_msgqalloc.o)
                0x000000000d0040f0                nxmq_alloc_msgq
 .text          0x000000000d00412a        0x0 ../../spresense-exported-sdk/nuttx/libs/libnuttx.a(sched-mq_msgqfree.o)
 .text.nxmq_free_msgq
                0x000000000d00412a       0x1c ../../spresense-exported-sdk/nuttx/libs/libnuttx.a(sched-mq_msgqfree.o)
                0x000000000d00412a                nxmq_free_msgq
 .text          0x000000000d004146        0x0 ../../spresense-exported-sdk/nuttx/libs/libnuttx.a(sched-mq_receive.o)
 .text.nxmq_receive
                0x000000000d004146       0x50 ../../spresense-exported-sdk/nuttx/libs/libnuttx.a(sched-mq_receive.o)
                0x000000000d004146                nxmq_receive
 .text.mq_receive
                0x000000000d004196       0x1a ../../spresense-exported-sdk/nuttx/libs/libnuttx.a(sched-mq_receive.o)
                0x000000000d004196                mq_receive
 .text          0x000000000d0041b0        0x0 ../../spresense-exported-sdk/nuttx/libs/libnuttx.a(sched-mq_send.o)
 .text.nxmq_send
                0x000000000d0041b0       0x78 ../../spresense-exported-sdk/nuttx/libs/libnuttx.a(sched-mq_send.o)
                0x000000000d0041b0                nxmq_send
 .text.mq_send  0x000000000d004228       0x1a ../../spresense-exported-sdk/nuttx/libs/libnuttx.a(sched-mq_send.o)
                0x000000000d004228                mq_send
 .text          0x000000000d004242        0x0 ../../spresense-exported-sdk/nuttx/libs/libnuttx.a(sched-mq_sndinternal.o)
 .text.nxmq_verify_send
                0x000000000d004242       0x2a ../../spresense-exported-sdk/nuttx/libs/libnuttx.a(sched-mq_sndinternal.o)
                0x000000000d004242                nxmq_verify_send
 .text.nxmq_alloc_msg
                0x000000000d00426c       0x48 ../../spresense-exported-sdk/nuttx/libs/libnuttx.a(sched-mq_sndinternal.o)
                0x000000000d00426c                nxmq_alloc_msg
 .text.nxmq_wait_send
                0x000000000d0042b4       0x5c ../../spresense-exported-sdk/nuttx/libs/libnuttx.a(sched-mq_sndinternal.o)
                0x000000000d0042b4                nxmq_wait_send
 .text.nxmq_do_send
                0x000000000d004310       0xe4 ../../spresense-exported-sdk/nuttx/libs/libnuttx.a(sched-mq_sndinternal.o)
                0x000000000d004310                nxmq_do_send
 .text          0x000000000d0043f4        0x0 ../../spresense-exported-sdk/nuttx/libs/libnuttx.a(sched-nx_bringup.o)
 .text.nx_start_task
                0x000000000d0043f4       0x28 ../../spresense-exported-sdk/nuttx/libs/libnuttx.a(sched-nx_bringup.o)
 .text.nx_bringup
                0x000000000d00441c       0x2c ../../spresense-exported-sdk/nuttx/libs/libnuttx.a(sched-nx_bringup.o)
                0x000000000d00441c                nx_bringup
 .text          0x000000000d004448        0x0 ../../spresense-exported-sdk/nuttx/libs/libnuttx.a(sched-sched_free.o)
 .text.sched_signal_free
                0x000000000d004448        0x6 ../../spresense-exported-sdk/nuttx/libs/libnuttx.a(sched-sched_free.o)
                0x000000000d004448                sched_signal_free
 *fill*         0x000000000d00444e        0x2 
 .text.sched_ufree
                0x000000000d004450       0x44 ../../spresense-exported-sdk/nuttx/libs/libnuttx.a(sched-sched_free.o)
                0x000000000d004450                sched_ufree
 .text          0x000000000d004494        0x0 ../../spresense-exported-sdk/nuttx/libs/libnuttx.a(sched-sched_lock.o)
 .text.sched_lock
                0x000000000d004494       0x1c ../../spresense-exported-sdk/nuttx/libs/libnuttx.a(sched-sched_lock.o)
                0x000000000d004494                sched_lock
 .text          0x000000000d0044b0        0x0 ../../spresense-exported-sdk/nuttx/libs/libnuttx.a(sched-sched_self.o)
 .text.sched_self
                0x000000000d0044b0        0xc ../../spresense-exported-sdk/nuttx/libs/libnuttx.a(sched-sched_self.o)
                0x000000000d0044b0                sched_self
 .text          0x000000000d0044bc        0x0 ../../spresense-exported-sdk/nuttx/libs/libnuttx.a(sched-sched_unlock.o)
 .text.sched_unlock
                0x000000000d0044bc       0x68 ../../spresense-exported-sdk/nuttx/libs/libnuttx.a(sched-sched_unlock.o)
                0x000000000d0044bc                sched_unlock
 .text          0x000000000d004524        0x0 ../../spresense-exported-sdk/nuttx/libs/libnuttx.a(sched-sem_destroy.o)
 .text.nxsem_destroy
                0x000000000d004524       0x16 ../../spresense-exported-sdk/nuttx/libs/libnuttx.a(sched-sem_destroy.o)
                0x000000000d004524                nxsem_destroy
 .text.sem_destroy
                0x000000000d00453a       0x1a ../../spresense-exported-sdk/nuttx/libs/libnuttx.a(sched-sem_destroy.o)
                0x000000000d00453a                sem_destroy
 .text          0x000000000d004554        0x0 ../../spresense-exported-sdk/nuttx/libs/libnuttx.a(sched-sem_post.o)
 .text.nxsem_post
                0x000000000d004554       0x48 ../../spresense-exported-sdk/nuttx/libs/libnuttx.a(sched-sem_post.o)
                0x000000000d004554                nxsem_post
 .text.sem_post
                0x000000000d00459c       0x1a ../../spresense-exported-sdk/nuttx/libs/libnuttx.a(sched-sem_post.o)
                0x000000000d00459c                sem_post
 .text          0x000000000d0045b6        0x0 ../../spresense-exported-sdk/nuttx/libs/libnuttx.a(sched-sem_timedwait.o)
 *fill*         0x000000000d0045b6        0x2 
 .text.nxsem_timedwait
                0x000000000d0045b8       0xa4 ../../spresense-exported-sdk/nuttx/libs/libnuttx.a(sched-sem_timedwait.o)
                0x000000000d0045b8                nxsem_timedwait
 .text.sem_timedwait
                0x000000000d00465c       0x1a ../../spresense-exported-sdk/nuttx/libs/libnuttx.a(sched-sem_timedwait.o)
                0x000000000d00465c                sem_timedwait
 .text          0x000000000d004676        0x0 ../../spresense-exported-sdk/nuttx/libs/libnuttx.a(sched-sem_timeout.o)
 .text.nxsem_timeout
                0x000000000d004676       0x28 ../../spresense-exported-sdk/nuttx/libs/libnuttx.a(sched-sem_timeout.o)
                0x000000000d004676                nxsem_timeout
 .text          0x000000000d00469e        0x0 ../../spresense-exported-sdk/nuttx/libs/libnuttx.a(sched-sem_trywait.o)
 *fill*         0x000000000d00469e        0x2 
 .text.nxsem_trywait
                0x000000000d0046a0       0x40 ../../spresense-exported-sdk/nuttx/libs/libnuttx.a(sched-sem_trywait.o)
                0x000000000d0046a0                nxsem_trywait
 .text.sem_trywait
                0x000000000d0046e0       0x1a ../../spresense-exported-sdk/nuttx/libs/libnuttx.a(sched-sem_trywait.o)
                0x000000000d0046e0                sem_trywait
 .text          0x000000000d0046fa        0x0 ../../spresense-exported-sdk/nuttx/libs/libnuttx.a(sched-sem_waitirq.o)
 .text.nxsem_wait_irq
                0x000000000d0046fa       0x2e ../../spresense-exported-sdk/nuttx/libs/libnuttx.a(sched-sem_waitirq.o)
                0x000000000d0046fa                nxsem_wait_irq
 .text          0x000000000d004728        0x0 ../../spresense-exported-sdk/nuttx/libs/libnuttx.a(sched-sem_wait.o)
 .text.nxsem_wait
                0x000000000d004728       0x54 ../../spresense-exported-sdk/nuttx/libs/libnuttx.a(sched-sem_wait.o)
                0x000000000d004728                nxsem_wait
 .text.sem_wait
                0x000000000d00477c       0x1c ../../spresense-exported-sdk/nuttx/libs/libnuttx.a(sched-sem_wait.o)
                0x000000000d00477c                sem_wait
 .text          0x000000000d004798        0x0 ../../spresense-exported-sdk/nuttx/libs/libnuttx.a(sched-sig_notification.o)
 .text.nxsig_notification
                0x000000000d004798       0x50 ../../spresense-exported-sdk/nuttx/libs/libnuttx.a(sched-sig_notification.o)
                0x000000000d004798                nxsig_notification
 .text          0x000000000d0047e8        0x0 ../../spresense-exported-sdk/nuttx/libs/libnuttx.a(sched-task_create.o)
 .text.nxthread_create
                0x000000000d0047e8       0xa0 ../../spresense-exported-sdk/nuttx/libs/libnuttx.a(sched-task_create.o)
 .text.nxtask_create
                0x000000000d004888       0x16 ../../spresense-exported-sdk/nuttx/libs/libnuttx.a(sched-task_create.o)
                0x000000000d004888                nxtask_create
 .text.task_create
                0x000000000d00489e       0x20 ../../spresense-exported-sdk/nuttx/libs/libnuttx.a(sched-task_create.o)
                0x000000000d00489e                task_create
 .text.kthread_create
                0x000000000d0048be       0x16 ../../spresense-exported-sdk/nuttx/libs/libnuttx.a(sched-task_create.o)
                0x000000000d0048be                kthread_create
 .text          0x000000000d0048d4        0x0 ../../spresense-exported-sdk/nuttx/libs/libnuttx.a(sched-task_getpid.o)
 .text.getpid   0x000000000d0048d4       0x1c ../../spresense-exported-sdk/nuttx/libs/libnuttx.a(sched-task_getpid.o)
                0x000000000d0048d4                getpid
 .text          0x000000000d0048f0        0x0 ../../spresense-exported-sdk/nuttx/libs/libnuttx.a(sched-task_setup.o)
 .text.nxtask_assignpid
                0x000000000d0048f0       0x58 ../../spresense-exported-sdk/nuttx/libs/libnuttx.a(sched-task_setup.o)
 .text.nxthread_schedsetup.part.0
                0x000000000d004948       0x9c ../../spresense-exported-sdk/nuttx/libs/libnuttx.a(sched-task_setup.o)
 .text.nxtask_schedsetup
                0x000000000d0049e4       0x2c ../../spresense-exported-sdk/nuttx/libs/libnuttx.a(sched-task_setup.o)
                0x000000000d0049e4                nxtask_schedsetup
 .text.pthread_schedsetup
                0x000000000d004a10       0x2a ../../spresense-exported-sdk/nuttx/libs/libnuttx.a(sched-task_setup.o)
                0x000000000d004a10                pthread_schedsetup
 *fill*         0x000000000d004a3a        0x2 
 .text.nxtask_argsetup
                0x000000000d004a3c       0xd0 ../../spresense-exported-sdk/nuttx/libs/libnuttx.a(sched-task_setup.o)
                0x000000000d004a3c                nxtask_argsetup
 .text          0x000000000d004b0c        0x0 ../../spresense-exported-sdk/nuttx/libs/libnuttx.a(sched-task_start.o)
 .text.nxtask_start
                0x000000000d004b0c       0x2c ../../spresense-exported-sdk/nuttx/libs/libnuttx.a(sched-task_start.o)
                0x000000000d004b0c                nxtask_start
 .text          0x000000000d004b38        0x0 ../../spresense-exported-sdk/nuttx/libs/libnuttx.a(sched-wd_cancel.o)
 .text.wd_cancel
                0x000000000d004b38       0x68 ../../spresense-exported-sdk/nuttx/libs/libnuttx.a(sched-wd_cancel.o)
                0x000000000d004b38                wd_cancel
 .text          0x000000000d004ba0        0x0 ../../spresense-exported-sdk/nuttx/libs/libnuttx.a(sched-wd_create.o)
 .text.wd_create
                0x000000000d004ba0       0x5c ../../spresense-exported-sdk/nuttx/libs/libnuttx.a(sched-wd_create.o)
                0x000000000d004ba0                wd_create
 .text          0x000000000d004bfc        0x0 ../../spresense-exported-sdk/nuttx/libs/libnuttx.a(sched-wd_delete.o)
 .text.wd_delete
                0x000000000d004bfc       0x50 ../../spresense-exported-sdk/nuttx/libs/libnuttx.a(sched-wd_delete.o)
                0x000000000d004bfc                wd_delete
 .text          0x000000000d004c4c        0x0 ../../spresense-exported-sdk/nuttx/libs/libnuttx.a(sched-wd_initialize.o)
 .text.wd_initialize
                0x000000000d004c4c       0x3c ../../spresense-exported-sdk/nuttx/libs/libnuttx.a(sched-wd_initialize.o)
                0x000000000d004c4c                wd_initialize
 .text          0x000000000d004c88        0x0 ../../spresense-exported-sdk/nuttx/libs/libnuttx.a(sched-wd_start.o)
 .text.wd_start
                0x000000000d004c88       0xd8 ../../spresense-exported-sdk/nuttx/libs/libnuttx.a(sched-wd_start.o)
                0x000000000d004c88                wd_start
 .text.wd_timer
                0x000000000d004d60       0x4c ../../spresense-exported-sdk/nuttx/libs/libnuttx.a(sched-wd_start.o)
                0x000000000d004d60                wd_timer
 .text          0x000000000d004dac        0x0 ../../spresense-exported-sdk/nuttx/libs/libnuttx.a(drivers-dev_null.o)
 .text.devnull_read
                0x000000000d004dac        0x4 ../../spresense-exported-sdk/nuttx/libs/libnuttx.a(drivers-dev_null.o)
 .text.devnull_write
                0x000000000d004db0        0x4 ../../spresense-exported-sdk/nuttx/libs/libnuttx.a(drivers-dev_null.o)
 .text.devnull_poll
                0x000000000d004db4       0x1c ../../spresense-exported-sdk/nuttx/libs/libnuttx.a(drivers-dev_null.o)
 .text.devnull_register
                0x000000000d004dd0       0x18 ../../spresense-exported-sdk/nuttx/libs/libnuttx.a(drivers-dev_null.o)
                0x000000000d004dd0                devnull_register
 .text          0x000000000d004de8        0x0 ../../spresense-exported-sdk/nuttx/libs/libnuttx.a(drivers-serial_io.o)
 .text.uart_xmitchars
                0x000000000d004de8       0x6e ../../spresense-exported-sdk/nuttx/libs/libnuttx.a(drivers-serial_io.o)
                0x000000000d004de8                uart_xmitchars
 .text.uart_recvchars
                0x000000000d004e56       0x80 ../../spresense-exported-sdk/nuttx/libs/libnuttx.a(drivers-serial_io.o)
                0x000000000d004e56                uart_recvchars
 .text          0x000000000d004ed6        0x0 ../../spresense-exported-sdk/nuttx/libs/libnuttx.a(drivers-serial.o)
 .text.uart_putc
                0x000000000d004ed6       0x22 ../../spresense-exported-sdk/nuttx/libs/libnuttx.a(drivers-serial.o)
 .text.nxsem_wait_uninterruptible
                0x000000000d004ef8       0x16 ../../spresense-exported-sdk/nuttx/libs/libnuttx.a(drivers-serial.o)
 .text.uart_putxmitchar
                0x000000000d004f0e       0xa2 ../../spresense-exported-sdk/nuttx/libs/libnuttx.a(drivers-serial.o)
 .text.uart_read
                0x000000000d004fb0      0x12c ../../spresense-exported-sdk/nuttx/libs/libnuttx.a(drivers-serial.o)
 .text.uart_open
                0x000000000d0050dc       0x8a ../../spresense-exported-sdk/nuttx/libs/libnuttx.a(drivers-serial.o)
 .text.uart_pollnotify
                0x000000000d005166       0x54 ../../spresense-exported-sdk/nuttx/libs/libnuttx.a(drivers-serial.o)
 .text.uart_poll
                0x000000000d0051ba       0xd8 ../../spresense-exported-sdk/nuttx/libs/libnuttx.a(drivers-serial.o)
 *fill*         0x000000000d005292        0x2 
 .text.uart_tcdrain
                0x000000000d005294       0xb4 ../../spresense-exported-sdk/nuttx/libs/libnuttx.a(drivers-serial.o)
 .text.uart_write
                0x000000000d005348      0x11a ../../spresense-exported-sdk/nuttx/libs/libnuttx.a(drivers-serial.o)
 *fill*         0x000000000d005462        0x2 
 .text.uart_register
                0x000000000d005464       0x8c ../../spresense-exported-sdk/nuttx/libs/libnuttx.a(drivers-serial.o)
                0x000000000d005464                uart_register
 .text.uart_datareceived
                0x000000000d0054f0       0x1e ../../spresense-exported-sdk/nuttx/libs/libnuttx.a(drivers-serial.o)
                0x000000000d0054f0                uart_datareceived
 .text.uart_datasent
                0x000000000d00550e       0x1e ../../spresense-exported-sdk/nuttx/libs/libnuttx.a(drivers-serial.o)
                0x000000000d00550e                uart_datasent
 .text.uart_ioctl
                0x000000000d00552c      0x15c ../../spresense-exported-sdk/nuttx/libs/libnuttx.a(drivers-serial.o)
 .text.uart_connected
                0x000000000d005688       0x46 ../../spresense-exported-sdk/nuttx/libs/libnuttx.a(drivers-serial.o)
                0x000000000d005688                uart_connected
 .text.uart_reset_sem
                0x000000000d0056ce       0x38 ../../spresense-exported-sdk/nuttx/libs/libnuttx.a(drivers-serial.o)
                0x000000000d0056ce                uart_reset_sem
 .text.uart_close
                0x000000000d005706       0x6e ../../spresense-exported-sdk/nuttx/libs/libnuttx.a(drivers-serial.o)
 .text          0x000000000d005774        0x0 ../../spresense-exported-sdk/nuttx/libs/libnuttx.a(drivers-syslog_consolechannel.o)
 .text.syslog_console_channel
                0x000000000d005774       0x28 ../../spresense-exported-sdk/nuttx/libs/libnuttx.a(drivers-syslog_consolechannel.o)
                0x000000000d005774                syslog_console_channel
 .text          0x000000000d00579c        0x0 ../../spresense-exported-sdk/nuttx/libs/libnuttx.a(drivers-syslog_device.o)
 .text.syslog_dev_takesem
                0x000000000d00579c       0x2c ../../spresense-exported-sdk/nuttx/libs/libnuttx.a(drivers-syslog_device.o)
 .text.syslog_dev_initialize
                0x000000000d0057c8       0x68 ../../spresense-exported-sdk/nuttx/libs/libnuttx.a(drivers-syslog_device.o)
                0x000000000d0057c8                syslog_dev_initialize
 .text.syslog_dev_outputready
                0x000000000d005830       0x60 ../../spresense-exported-sdk/nuttx/libs/libnuttx.a(drivers-syslog_device.o)
 .text.syslog_dev_write
                0x000000000d005890       0xc4 ../../spresense-exported-sdk/nuttx/libs/libnuttx.a(drivers-syslog_device.o)
                0x000000000d005890                syslog_dev_write
 .text.syslog_dev_putc
                0x000000000d005954       0x60 ../../spresense-exported-sdk/nuttx/libs/libnuttx.a(drivers-syslog_device.o)
                0x000000000d005954                syslog_dev_putc
 .text.syslog_dev_flush
                0x000000000d0059b4        0x4 ../../spresense-exported-sdk/nuttx/libs/libnuttx.a(drivers-syslog_device.o)
                0x000000000d0059b4                syslog_dev_flush
 .text          0x000000000d0059b8        0x0 ../../spresense-exported-sdk/nuttx/libs/libnuttx.a(c-dq_addlast.o)
 .text.dq_addlast
                0x000000000d0059b8       0x16 ../../spresense-exported-sdk/nuttx/libs/libnuttx.a(c-dq_addlast.o)
                0x000000000d0059b8                dq_addlast
 .text          0x000000000d0059ce        0x0 ../../spresense-exported-sdk/nuttx/libs/libnuttx.a(c-dq_remfirst.o)
 .text.dq_remfirst
                0x000000000d0059ce       0x1c ../../spresense-exported-sdk/nuttx/libs/libnuttx.a(c-dq_remfirst.o)
                0x000000000d0059ce                dq_remfirst
 .text          0x000000000d0059ea        0x0 ../../spresense-exported-sdk/nuttx/libs/libnuttx.a(c-dq_rem.o)
 .text.dq_rem   0x000000000d0059ea       0x1c ../../spresense-exported-sdk/nuttx/libs/libnuttx.a(c-dq_rem.o)
                0x000000000d0059ea                dq_rem
 .text          0x000000000d005a06        0x0 ../../spresense-exported-sdk/nuttx/libs/libnuttx.a(c-lib_cfgetspeed.o)
 .text.cfgetspeed
                0x000000000d005a06        0x4 ../../spresense-exported-sdk/nuttx/libs/libnuttx.a(c-lib_cfgetspeed.o)
                0x000000000d005a06                cfgetspeed
 .text          0x000000000d005a0a        0x0 ../../spresense-exported-sdk/nuttx/libs/libnuttx.a(c-lib_cfsetspeed.o)
 .text.cfsetspeed
                0x000000000d005a0a        0x6 ../../spresense-exported-sdk/nuttx/libs/libnuttx.a(c-lib_cfsetspeed.o)
                0x000000000d005a0a                cfsetspeed
 .text          0x000000000d005a10        0x0 ../../spresense-exported-sdk/nuttx/libs/libnuttx.a(c-lib_dtoa_engine.o)
 .text.__dtoa_engine
                0x000000000d005a10      0x20c ../../spresense-exported-sdk/nuttx/libs/libnuttx.a(c-lib_dtoa_engine.o)
                0x000000000d005a10                __dtoa_engine
 .text          0x000000000d005c1c        0x0 ../../spresense-exported-sdk/nuttx/libs/libnuttx.a(c-lib_fputc.o)
 .text.fputc    0x000000000d005c1c       0x3c ../../spresense-exported-sdk/nuttx/libs/libnuttx.a(c-lib_fputc.o)
                0x000000000d005c1c                fputc
 .text          0x000000000d005c58        0x0 ../../spresense-exported-sdk/nuttx/libs/libnuttx.a(c-lib_libfflush.o)
 .text.lib_fflush
                0x000000000d005c58       0x8a ../../spresense-exported-sdk/nuttx/libs/libnuttx.a(c-lib_libfflush.o)
                0x000000000d005c58                lib_fflush
 .text          0x000000000d005ce2        0x0 ../../spresense-exported-sdk/nuttx/libs/libnuttx.a(c-lib_libfwrite.o)
 .text.lib_fwrite
                0x000000000d005ce2       0xac ../../spresense-exported-sdk/nuttx/libs/libnuttx.a(c-lib_libfwrite.o)
                0x000000000d005ce2                lib_fwrite
 .text          0x000000000d005d8e        0x0 ../../spresense-exported-sdk/nuttx/libs/libnuttx.a(c-lib_libnoflush.o)
 .text.lib_noflush
                0x000000000d005d8e        0x4 ../../spresense-exported-sdk/nuttx/libs/libnuttx.a(c-lib_libnoflush.o)
                0x000000000d005d8e                lib_noflush
 .text          0x000000000d005d92        0x0 ../../spresense-exported-sdk/nuttx/libs/libnuttx.a(c-lib_memcpy.o)
 .text.memcpy   0x000000000d005d92       0x16 ../../spresense-exported-sdk/nuttx/libs/libnuttx.a(c-lib_memcpy.o)
                0x000000000d005d92                memcpy
 .text          0x000000000d005da8        0x0 ../../spresense-exported-sdk/nuttx/libs/libnuttx.a(c-lib_memmove.o)
 .text.memmove  0x000000000d005da8       0x2e ../../spresense-exported-sdk/nuttx/libs/libnuttx.a(c-lib_memmove.o)
                0x000000000d005da8                memmove
 .text          0x000000000d005dd6        0x0 ../../spresense-exported-sdk/nuttx/libs/libnuttx.a(c-lib_rdflush.o)
 .text.lib_rdflush
                0x000000000d005dd6       0x56 ../../spresense-exported-sdk/nuttx/libs/libnuttx.a(c-lib_rdflush.o)
                0x000000000d005dd6                lib_rdflush
 .text          0x000000000d005e2c        0x0 ../../spresense-exported-sdk/nuttx/libs/libnuttx.a(c-lib_snprintf.o)
 .text.snprintf
                0x000000000d005e2c       0x2e ../../spresense-exported-sdk/nuttx/libs/libnuttx.a(c-lib_snprintf.o)
                0x000000000d005e2c                snprintf
 .text          0x000000000d005e5a        0x0 ../../spresense-exported-sdk/nuttx/libs/libnuttx.a(c-lib_strcpy.o)
 .text.strcpy   0x000000000d005e5a       0x10 ../../spresense-exported-sdk/nuttx/libs/libnuttx.a(c-lib_strcpy.o)
                0x000000000d005e5a                strcpy
 .text          0x000000000d005e6a        0x0 ../../spresense-exported-sdk/nuttx/libs/libnuttx.a(c-lib_strdup.o)
 .text.strdup   0x000000000d005e6a       0x22 ../../spresense-exported-sdk/nuttx/libs/libnuttx.a(c-lib_strdup.o)
                0x000000000d005e6a                strdup
 .text          0x000000000d005e8c        0x0 ../../spresense-exported-sdk/nuttx/libs/libnuttx.a(c-lib_stream.o)
 .text.lib_stream_initialize
                0x000000000d005e8c       0x36 ../../spresense-exported-sdk/nuttx/libs/libnuttx.a(c-lib_stream.o)
                0x000000000d005e8c                lib_stream_initialize
 .text.lib_stream_release
                0x000000000d005ec2       0x30 ../../spresense-exported-sdk/nuttx/libs/libnuttx.a(c-lib_stream.o)
                0x000000000d005ec2                lib_stream_release
 .text          0x000000000d005ef2        0x0 ../../spresense-exported-sdk/nuttx/libs/libnuttx.a(c-lib_strlen.o)
 .text.strlen   0x000000000d005ef2       0x10 ../../spresense-exported-sdk/nuttx/libs/libnuttx.a(c-lib_strlen.o)
                0x000000000d005ef2                strlen
 .text          0x000000000d005f02        0x0 ../../spresense-exported-sdk/nuttx/libs/libnuttx.a(c-sem_getvalue.o)
 .text.nxsem_getvalue
                0x000000000d005f02       0x14 ../../spresense-exported-sdk/nuttx/libs/libnuttx.a(c-sem_getvalue.o)
                0x000000000d005f02                nxsem_getvalue
 .text.sem_getvalue
                0x000000000d005f16       0x1a ../../spresense-exported-sdk/nuttx/libs/libnuttx.a(c-sem_getvalue.o)
                0x000000000d005f16                sem_getvalue
 .text          0x000000000d005f30        0x0 ../../spresense-exported-sdk/nuttx/libs/libnuttx.a(c-sem_setprotocol.o)
 .text.nxsem_setprotocol
                0x000000000d005f30       0x14 ../../spresense-exported-sdk/nuttx/libs/libnuttx.a(c-sem_setprotocol.o)
                0x000000000d005f30                nxsem_setprotocol
 .text.sem_setprotocol
                0x000000000d005f44       0x1a ../../spresense-exported-sdk/nuttx/libs/libnuttx.a(c-sem_setprotocol.o)
                0x000000000d005f44                sem_setprotocol
 .text          0x000000000d005f5e        0x0 ../../spresense-exported-sdk/nuttx/libs/libnuttx.a(c-sq_addafter.o)
 .text.sq_addafter
                0x000000000d005f5e       0x1c ../../spresense-exported-sdk/nuttx/libs/libnuttx.a(c-sq_addafter.o)
                0x000000000d005f5e                sq_addafter
 .text          0x000000000d005f7a        0x0 ../../spresense-exported-sdk/nuttx/libs/libnuttx.a(c-sq_addfirst.o)
 .text.sq_addfirst
                0x000000000d005f7a        0xc ../../spresense-exported-sdk/nuttx/libs/libnuttx.a(c-sq_addfirst.o)
                0x000000000d005f7a                sq_addfirst
 .text          0x000000000d005f86        0x0 ../../spresense-exported-sdk/nuttx/libs/libnuttx.a(c-sq_addlast.o)
 .text.sq_addlast
                0x000000000d005f86       0x14 ../../spresense-exported-sdk/nuttx/libs/libnuttx.a(c-sq_addlast.o)
                0x000000000d005f86                sq_addlast
 .text          0x000000000d005f9a        0x0 ../../spresense-exported-sdk/nuttx/libs/libnuttx.a(c-sq_count.o)
 .text.sq_count
                0x000000000d005f9a        0xe ../../spresense-exported-sdk/nuttx/libs/libnuttx.a(c-sq_count.o)
                0x000000000d005f9a                sq_count
 .text          0x000000000d005fa8        0x0 ../../spresense-exported-sdk/nuttx/libs/libnuttx.a(c-sq_remafter.o)
 .text.sq_remafter
                0x000000000d005fa8       0x22 ../../spresense-exported-sdk/nuttx/libs/libnuttx.a(c-sq_remafter.o)
                0x000000000d005fa8                sq_remafter
 .text          0x000000000d005fca        0x0 ../../spresense-exported-sdk/nuttx/libs/libnuttx.a(c-sq_remfirst.o)
 .text.sq_remfirst
                0x000000000d005fca       0x14 ../../spresense-exported-sdk/nuttx/libs/libnuttx.a(c-sq_remfirst.o)
                0x000000000d005fca                sq_remfirst
 .text          0x000000000d005fde        0x0 ../../spresense-exported-sdk/nuttx/libs/libnuttx.a(c-sq_rem.o)
 .text.sq_rem   0x000000000d005fde       0x2c ../../spresense-exported-sdk/nuttx/libs/libnuttx.a(c-sq_rem.o)
                0x000000000d005fde                sq_rem
 .text          0x000000000d00600a        0x0 ../../spresense-exported-sdk/nuttx/libs/libnuttx.a(mm-mm_initialize.o)
 .text.mm_addregion
                0x000000000d00600a       0x4c ../../spresense-exported-sdk/nuttx/libs/libnuttx.a(mm-mm_initialize.o)
                0x000000000d00600a                mm_addregion
 .text.mm_initialize
                0x000000000d006056       0x42 ../../spresense-exported-sdk/nuttx/libs/libnuttx.a(mm-mm_initialize.o)
                0x000000000d006056                mm_initialize
 .text          0x000000000d006098        0x0 ../../spresense-exported-sdk/nuttx/libs/libnuttx.a(mm-mm_sem.o)
 .text.mm_seminitialize
                0x000000000d006098       0x18 ../../spresense-exported-sdk/nuttx/libs/libnuttx.a(mm-mm_sem.o)
                0x000000000d006098                mm_seminitialize
 .text.mm_trysemaphore
                0x000000000d0060b0       0x2c ../../spresense-exported-sdk/nuttx/libs/libnuttx.a(mm-mm_sem.o)
                0x000000000d0060b0                mm_trysemaphore
 .text.mm_takesemaphore
                0x000000000d0060dc       0x2a ../../spresense-exported-sdk/nuttx/libs/libnuttx.a(mm-mm_sem.o)
                0x000000000d0060dc                mm_takesemaphore
 .text.mm_givesemaphore
                0x000000000d006106       0x1a ../../spresense-exported-sdk/nuttx/libs/libnuttx.a(mm-mm_sem.o)
                0x000000000d006106                mm_givesemaphore
 .text          0x000000000d006120        0x0 ../../spresense-exported-sdk/nuttx/libs/libnuttx.a(mm-umm_free.o)
 .text.free     0x000000000d006120        0xc ../../spresense-exported-sdk/nuttx/libs/libnuttx.a(mm-umm_free.o)
                0x000000000d006120                free
 .text          0x000000000d00612c        0x0 ../../spresense-exported-sdk/nuttx/libs/libnuttx.a(mm-umm_globals.o)
 .text          0x000000000d00612c        0x0 ../../spresense-exported-sdk/nuttx/libs/libnuttx.a(mm-umm_malloc.o)
 .text.malloc   0x000000000d00612c        0xc ../../spresense-exported-sdk/nuttx/libs/libnuttx.a(mm-umm_malloc.o)
                0x000000000d00612c                malloc
 .text          0x000000000d006138        0x0 ../../spresense-exported-sdk/nuttx/libs/libnuttx.a(mm-umm_sem.o)
 .text.umm_trysemaphore
                0x000000000d006138        0xc ../../spresense-exported-sdk/nuttx/libs/libnuttx.a(mm-umm_sem.o)
                0x000000000d006138                umm_trysemaphore
 .text.umm_givesemaphore
                0x000000000d006144        0xc ../../spresense-exported-sdk/nuttx/libs/libnuttx.a(mm-umm_sem.o)
                0x000000000d006144                umm_givesemaphore
 .text          0x000000000d006150        0x0 ../../spresense-exported-sdk/nuttx/libs/libnuttx.a(mm-umm_zalloc.o)
 .text.zalloc   0x000000000d006150        0xc ../../spresense-exported-sdk/nuttx/libs/libnuttx.a(mm-umm_zalloc.o)
                0x000000000d006150                zalloc
 .text          0x000000000d00615c        0x0 ../../spresense-exported-sdk/nuttx/libs/libnuttx.a(arch-cxd56_farapistub.o)
 .text.stub     0x000000000d00615c      0x3d0 ../../spresense-exported-sdk/nuttx/libs/libnuttx.a(arch-cxd56_farapistub.o)
                0x000000000d0061b8                fw_pm_startcpu
                0x000000000d0061bc                fw_pm_stopcpu
                0x000000000d0061c0                fw_pm_sleepcpu
                0x000000000d0061c4                fw_pm_wakeupcpu
                0x000000000d0061c8                fw_pm_coldsleep
                0x000000000d0061cc                fw_pm_deepsleep
                0x000000000d0061d0                fw_pm_reboot
                0x000000000d0061d4                fw_pm_loadimage
                0x000000000d0061e4                fw_pm_pmiccontrol
                0x000000000d006248                fw_fm_rawwrite
                0x000000000d00624c                fw_fm_rawread
                0x000000000d006250                fw_fm_rawerasesector
                0x000000000d006264                fw_fm_rawverifywrite
                0x000000000d00636c                fw_as_acacontrol
                0x000000000d006390                fw_pd_pinconfigs
                0x000000000d0063b4                fw_pd_uartinit
                0x000000000d0063b8                fw_pd_uartuninit
                0x000000000d0063bc                fw_pd_uartconfiguration
                0x000000000d0063c0                fw_pd_uartenable
                0x000000000d0063c4                fw_pd_uartdisable
                0x000000000d0063c8                fw_pd_uartreceive
                0x000000000d0063cc                fw_pd_uartsend
                0x000000000d0063f0                fw_um_init
                0x000000000d0063f4                fw_um_open
                0x000000000d0063f8                fw_um_commit
                0x000000000d0063fc                fw_um_close
                0x000000000d006400                fw_um_checkpoint
                0x000000000d006404                fw_um_doupdatesequence
                0x000000000d006408                fw_um_abort
                0x000000000d00642c                fw_gd_start
                0x000000000d006430                fw_gd_stop
                0x000000000d006434                fw_gd_selectsatellitesystem
                0x000000000d006438                fw_gd_getsatellitesystem
                0x000000000d00643c                fw_gd_setreceiverpositionellipsoidal
                0x000000000d006440                fw_gd_setreceiverpositionorthogonal
                0x000000000d006444                fw_gd_setoperationmode
                0x000000000d006448                fw_gd_getoperationmode
                0x000000000d00644c                fw_gd_settcxooffset
                0x000000000d006450                fw_gd_gettcxooffset
                0x000000000d006454                fw_gd_settime
                0x000000000d006458                fw_gd_getalmanac
                0x000000000d00645c                fw_gd_setalmanac
                0x000000000d006460                fw_gd_getephemeris
                0x000000000d006464                fw_gd_setephemeris
                0x000000000d006468                fw_gd_getvarephemeris
                0x000000000d00646c                fw_gd_setvarephemeris
                0x000000000d006470                fw_gd_startgpstest
                0x000000000d006474                fw_gd_stopgpstest
                0x000000000d006478                fw_gd_getgpstestresult
                0x000000000d00647c                fw_gd_savebackupdata
                0x000000000d006480                fw_gd_erasebackup
                0x000000000d006484                fw_gd_cepsetassistdata
                0x000000000d006488                fw_gd_ceperaseassistdata
                0x000000000d00648c                fw_gd_cepcheckassistdata
                0x000000000d006490                fw_gd_cepgetagedata
                0x000000000d006494                fw_gd_cepinitassistdata
                0x000000000d006498                fw_gd_setacquist
                0x000000000d00649c                fw_gd_setframetime
                0x000000000d0064a0                fw_gd_settaugps
                0x000000000d0064a4                fw_gd_settimegps
                0x000000000d0064a8                fw_gd_clearreceiverinfo
                0x000000000d0064ac                fw_gd_settowassist
                0x000000000d0064b0                fw_gd_setutcmodel
                0x000000000d0064b4                fw_gd_spectrumcontrol
                0x000000000d0064b8                fw_gd_readbuffer
                0x000000000d0064bc                fw_gd_writebuffer
                0x000000000d0064c0                fw_gd_setnotifymask
                0x000000000d0064c4                fw_gd_geoaddregion
                0x000000000d0064c8                fw_gd_geomodifyregion
                0x000000000d0064cc                fw_gd_geodeleteregione
                0x000000000d0064d0                fw_gd_geodeleteallregion
                0x000000000d0064d4                fw_gd_geogetregiondata
                0x000000000d0064d8                fw_gd_geogetusedregionid
                0x000000000d0064dc                fw_gd_geosetopmode
                0x000000000d0064e0                fw_gd_geosetallrgionnotifyrequest
                0x000000000d0064e4                fw_gd_registergeofence
                0x000000000d0064e8                fw_gd_releasegeofence
                0x000000000d0064ec                fw_gd_registerpvtlog
                0x000000000d0064f0                fw_gd_releasepvtlog
                0x000000000d0064f4                fw_gd_pvtlogdeletelog
                0x000000000d0064f8                fw_gd_pvtloggetlogstatus
                0x000000000d0064fc                fw_gd_rtkstart
                0x000000000d006500                fw_gd_rtkstop
                0x000000000d006504                fw_gd_rtksetoutputinterval
                0x000000000d006508                fw_gd_rtkgetoutputinterval
                0x000000000d00650c                fw_gd_rtksetgnss
                0x000000000d006510                fw_gd_rtkgetgnss
                0x000000000d006514                fw_gd_rtksetephnotify
                0x000000000d006518                fw_gd_rtkgetephnotify
                0x000000000d00651c                fw_gd_setusecase
                0x000000000d006520                fw_gd_getusecase
                0x000000000d006524                fw_gd_set1ppsoutput
                0x000000000d006528                fw_gd_get1ppsoutput
 .text          0x000000000d00652c        0x0 ../../spresense-exported-sdk/nuttx/libs/libnuttx.a(arch-cxd56_icc.o)
 .text.icc_sighandler
                0x000000000d00652c       0x28 ../../spresense-exported-sdk/nuttx/libs/libnuttx.a(arch-cxd56_icc.o)
 .text.icc_msghandler
                0x000000000d006554        0x6 ../../spresense-exported-sdk/nuttx/libs/libnuttx.a(arch-cxd56_icc.o)
 .text.icc_rxtimeout
                0x000000000d00655a       0x14 ../../spresense-exported-sdk/nuttx/libs/libnuttx.a(arch-cxd56_icc.o)
 .text.icc_devnew
                0x000000000d00656e       0x5e ../../spresense-exported-sdk/nuttx/libs/libnuttx.a(arch-cxd56_icc.o)
 .text.icc_irqhandler
                0x000000000d0065cc       0x94 ../../spresense-exported-sdk/nuttx/libs/libnuttx.a(arch-cxd56_icc.o)
 .text.icc_recv
                0x000000000d006660       0xa4 ../../spresense-exported-sdk/nuttx/libs/libnuttx.a(arch-cxd56_icc.o)
 .text.cxd56_iccregisterhandler
                0x000000000d006704       0x30 ../../spresense-exported-sdk/nuttx/libs/libnuttx.a(arch-cxd56_icc.o)
                0x000000000d006704                cxd56_iccregisterhandler
 .text.cxd56_iccregistersighandler
                0x000000000d006734       0x30 ../../spresense-exported-sdk/nuttx/libs/libnuttx.a(arch-cxd56_icc.o)
                0x000000000d006734                cxd56_iccregistersighandler
 .text.cxd56_iccsend
                0x000000000d006764       0x48 ../../spresense-exported-sdk/nuttx/libs/libnuttx.a(arch-cxd56_icc.o)
                0x000000000d006764                cxd56_iccsend
 .text.cxd56_iccsendmsg
                0x000000000d0067ac        0xa ../../spresense-exported-sdk/nuttx/libs/libnuttx.a(arch-cxd56_icc.o)
                0x000000000d0067ac                cxd56_iccsendmsg
 *fill*         0x000000000d0067b6        0x2 
 .text.cxd56_iccrecv
                0x000000000d0067b8       0x1c ../../spresense-exported-sdk/nuttx/libs/libnuttx.a(arch-cxd56_icc.o)
                0x000000000d0067b8                cxd56_iccrecv
 .text.cxd56_iccrecvmsg
                0x000000000d0067d4       0x28 ../../spresense-exported-sdk/nuttx/libs/libnuttx.a(arch-cxd56_icc.o)
                0x000000000d0067d4                cxd56_iccrecvmsg
 .text.cxd56_iccsignal
                0x000000000d0067fc       0x22 ../../spresense-exported-sdk/nuttx/libs/libnuttx.a(arch-cxd56_icc.o)
                0x000000000d0067fc                cxd56_iccsignal
 *fill*         0x000000000d00681e        0x2 
 .text.cxd56_iccnotify
                0x000000000d006820       0x2c ../../spresense-exported-sdk/nuttx/libs/libnuttx.a(arch-cxd56_icc.o)
                0x000000000d006820                cxd56_iccnotify
 .text.cxd56_iccinit
                0x000000000d00684c       0x30 ../../spresense-exported-sdk/nuttx/libs/libnuttx.a(arch-cxd56_icc.o)
                0x000000000d00684c                cxd56_iccinit
 .text.cxd56_iccinitmsg
                0x000000000d00687c       0x30 ../../spresense-exported-sdk/nuttx/libs/libnuttx.a(arch-cxd56_icc.o)
                0x000000000d00687c                cxd56_iccinitmsg
 .text.cxd56_iccuninit
                0x000000000d0068ac       0x38 ../../spresense-exported-sdk/nuttx/libs/libnuttx.a(arch-cxd56_icc.o)
                0x000000000d0068ac                cxd56_iccuninit
 .text.cxd56_iccuninitmsg
                0x000000000d0068e4       0x38 ../../spresense-exported-sdk/nuttx/libs/libnuttx.a(arch-cxd56_icc.o)
                0x000000000d0068e4                cxd56_iccuninitmsg
 .text.cxd56_iccinitialize
                0x000000000d00691c       0x64 ../../spresense-exported-sdk/nuttx/libs/libnuttx.a(arch-cxd56_icc.o)
                0x000000000d00691c                cxd56_iccinitialize
 .text          0x000000000d006980        0x0 ../../spresense-exported-sdk/nuttx/libs/libnuttx.a(arch-cxd56_irq.o)
 .text.up_irqinitialize
                0x000000000d006980       0x88 ../../spresense-exported-sdk/nuttx/libs/libnuttx.a(arch-cxd56_irq.o)
                0x000000000d006980                up_irqinitialize
 .text.up_disable_irq
                0x000000000d006a08       0xa8 ../../spresense-exported-sdk/nuttx/libs/libnuttx.a(arch-cxd56_irq.o)
                0x000000000d006a08                up_disable_irq
 .text.up_enable_irq
                0x000000000d006ab0       0xa4 ../../spresense-exported-sdk/nuttx/libs/libnuttx.a(arch-cxd56_irq.o)
                0x000000000d006ab0                up_enable_irq
 .text.up_ack_irq
                0x000000000d006b54       0x1e ../../spresense-exported-sdk/nuttx/libs/libnuttx.a(arch-cxd56_irq.o)
                0x000000000d006b54                up_ack_irq
 .text          0x000000000d006b72        0x0 ../../spresense-exported-sdk/nuttx/libs/libnuttx.a(arch-cxd56_pmic.o)
 .text.cxd56_pmic_get_interrupt_status
                0x000000000d006b72        0x8 ../../spresense-exported-sdk/nuttx/libs/libnuttx.a(arch-cxd56_pmic.o)
                0x000000000d006b72                cxd56_pmic_get_interrupt_status
 .text.cxd56_pmic_set_gpo_reg
                0x000000000d006b7a       0x18 ../../spresense-exported-sdk/nuttx/libs/libnuttx.a(arch-cxd56_pmic.o)
                0x000000000d006b7a                cxd56_pmic_set_gpo_reg
 .text.cxd56_pmic_set_gpo
                0x000000000d006b92       0x5e ../../spresense-exported-sdk/nuttx/libs/libnuttx.a(arch-cxd56_pmic.o)
                0x000000000d006b92                cxd56_pmic_set_gpo
 .text.cxd56_pmic_set_gpo_hiz
                0x000000000d006bf0       0x46 ../../spresense-exported-sdk/nuttx/libs/libnuttx.a(arch-cxd56_pmic.o)
                0x000000000d006bf0                cxd56_pmic_set_gpo_hiz
 .text.cxd56_pmic_get_gpo
                0x000000000d006c36       0x46 ../../spresense-exported-sdk/nuttx/libs/libnuttx.a(arch-cxd56_pmic.o)
                0x000000000d006c36                cxd56_pmic_get_gpo
 .text.cxd56_pmic_get_gpo_hiz
                0x000000000d006c7c       0x5e ../../spresense-exported-sdk/nuttx/libs/libnuttx.a(arch-cxd56_pmic.o)
                0x000000000d006c7c                cxd56_pmic_get_gpo_hiz
 .text.cxd56_pmic_set_loadswitch_reg
                0x000000000d006cda       0x14 ../../spresense-exported-sdk/nuttx/libs/libnuttx.a(arch-cxd56_pmic.o)
                0x000000000d006cda                cxd56_pmic_set_loadswitch_reg
 .text.cxd56_pmic_set_loadswitch
                0x000000000d006cee       0x2a ../../spresense-exported-sdk/nuttx/libs/libnuttx.a(arch-cxd56_pmic.o)
                0x000000000d006cee                cxd56_pmic_set_loadswitch
 .text.cxd56_pmic_get_loadswitch
                0x000000000d006d18       0x2c ../../spresense-exported-sdk/nuttx/libs/libnuttx.a(arch-cxd56_pmic.o)
                0x000000000d006d18                cxd56_pmic_get_loadswitch
 .text.cxd56_pmic_set_ddc_ldo_reg
                0x000000000d006d44       0x14 ../../spresense-exported-sdk/nuttx/libs/libnuttx.a(arch-cxd56_pmic.o)
                0x000000000d006d44                cxd56_pmic_set_ddc_ldo_reg
 .text.cxd56_pmic_set_ddc_ldo
                0x000000000d006d58       0x2a ../../spresense-exported-sdk/nuttx/libs/libnuttx.a(arch-cxd56_pmic.o)
                0x000000000d006d58                cxd56_pmic_set_ddc_ldo
 .text.cxd56_pmic_get_ddc_ldo
                0x000000000d006d82       0x2c ../../spresense-exported-sdk/nuttx/libs/libnuttx.a(arch-cxd56_pmic.o)
                0x000000000d006d82                cxd56_pmic_get_ddc_ldo
 .text.cxd56_pmic_get_gauge
                0x000000000d006dae        0x8 ../../spresense-exported-sdk/nuttx/libs/libnuttx.a(arch-cxd56_pmic.o)
                0x000000000d006dae                cxd56_pmic_get_gauge
 .text.cxd56_pmic_getlowervol
                0x000000000d006db6        0x8 ../../spresense-exported-sdk/nuttx/libs/libnuttx.a(arch-cxd56_pmic.o)
                0x000000000d006db6                cxd56_pmic_getlowervol
 .text.cxd56_pmic_setlowervol
                0x000000000d006dbe        0x8 ../../spresense-exported-sdk/nuttx/libs/libnuttx.a(arch-cxd56_pmic.o)
                0x000000000d006dbe                cxd56_pmic_setlowervol
 .text.cxd56_pmic_getnotifyvol
                0x000000000d006dc6        0x8 ../../spresense-exported-sdk/nuttx/libs/libnuttx.a(arch-cxd56_pmic.o)
                0x000000000d006dc6                cxd56_pmic_getnotifyvol
 .text.cxd56_pmic_setnotifyvol
                0x000000000d006dce        0x8 ../../spresense-exported-sdk/nuttx/libs/libnuttx.a(arch-cxd56_pmic.o)
                0x000000000d006dce                cxd56_pmic_setnotifyvol
 .text.cxd56_pmic_getchargevol
                0x000000000d006dd6       0x30 ../../spresense-exported-sdk/nuttx/libs/libnuttx.a(arch-cxd56_pmic.o)
                0x000000000d006dd6                cxd56_pmic_getchargevol
 .text.cxd56_pmic_setchargevol
                0x000000000d006e06       0x26 ../../spresense-exported-sdk/nuttx/libs/libnuttx.a(arch-cxd56_pmic.o)
                0x000000000d006e06                cxd56_pmic_setchargevol
 .text.cxd56_pmic_getchargecurrent
                0x000000000d006e2c       0x36 ../../spresense-exported-sdk/nuttx/libs/libnuttx.a(arch-cxd56_pmic.o)
                0x000000000d006e2c                cxd56_pmic_getchargecurrent
 .text.cxd56_pmic_setchargecurrent
                0x000000000d006e62       0x24 ../../spresense-exported-sdk/nuttx/libs/libnuttx.a(arch-cxd56_pmic.o)
                0x000000000d006e62                cxd56_pmic_setchargecurrent
 .text.cxd56_pmic_getporttype
                0x000000000d006e86        0x8 ../../spresense-exported-sdk/nuttx/libs/libnuttx.a(arch-cxd56_pmic.o)
                0x000000000d006e86                cxd56_pmic_getporttype
 .text.cxd56_pmic_getchargestate
                0x000000000d006e8e       0x1e ../../spresense-exported-sdk/nuttx/libs/libnuttx.a(arch-cxd56_pmic.o)
                0x000000000d006e8e                cxd56_pmic_getchargestate
 .text.cxd56_pmic_setrechargevol
                0x000000000d006eac       0x32 ../../spresense-exported-sdk/nuttx/libs/libnuttx.a(arch-cxd56_pmic.o)
                0x000000000d006eac                cxd56_pmic_setrechargevol
 *fill*         0x000000000d006ede        0x2 
 .text.cxd56_pmic_getrechargevol
                0x000000000d006ee0       0x48 ../../spresense-exported-sdk/nuttx/libs/libnuttx.a(arch-cxd56_pmic.o)
                0x000000000d006ee0                cxd56_pmic_getrechargevol
 .text.cxd56_pmic_setchargecompcurrent
                0x000000000d006f28       0x34 ../../spresense-exported-sdk/nuttx/libs/libnuttx.a(arch-cxd56_pmic.o)
                0x000000000d006f28                cxd56_pmic_setchargecompcurrent
 .text.cxd56_pmic_getchargecompcurrent
                0x000000000d006f5c       0x44 ../../spresense-exported-sdk/nuttx/libs/libnuttx.a(arch-cxd56_pmic.o)
                0x000000000d006f5c                cxd56_pmic_getchargecompcurrent
 .text.cxd56_pmic_gettemptable
                0x000000000d006fa0        0x8 ../../spresense-exported-sdk/nuttx/libs/libnuttx.a(arch-cxd56_pmic.o)
                0x000000000d006fa0                cxd56_pmic_gettemptable
 .text.cxd56_pmic_settemptable
                0x000000000d006fa8        0x8 ../../spresense-exported-sdk/nuttx/libs/libnuttx.a(arch-cxd56_pmic.o)
                0x000000000d006fa8                cxd56_pmic_settemptable
 .text.cxd56_pmic_setchargemode
                0x000000000d006fb0       0x22 ../../spresense-exported-sdk/nuttx/libs/libnuttx.a(arch-cxd56_pmic.o)
                0x000000000d006fb0                cxd56_pmic_setchargemode
 .text.cxd56_pmic_getchargemode
                0x000000000d006fd2       0x1c ../../spresense-exported-sdk/nuttx/libs/libnuttx.a(arch-cxd56_pmic.o)
                0x000000000d006fd2                cxd56_pmic_getchargemode
 .text.cxd56_pmic_read
                0x000000000d006fee       0x18 ../../spresense-exported-sdk/nuttx/libs/libnuttx.a(arch-cxd56_pmic.o)
                0x000000000d006fee                cxd56_pmic_read
 .text.cxd56_pmic_write
                0x000000000d007006       0x18 ../../spresense-exported-sdk/nuttx/libs/libnuttx.a(arch-cxd56_pmic.o)
                0x000000000d007006                cxd56_pmic_write
 .text.cxd56_pmic_get_rtc
                0x000000000d00701e       0x5c ../../spresense-exported-sdk/nuttx/libs/libnuttx.a(arch-cxd56_pmic.o)
                0x000000000d00701e                cxd56_pmic_get_rtc
 .text          0x000000000d00707a        0x0 ../../spresense-exported-sdk/nuttx/libs/libnuttx.a(arch-cxd56_rtc.o)
 *fill*         0x000000000d00707a        0x2 
 .text.cxd56_rtc_interrupt
                0x000000000d00707c       0x3c ../../spresense-exported-sdk/nuttx/libs/libnuttx.a(arch-cxd56_rtc.o)
 .text.cxd56_rtc_count
                0x000000000d0070b8       0x24 ../../spresense-exported-sdk/nuttx/libs/libnuttx.a(arch-cxd56_rtc.o)
                0x000000000d0070b8                cxd56_rtc_count
 .text.up_rtc_gettime
                0x000000000d0070dc       0x34 ../../spresense-exported-sdk/nuttx/libs/libnuttx.a(arch-cxd56_rtc.o)
                0x000000000d0070dc                up_rtc_gettime
 .text.cxd56_rtc_initialize
                0x000000000d007110      0x114 ../../spresense-exported-sdk/nuttx/libs/libnuttx.a(arch-cxd56_rtc.o)
 .text.up_rtc_initialize
                0x000000000d007224        0xe ../../spresense-exported-sdk/nuttx/libs/libnuttx.a(arch-cxd56_rtc.o)
                0x000000000d007224                up_rtc_initialize
 *fill*         0x000000000d007232        0x2 
 .text.up_rtc_settime
                0x000000000d007234       0x4c ../../spresense-exported-sdk/nuttx/libs/libnuttx.a(arch-cxd56_rtc.o)
                0x000000000d007234                up_rtc_settime
 .text.cxd56_rtc_almcount
                0x000000000d007280       0x28 ../../spresense-exported-sdk/nuttx/libs/libnuttx.a(arch-cxd56_rtc.o)
                0x000000000d007280                cxd56_rtc_almcount
 .text.cxd56_rtc_setalarm
                0x000000000d0072a8       0xc4 ../../spresense-exported-sdk/nuttx/libs/libnuttx.a(arch-cxd56_rtc.o)
                0x000000000d0072a8                cxd56_rtc_setalarm
 .text.cxd56_rtc_cancelalarm
                0x000000000d00736c       0x8c ../../spresense-exported-sdk/nuttx/libs/libnuttx.a(arch-cxd56_rtc.o)
                0x000000000d00736c                cxd56_rtc_cancelalarm
 .text          0x000000000d0073f8        0x0 ../../spresense-exported-sdk/nuttx/libs/libnuttx.a(arch-cxd56_timerisr.o)
 .text.cxd56_timerisr
                0x000000000d0073f8        0xa ../../spresense-exported-sdk/nuttx/libs/libnuttx.a(arch-cxd56_timerisr.o)
 *fill*         0x000000000d007402        0x2 
 .text.cxd56_changeclock
                0x000000000d007404       0x78 ../../spresense-exported-sdk/nuttx/libs/libnuttx.a(arch-cxd56_timerisr.o)
 .text.arm_timer_initialize
                0x000000000d00747c       0x5c ../../spresense-exported-sdk/nuttx/libs/libnuttx.a(arch-cxd56_timerisr.o)
                0x000000000d00747c                arm_timer_initialize
 .text.cxd56_timerisr_initialize
                0x000000000d0074d8       0x18 ../../spresense-exported-sdk/nuttx/libs/libnuttx.a(arch-cxd56_timerisr.o)
                0x000000000d0074d8                cxd56_timerisr_initialize
 .text          0x000000000d0074f0        0x0 ../../spresense-exported-sdk/nuttx/libs/libnuttx.a(arch-cxd56_usbdev.o)
 .text.cxd56_epwrite
                0x000000000d0074f0       0x4c ../../spresense-exported-sdk/nuttx/libs/libnuttx.a(arch-cxd56_usbdev.o)
 .text.cxd56_reqcomplete
                0x000000000d00753c       0x60 ../../spresense-exported-sdk/nuttx/libs/libnuttx.a(arch-cxd56_usbdev.o)
 .text.cxd56_rdrequest
                0x000000000d00759c       0x38 ../../spresense-exported-sdk/nuttx/libs/libnuttx.a(arch-cxd56_usbdev.o)
 .text.cxd56_sysinterrupt
                0x000000000d0075d4       0x10 ../../spresense-exported-sdk/nuttx/libs/libnuttx.a(arch-cxd56_usbdev.o)
 .text.cxd56_epconfigure
                0x000000000d0075e4       0xcc ../../spresense-exported-sdk/nuttx/libs/libnuttx.a(arch-cxd56_usbdev.o)
 .text.cxd56_epstall
                0x000000000d0076b0       0x48 ../../spresense-exported-sdk/nuttx/libs/libnuttx.a(arch-cxd56_usbdev.o)
 .text.cxd56_getframe
                0x000000000d0076f8       0x1c ../../spresense-exported-sdk/nuttx/libs/libnuttx.a(arch-cxd56_usbdev.o)
 .text.cxd56_wakeup
                0x000000000d007714       0x24 ../../spresense-exported-sdk/nuttx/libs/libnuttx.a(arch-cxd56_usbdev.o)
 .text.cxd56_selfpowered
                0x000000000d007738       0x14 ../../spresense-exported-sdk/nuttx/libs/libnuttx.a(arch-cxd56_usbdev.o)
 .text.cxd56_pullup
                0x000000000d00774c       0x38 ../../spresense-exported-sdk/nuttx/libs/libnuttx.a(arch-cxd56_usbdev.o)
 .text.cxd56_usbdev_stat
                0x000000000d007784       0x10 ../../spresense-exported-sdk/nuttx/libs/libnuttx.a(arch-cxd56_usbdev.o)
 .text.cxd56_epallocbuffer
                0x000000000d007794        0x6 ../../spresense-exported-sdk/nuttx/libs/libnuttx.a(arch-cxd56_usbdev.o)
 *fill*         0x000000000d00779a        0x2 
 .text.cxd56_allocep
                0x000000000d00779c       0xf0 ../../spresense-exported-sdk/nuttx/libs/libnuttx.a(arch-cxd56_usbdev.o)
 .text.cxd56_usbdev_dup
                0x000000000d00788c       0x28 ../../spresense-exported-sdk/nuttx/libs/libnuttx.a(arch-cxd56_usbdev.o)
 .text.cxd56_usbdev_read
                0x000000000d0078b4       0x5c ../../spresense-exported-sdk/nuttx/libs/libnuttx.a(arch-cxd56_usbdev.o)
 .text.cxd56_usbdev_close
                0x000000000d007910       0x10 ../../spresense-exported-sdk/nuttx/libs/libnuttx.a(arch-cxd56_usbdev.o)
 .text.cxd56_epfreebuffer
                0x000000000d007920        0x6 ../../spresense-exported-sdk/nuttx/libs/libnuttx.a(arch-cxd56_usbdev.o)
 .text.cxd56_epfreereq
                0x000000000d007926        0x6 ../../spresense-exported-sdk/nuttx/libs/libnuttx.a(arch-cxd56_usbdev.o)
 .text.cxd56_freeep
                0x000000000d00792c       0x64 ../../spresense-exported-sdk/nuttx/libs/libnuttx.a(arch-cxd56_usbdev.o)
 .text.cxd56_usbdev_open
                0x000000000d007990       0x26 ../../spresense-exported-sdk/nuttx/libs/libnuttx.a(arch-cxd56_usbdev.o)
 .text.cxd56_epallocreq
                0x000000000d0079b6       0x18 ../../spresense-exported-sdk/nuttx/libs/libnuttx.a(arch-cxd56_usbdev.o)
 *fill*         0x000000000d0079ce        0x2 
 .text.cxd56_notify_signal
                0x000000000d0079d0       0x28 ../../spresense-exported-sdk/nuttx/libs/libnuttx.a(arch-cxd56_usbdev.o)
 .text.cxd56_cancelrequests
                0x000000000d0079f8       0x78 ../../spresense-exported-sdk/nuttx/libs/libnuttx.a(arch-cxd56_usbdev.o)
 .text.cxd56_epcancel
                0x000000000d007a70       0x1a ../../spresense-exported-sdk/nuttx/libs/libnuttx.a(arch-cxd56_usbdev.o)
 .text.cxd56_epdisable
                0x000000000d007a8a       0x24 ../../spresense-exported-sdk/nuttx/libs/libnuttx.a(arch-cxd56_usbdev.o)
 *fill*         0x000000000d007aae        0x2 
 .text.cxd56_vbusninterrupt
                0x000000000d007ab0       0x6c ../../spresense-exported-sdk/nuttx/libs/libnuttx.a(arch-cxd56_usbdev.o)
 .text.cxd56_dispatchrequest.constprop.0
                0x000000000d007b1c       0x34 ../../spresense-exported-sdk/nuttx/libs/libnuttx.a(arch-cxd56_usbdev.o)
 .text.cxd56_epfindbyaddr.constprop.0
                0x000000000d007b50       0x3c ../../spresense-exported-sdk/nuttx/libs/libnuttx.a(arch-cxd56_usbdev.o)
 .text.cxd56_ep0setup.constprop.0
                0x000000000d007b8c      0x1b4 ../../spresense-exported-sdk/nuttx/libs/libnuttx.a(arch-cxd56_usbdev.o)
 .text.cxd56_usbinterrupt
                0x000000000d007d40      0x54c ../../spresense-exported-sdk/nuttx/libs/libnuttx.a(arch-cxd56_usbdev.o)
 .text.cxd56_vbusinterrupt
                0x000000000d00828c      0x28c ../../spresense-exported-sdk/nuttx/libs/libnuttx.a(arch-cxd56_usbdev.o)
 .text.cxd56_epsubmit
                0x000000000d008518      0x100 ../../spresense-exported-sdk/nuttx/libs/libnuttx.a(arch-cxd56_usbdev.o)
 .text.usbdev_register
                0x000000000d008618       0x40 ../../spresense-exported-sdk/nuttx/libs/libnuttx.a(arch-cxd56_usbdev.o)
                0x000000000d008618                usbdev_register
 .text.usbdev_unregister
                0x000000000d008658       0x74 ../../spresense-exported-sdk/nuttx/libs/libnuttx.a(arch-cxd56_usbdev.o)
                0x000000000d008658                usbdev_unregister
 .text.up_usbuninitialize
                0x000000000d0086cc       0x78 ../../spresense-exported-sdk/nuttx/libs/libnuttx.a(arch-cxd56_usbdev.o)
                0x000000000d0086cc                up_usbuninitialize
 .text.up_usbinitialize
                0x000000000d008744      0x114 ../../spresense-exported-sdk/nuttx/libs/libnuttx.a(arch-cxd56_usbdev.o)
                0x000000000d008744                up_usbinitialize
 .text.cxd56_usbdev_setsigno
                0x000000000d008858       0x18 ../../spresense-exported-sdk/nuttx/libs/libnuttx.a(arch-cxd56_usbdev.o)
                0x000000000d008858                cxd56_usbdev_setsigno
 .text.cxd56_usbdev_procfs_register
                0x000000000d008870        0xc ../../spresense-exported-sdk/nuttx/libs/libnuttx.a(arch-cxd56_usbdev.o)
                0x000000000d008870                cxd56_usbdev_procfs_register
 .text          0x000000000d00887c        0x0 ../../spresense-exported-sdk/nuttx/libs/libnuttx.a(arch-up_assert.o)
 .text.up_stackdump
                0x000000000d00887c       0x50 ../../spresense-exported-sdk/nuttx/libs/libnuttx.a(arch-up_assert.o)
 .text.up_taskdump
                0x000000000d0088cc       0x30 ../../spresense-exported-sdk/nuttx/libs/libnuttx.a(arch-up_assert.o)
 .text.up_assert
                0x000000000d0088fc      0x280 ../../spresense-exported-sdk/nuttx/libs/libnuttx.a(arch-up_assert.o)
                0x000000000d0088fc                up_assert
 .text          0x000000000d008b7c        0x0 ../../spresense-exported-sdk/nuttx/libs/libnuttx.a(arch-up_blocktask.o)
 .text.up_block_task
                0x000000000d008b7c       0x6c ../../spresense-exported-sdk/nuttx/libs/libnuttx.a(arch-up_blocktask.o)
                0x000000000d008b7c                up_block_task
 .text          0x000000000d008be8        0x0 ../../spresense-exported-sdk/nuttx/libs/libnuttx.a(arch-up_checkstack.o)
 .text.do_stackcheck.isra.0.part.0
                0x000000000d008be8       0x28 ../../spresense-exported-sdk/nuttx/libs/libnuttx.a(arch-up_checkstack.o)
 .text.up_check_tcbstack
                0x000000000d008c10        0xe ../../spresense-exported-sdk/nuttx/libs/libnuttx.a(arch-up_checkstack.o)
                0x000000000d008c10                up_check_tcbstack
 .text.up_check_tcbstack_remain
                0x000000000d008c1e        0xe ../../spresense-exported-sdk/nuttx/libs/libnuttx.a(arch-up_checkstack.o)
                0x000000000d008c1e                up_check_tcbstack_remain
 .text.up_check_stack
                0x000000000d008c2c        0xc ../../spresense-exported-sdk/nuttx/libs/libnuttx.a(arch-up_checkstack.o)
                0x000000000d008c2c                up_check_stack
 .text.up_check_stack_remain
                0x000000000d008c38        0xc ../../spresense-exported-sdk/nuttx/libs/libnuttx.a(arch-up_checkstack.o)
                0x000000000d008c38                up_check_stack_remain
 .text.up_check_intstack
                0x000000000d008c44       0x10 ../../spresense-exported-sdk/nuttx/libs/libnuttx.a(arch-up_checkstack.o)
                0x000000000d008c44                up_check_intstack
 .text.up_check_intstack_remain
                0x000000000d008c54        0xc ../../spresense-exported-sdk/nuttx/libs/libnuttx.a(arch-up_checkstack.o)
                0x000000000d008c54                up_check_intstack_remain
 .text          0x000000000d008c60        0x0 ../../spresense-exported-sdk/nuttx/libs/libnuttx.a(arch-up_copyfullstate.o)
 .text.up_copyfullstate
                0x000000000d008c60       0x18 ../../spresense-exported-sdk/nuttx/libs/libnuttx.a(arch-up_copyfullstate.o)
                0x000000000d008c60                up_copyfullstate
 .text          0x000000000d008c78        0x0 ../../spresense-exported-sdk/nuttx/libs/libnuttx.a(arch-up_createstack.o)
 .text.up_stack_color
                0x000000000d008c78       0x28 ../../spresense-exported-sdk/nuttx/libs/libnuttx.a(arch-up_createstack.o)
                0x000000000d008c78                up_stack_color
 .text.up_create_stack
                0x000000000d008ca0       0x4a ../../spresense-exported-sdk/nuttx/libs/libnuttx.a(arch-up_createstack.o)
                0x000000000d008ca0                up_create_stack
 .text          0x000000000d008cea        0x0 ../../spresense-exported-sdk/nuttx/libs/libnuttx.a(arch-up_doirq.o)
 *fill*         0x000000000d008cea        0x2 
 .text.up_doirq
                0x000000000d008cec       0x24 ../../spresense-exported-sdk/nuttx/libs/libnuttx.a(arch-up_doirq.o)
                0x000000000d008cec                up_doirq
 .text          0x000000000d008d10        0x0 ../../spresense-exported-sdk/nuttx/libs/libnuttx.a(arch-up_hardfault.o)
 .text.up_hardfault
                0x000000000d008d10       0x34 ../../spresense-exported-sdk/nuttx/libs/libnuttx.a(arch-up_hardfault.o)
                0x000000000d008d10                up_hardfault
 .text          0x000000000d008d44        0x0 ../../spresense-exported-sdk/nuttx/libs/libnuttx.a(arch-up_releasepending.o)
 .text.up_release_pending
                0x000000000d008d44       0x48 ../../spresense-exported-sdk/nuttx/libs/libnuttx.a(arch-up_releasepending.o)
                0x000000000d008d44                up_release_pending
 .text          0x000000000d008d8c        0x0 ../../spresense-exported-sdk/nuttx/libs/libnuttx.a(arch-up_releasestack.o)
 .text.up_release_stack
                0x000000000d008d8c       0x1e ../../spresense-exported-sdk/nuttx/libs/libnuttx.a(arch-up_releasestack.o)
                0x000000000d008d8c                up_release_stack
 .text          0x000000000d008daa       0x14 ../../spresense-exported-sdk/nuttx/libs/libnuttx.a(arch-up_saveusercontext.o)
                0x000000000d008daa                up_saveusercontext
 .text          0x000000000d008dbe        0x0 ../../spresense-exported-sdk/nuttx/libs/libnuttx.a(arch-up_stackframe.o)
 .text.up_stack_frame
                0x000000000d008dbe       0x28 ../../spresense-exported-sdk/nuttx/libs/libnuttx.a(arch-up_stackframe.o)
                0x000000000d008dbe                up_stack_frame
 .text          0x000000000d008de6        0x0 ../../spresense-exported-sdk/nuttx/libs/libnuttx.a(arch-up_svcall.o)
 *fill*         0x000000000d008de6        0x2 
 .text.up_svcall
                0x000000000d008de8       0x34 ../../spresense-exported-sdk/nuttx/libs/libnuttx.a(arch-up_svcall.o)
                0x000000000d008de8                up_svcall
 .text          0x000000000d008e1c        0xc ../../spresense-exported-sdk/nuttx/libs/libnuttx.a(arch-up_switchcontext.o)
                0x000000000d008e1c                up_switchcontext
 .text          0x000000000d008e28        0x0 ../../spresense-exported-sdk/nuttx/libs/libnuttx.a(arch-up_unblocktask.o)
 .text.up_unblock_task
                0x000000000d008e28       0x50 ../../spresense-exported-sdk/nuttx/libs/libnuttx.a(arch-up_unblocktask.o)
                0x000000000d008e28                up_unblock_task
 .text          0x000000000d008e78        0x0 ../../spresense-exported-sdk/nuttx/libs/libnuttx.a(net-devif_callback.o)
 .text.devif_callback_free
                0x000000000d008e78       0x60 ../../spresense-exported-sdk/nuttx/libs/libnuttx.a(net-devif_callback.o)
 .text.devif_callback_init
                0x000000000d008ed8       0x2c ../../spresense-exported-sdk/nuttx/libs/libnuttx.a(net-devif_callback.o)
                0x000000000d008ed8                devif_callback_init
 .text.devif_callback_alloc
                0x000000000d008f04       0x54 ../../spresense-exported-sdk/nuttx/libs/libnuttx.a(net-devif_callback.o)
                0x000000000d008f04                devif_callback_alloc
 .text.devif_conn_callback_free
                0x000000000d008f58       0x22 ../../spresense-exported-sdk/nuttx/libs/libnuttx.a(net-devif_callback.o)
                0x000000000d008f58                devif_conn_callback_free
 .text.devif_dev_callback_free
                0x000000000d008f7a       0x28 ../../spresense-exported-sdk/nuttx/libs/libnuttx.a(net-devif_callback.o)
                0x000000000d008f7a                devif_dev_callback_free
 .text.devif_conn_event
                0x000000000d008fa2       0x50 ../../spresense-exported-sdk/nuttx/libs/libnuttx.a(net-devif_callback.o)
                0x000000000d008fa2                devif_conn_event
 .text.devif_dev_event
                0x000000000d008ff2       0x4c ../../spresense-exported-sdk/nuttx/libs/libnuttx.a(net-devif_callback.o)
                0x000000000d008ff2                devif_dev_event
 .text          0x000000000d00903e        0x0 ../../spresense-exported-sdk/nuttx/libs/libnuttx.a(net-devif_initialize.o)
 .text.devif_initialize
                0x000000000d00903e        0x4 ../../spresense-exported-sdk/nuttx/libs/libnuttx.a(net-devif_initialize.o)
                0x000000000d00903e                devif_initialize
 .text          0x000000000d009042        0x0 ../../spresense-exported-sdk/nuttx/libs/libnuttx.a(net-netdev_verify.o)
 *fill*         0x000000000d009042        0x2 
 .text.netdev_verify
                0x000000000d009044       0x24 ../../spresense-exported-sdk/nuttx/libs/libnuttx.a(net-netdev_verify.o)
                0x000000000d009044                netdev_verify
 .text          0x000000000d009068        0x0 ../../spresense-exported-sdk/nuttx/libs/libnuttx.a(net-net_sockets.o)
 .text.net_initlist
                0x000000000d009068        0x8 ../../spresense-exported-sdk/nuttx/libs/libnuttx.a(net-net_sockets.o)
                0x000000000d009068                net_initlist
 .text.net_releaselist
                0x000000000d009070       0x22 ../../spresense-exported-sdk/nuttx/libs/libnuttx.a(net-net_sockets.o)
                0x000000000d009070                net_releaselist
 .text.sockfd_allocate
                0x000000000d009092       0x4c ../../spresense-exported-sdk/nuttx/libs/libnuttx.a(net-net_sockets.o)
                0x000000000d009092                sockfd_allocate
 .text.psock_release
                0x000000000d0090de       0x36 ../../spresense-exported-sdk/nuttx/libs/libnuttx.a(net-net_sockets.o)
                0x000000000d0090de                psock_release
 .text.sockfd_socket
                0x000000000d009114       0x20 ../../spresense-exported-sdk/nuttx/libs/libnuttx.a(net-net_sockets.o)
                0x000000000d009114                sockfd_socket
 .text.sockfd_release
                0x000000000d009134       0x12 ../../spresense-exported-sdk/nuttx/libs/libnuttx.a(net-net_sockets.o)
                0x000000000d009134                sockfd_release
 .text          0x000000000d009146        0x0 ../../spresense-exported-sdk/nuttx/libs/libnuttx.a(fs-fs_close.o)
 .text.close    0x000000000d009146       0x30 ../../spresense-exported-sdk/nuttx/libs/libnuttx.a(fs-fs_close.o)
                0x000000000d009146                close
 .text          0x000000000d009176        0x0 ../../spresense-exported-sdk/nuttx/libs/libnuttx.a(fs-fs_dupfd2.o)
 .text.fs_dupfd2
                0x000000000d009176       0x50 ../../spresense-exported-sdk/nuttx/libs/libnuttx.a(fs-fs_dupfd2.o)
                0x000000000d009176                fs_dupfd2
 .text          0x000000000d0091c6        0x0 ../../spresense-exported-sdk/nuttx/libs/libnuttx.a(fs-fs_fdopen.o)
 .text.fs_fdopen
                0x000000000d0091c6       0xf0 ../../spresense-exported-sdk/nuttx/libs/libnuttx.a(fs-fs_fdopen.o)
                0x000000000d0091c6                fs_fdopen
 .text          0x000000000d0092b6        0x0 ../../spresense-exported-sdk/nuttx/libs/libnuttx.a(fs-fs_fileopen.o)
 .text.file_open
                0x000000000d0092b6       0x3a ../../spresense-exported-sdk/nuttx/libs/libnuttx.a(fs-fs_fileopen.o)
                0x000000000d0092b6                file_open
 .text          0x000000000d0092f0        0x0 ../../spresense-exported-sdk/nuttx/libs/libnuttx.a(fs-fs_files.o)
 .text._files_close
                0x000000000d0092f0       0x2a ../../spresense-exported-sdk/nuttx/libs/libnuttx.a(fs-fs_files.o)
 .text.nxsem_wait_uninterruptible
                0x000000000d00931a       0x16 ../../spresense-exported-sdk/nuttx/libs/libnuttx.a(fs-fs_files.o)
 .text.files_initialize
                0x000000000d009330        0x2 ../../spresense-exported-sdk/nuttx/libs/libnuttx.a(fs-fs_files.o)
                0x000000000d009330                files_initialize
 .text.files_initlist
                0x000000000d009332        0x8 ../../spresense-exported-sdk/nuttx/libs/libnuttx.a(fs-fs_files.o)
                0x000000000d009332                files_initlist
 .text.files_releaselist
                0x000000000d00933a       0x20 ../../spresense-exported-sdk/nuttx/libs/libnuttx.a(fs-fs_files.o)
                0x000000000d00933a                files_releaselist
 .text.file_dup2
                0x000000000d00935a       0x92 ../../spresense-exported-sdk/nuttx/libs/libnuttx.a(fs-fs_files.o)
                0x000000000d00935a                file_dup2
 .text.files_allocate
                0x000000000d0093ec       0x4a ../../spresense-exported-sdk/nuttx/libs/libnuttx.a(fs-fs_files.o)
                0x000000000d0093ec                files_allocate
 .text.files_close
                0x000000000d009436       0x36 ../../spresense-exported-sdk/nuttx/libs/libnuttx.a(fs-fs_files.o)
                0x000000000d009436                files_close
 .text.files_release
                0x000000000d00946c       0x2a ../../spresense-exported-sdk/nuttx/libs/libnuttx.a(fs-fs_files.o)
                0x000000000d00946c                files_release
 .text          0x000000000d009496        0x0 ../../spresense-exported-sdk/nuttx/libs/libnuttx.a(fs-fs_getfilep.o)
 .text.fs_getfilep
                0x000000000d009496       0x2e ../../spresense-exported-sdk/nuttx/libs/libnuttx.a(fs-fs_getfilep.o)
                0x000000000d009496                fs_getfilep
 .text          0x000000000d0094c4        0x0 ../../spresense-exported-sdk/nuttx/libs/libnuttx.a(fs-fs_inodeaddref.o)
 .text.inode_addref
                0x000000000d0094c4       0x1a ../../spresense-exported-sdk/nuttx/libs/libnuttx.a(fs-fs_inodeaddref.o)
                0x000000000d0094c4                inode_addref
 .text          0x000000000d0094de        0x0 ../../spresense-exported-sdk/nuttx/libs/libnuttx.a(fs-fs_inodefind.o)
 .text.inode_find
                0x000000000d0094de       0x28 ../../spresense-exported-sdk/nuttx/libs/libnuttx.a(fs-fs_inodefind.o)
                0x000000000d0094de                inode_find
 .text          0x000000000d009506        0x0 ../../spresense-exported-sdk/nuttx/libs/libnuttx.a(fs-fs_inoderelease.o)
 .text.inode_release
                0x000000000d009506       0x38 ../../spresense-exported-sdk/nuttx/libs/libnuttx.a(fs-fs_inoderelease.o)
                0x000000000d009506                inode_release
 .text          0x000000000d00953e        0x0 ../../spresense-exported-sdk/nuttx/libs/libnuttx.a(fs-fs_inodereserve.o)
 .text.inode_alloc
                0x000000000d00953e       0x3c ../../spresense-exported-sdk/nuttx/libs/libnuttx.a(fs-fs_inodereserve.o)
 *fill*         0x000000000d00957a        0x2 
 .text.inode_reserve
                0x000000000d00957c       0xb0 ../../spresense-exported-sdk/nuttx/libs/libnuttx.a(fs-fs_inodereserve.o)
                0x000000000d00957c                inode_reserve
 .text          0x000000000d00962c        0x0 ../../spresense-exported-sdk/nuttx/libs/libnuttx.a(fs-fs_inodesearch.o)
 .text.inode_nextname
                0x000000000d00962c       0x1c ../../spresense-exported-sdk/nuttx/libs/libnuttx.a(fs-fs_inodesearch.o)
                0x000000000d00962c                inode_nextname
 .text.inode_search
                0x000000000d009648       0xa8 ../../spresense-exported-sdk/nuttx/libs/libnuttx.a(fs-fs_inodesearch.o)
                0x000000000d009648                inode_search
 .text          0x000000000d0096f0        0x0 ../../spresense-exported-sdk/nuttx/libs/libnuttx.a(fs-fs_open.o)
 .text.inode_checkflags
                0x000000000d0096f0       0x28 ../../spresense-exported-sdk/nuttx/libs/libnuttx.a(fs-fs_open.o)
                0x000000000d0096f0                inode_checkflags
 .text.nx_vopen
                0x000000000d009718       0xc2 ../../spresense-exported-sdk/nuttx/libs/libnuttx.a(fs-fs_open.o)
                0x000000000d009718                nx_vopen
 .text.nx_open  0x000000000d0097da       0x1a ../../spresense-exported-sdk/nuttx/libs/libnuttx.a(fs-fs_open.o)
                0x000000000d0097da                nx_open
 .text.open     0x000000000d0097f4       0x2c ../../spresense-exported-sdk/nuttx/libs/libnuttx.a(fs-fs_open.o)
                0x000000000d0097f4                open
 .text          0x000000000d009820        0x0 ../../spresense-exported-sdk/nuttx/libs/libnuttx.a(fs-fs_procfs.o)
 .text.procfs_enum
                0x000000000d009820       0x12 ../../spresense-exported-sdk/nuttx/libs/libnuttx.a(fs-fs_procfs.o)
 .text.procfs_read
                0x000000000d009832        0xa ../../spresense-exported-sdk/nuttx/libs/libnuttx.a(fs-fs_procfs.o)
 .text.procfs_write
                0x000000000d00983c       0x10 ../../spresense-exported-sdk/nuttx/libs/libnuttx.a(fs-fs_procfs.o)
 .text.procfs_ioctl
                0x000000000d00984c        0x6 ../../spresense-exported-sdk/nuttx/libs/libnuttx.a(fs-fs_procfs.o)
 .text.procfs_dup
                0x000000000d009852        0xa ../../spresense-exported-sdk/nuttx/libs/libnuttx.a(fs-fs_procfs.o)
 .text.procfs_rewinddir
                0x000000000d00985c       0x16 ../../spresense-exported-sdk/nuttx/libs/libnuttx.a(fs-fs_procfs.o)
 .text.procfs_unbind
                0x000000000d009872        0x4 ../../spresense-exported-sdk/nuttx/libs/libnuttx.a(fs-fs_procfs.o)
 *fill*         0x000000000d009876        0x2 
 .text.procfs_statfs
                0x000000000d009878       0x28 ../../spresense-exported-sdk/nuttx/libs/libnuttx.a(fs-fs_procfs.o)
 .text.procfs_fstat
                0x000000000d0098a0       0x28 ../../spresense-exported-sdk/nuttx/libs/libnuttx.a(fs-fs_procfs.o)
 .text.procfs_open
                0x000000000d0098c8       0x6c ../../spresense-exported-sdk/nuttx/libs/libnuttx.a(fs-fs_procfs.o)
 .text.procfs_readdir
                0x000000000d009934      0x190 ../../spresense-exported-sdk/nuttx/libs/libnuttx.a(fs-fs_procfs.o)
 .text.procfs_closedir
                0x000000000d009ac4       0x12 ../../spresense-exported-sdk/nuttx/libs/libnuttx.a(fs-fs_procfs.o)
 .text.procfs_close
                0x000000000d009ad6       0x10 ../../spresense-exported-sdk/nuttx/libs/libnuttx.a(fs-fs_procfs.o)
 *fill*         0x000000000d009ae6        0x2 
 .text.procfs_opendir
                0x000000000d009ae8       0xd8 ../../spresense-exported-sdk/nuttx/libs/libnuttx.a(fs-fs_procfs.o)
 .text.procfs_stat
                0x000000000d009bc0       0x94 ../../spresense-exported-sdk/nuttx/libs/libnuttx.a(fs-fs_procfs.o)
 .text.procfs_initialize.part.0
                0x000000000d009c54       0x34 ../../spresense-exported-sdk/nuttx/libs/libnuttx.a(fs-fs_procfs.o)
 .text.procfs_bind
                0x000000000d009c88       0x14 ../../spresense-exported-sdk/nuttx/libs/libnuttx.a(fs-fs_procfs.o)
 .text.procfs_register
                0x000000000d009c9c       0x60 ../../spresense-exported-sdk/nuttx/libs/libnuttx.a(fs-fs_procfs.o)
                0x000000000d009c9c                procfs_register
 .text          0x000000000d009cfc        0x0 ../../spresense-exported-sdk/nuttx/libs/libnuttx.a(fs-fs_procfsproc.o)
 .text.proc_rewinddir
                0x000000000d009cfc        0x8 ../../spresense-exported-sdk/nuttx/libs/libnuttx.a(fs-fs_procfsproc.o)
 .text.proc_findnode
                0x000000000d009d04       0x28 ../../spresense-exported-sdk/nuttx/libs/libnuttx.a(fs-fs_procfsproc.o)
 .text.proc_stat
                0x000000000d009d2c       0x8c ../../spresense-exported-sdk/nuttx/libs/libnuttx.a(fs-fs_procfsproc.o)
 .text.proc_readdir
                0x000000000d009db8       0x54 ../../spresense-exported-sdk/nuttx/libs/libnuttx.a(fs-fs_procfsproc.o)
 .text.proc_closedir
                0x000000000d009e0c       0x12 ../../spresense-exported-sdk/nuttx/libs/libnuttx.a(fs-fs_procfsproc.o)
 .text.proc_close
                0x000000000d009e1e       0x10 ../../spresense-exported-sdk/nuttx/libs/libnuttx.a(fs-fs_procfsproc.o)
 *fill*         0x000000000d009e2e        0x2 
 .text.proc_opendir
                0x000000000d009e30       0xbc ../../spresense-exported-sdk/nuttx/libs/libnuttx.a(fs-fs_procfsproc.o)
 .text.proc_open
                0x000000000d009eec       0x94 ../../spresense-exported-sdk/nuttx/libs/libnuttx.a(fs-fs_procfsproc.o)
 .text.proc_dup
                0x000000000d009f80       0x28 ../../spresense-exported-sdk/nuttx/libs/libnuttx.a(fs-fs_procfsproc.o)
 .text.proc_read
                0x000000000d009fa8      0x66c ../../spresense-exported-sdk/nuttx/libs/libnuttx.a(fs-fs_procfsproc.o)
 .text          0x000000000d00a614        0x0 ../../spresense-exported-sdk/nuttx/libs/libnuttx.a(fs-fs_procfsuptime.o)
 .text.uptime_stat
                0x000000000d00a614       0x2c ../../spresense-exported-sdk/nuttx/libs/libnuttx.a(fs-fs_procfsuptime.o)
 .text.uptime_dup
                0x000000000d00a640       0x28 ../../spresense-exported-sdk/nuttx/libs/libnuttx.a(fs-fs_procfsuptime.o)
 .text.uptime_read
                0x000000000d00a668       0x64 ../../spresense-exported-sdk/nuttx/libs/libnuttx.a(fs-fs_procfsuptime.o)
 .text.uptime_close
                0x000000000d00a6cc       0x10 ../../spresense-exported-sdk/nuttx/libs/libnuttx.a(fs-fs_procfsuptime.o)
 .text.uptime_open
                0x000000000d00a6dc       0x3c ../../spresense-exported-sdk/nuttx/libs/libnuttx.a(fs-fs_procfsuptime.o)
 .text          0x000000000d00a718        0x0 ../../spresense-exported-sdk/nuttx/libs/libnuttx.a(fs-fs_procfsutil.o)
 .text.procfs_memcpy
                0x000000000d00a718       0x2e ../../spresense-exported-sdk/nuttx/libs/libnuttx.a(fs-fs_procfsutil.o)
                0x000000000d00a718                procfs_memcpy
 .text          0x000000000d00a746        0x0 ../../spresense-exported-sdk/nuttx/libs/libnuttx.a(fs-fs_write.o)
 .text.file_write
                0x000000000d00a746       0x24 ../../spresense-exported-sdk/nuttx/libs/libnuttx.a(fs-fs_write.o)
                0x000000000d00a746                file_write
 .text.nx_write
                0x000000000d00a76a       0x32 ../../spresense-exported-sdk/nuttx/libs/libnuttx.a(fs-fs_write.o)
                0x000000000d00a76a                nx_write
 .text.write    0x000000000d00a79c       0x1a ../../spresense-exported-sdk/nuttx/libs/libnuttx.a(fs-fs_write.o)
                0x000000000d00a79c                write
 .text          0x000000000d00a7b6        0x0 ../../spresense-exported-sdk/nuttx/libs/libnuttx.a(fs-smartfs_procfs.o)
 *fill*         0x000000000d00a7b6        0x2 
 .text.smartfs_read
                0x000000000d00a7b8       0x38 ../../spresense-exported-sdk/nuttx/libs/libnuttx.a(fs-smartfs_procfs.o)
 .text.smartfs_write
                0x000000000d00a7f0       0x38 ../../spresense-exported-sdk/nuttx/libs/libnuttx.a(fs-smartfs_procfs.o)
 .text.smartfs_rewinddir
                0x000000000d00a828        0x8 ../../spresense-exported-sdk/nuttx/libs/libnuttx.a(fs-smartfs_procfs.o)
 .text.smartfs_status_read
                0x000000000d00a830       0x94 ../../spresense-exported-sdk/nuttx/libs/libnuttx.a(fs-smartfs_procfs.o)
 .text.smartfs_debug_write
                0x000000000d00a8c4       0x30 ../../spresense-exported-sdk/nuttx/libs/libnuttx.a(fs-smartfs_procfs.o)
 .text.smartfs_find_dirref
                0x000000000d00a8f4       0xd8 ../../spresense-exported-sdk/nuttx/libs/libnuttx.a(fs-smartfs_procfs.o)
 .text.smartfs_stat
                0x000000000d00a9cc       0x5c ../../spresense-exported-sdk/nuttx/libs/libnuttx.a(fs-smartfs_procfs.o)
 .text.smartfs_readdir
                0x000000000d00aa28       0x8c ../../spresense-exported-sdk/nuttx/libs/libnuttx.a(fs-smartfs_procfs.o)
 .text.smartfs_closedir
                0x000000000d00aab4       0x12 ../../spresense-exported-sdk/nuttx/libs/libnuttx.a(fs-smartfs_procfs.o)
 .text.smartfs_close
                0x000000000d00aac6       0x10 ../../spresense-exported-sdk/nuttx/libs/libnuttx.a(fs-smartfs_procfs.o)
 .text.smartfs_opendir
                0x000000000d00aad6       0x30 ../../spresense-exported-sdk/nuttx/libs/libnuttx.a(fs-smartfs_procfs.o)
 .text.smartfs_open
                0x000000000d00ab06       0x36 ../../spresense-exported-sdk/nuttx/libs/libnuttx.a(fs-smartfs_procfs.o)
 .text.smartfs_dup
                0x000000000d00ab3c       0x28 ../../spresense-exported-sdk/nuttx/libs/libnuttx.a(fs-smartfs_procfs.o)
 .text          0x000000000d00ab64        0x0 ../../spresense-exported-sdk/nuttx/libs/libnuttx.a(fs-smartfs_utils.o)
 .text.smartfs_semtake
                0x000000000d00ab64       0x14 ../../spresense-exported-sdk/nuttx/libs/libnuttx.a(fs-smartfs_utils.o)
                0x000000000d00ab64                smartfs_semtake
 .text.smartfs_semgive
                0x000000000d00ab78        0x6 ../../spresense-exported-sdk/nuttx/libs/libnuttx.a(fs-smartfs_utils.o)
                0x000000000d00ab78                smartfs_semgive
 .text.smartfs_rdle16
                0x000000000d00ab7e        0xa ../../spresense-exported-sdk/nuttx/libs/libnuttx.a(fs-smartfs_utils.o)
                0x000000000d00ab7e                smartfs_rdle16
 .text.smartfs_wrle16
                0x000000000d00ab88        0x8 ../../spresense-exported-sdk/nuttx/libs/libnuttx.a(fs-smartfs_utils.o)
                0x000000000d00ab88                smartfs_wrle16
 .text.smartfs_rdle32
                0x000000000d00ab90       0x16 ../../spresense-exported-sdk/nuttx/libs/libnuttx.a(fs-smartfs_utils.o)
                0x000000000d00ab90                smartfs_rdle32
 .text.smartfs_wrle32
                0x000000000d00aba6       0x12 ../../spresense-exported-sdk/nuttx/libs/libnuttx.a(fs-smartfs_utils.o)
                0x000000000d00aba6                smartfs_wrle32
 .text.smartfs_mount
                0x000000000d00abb8       0xb0 ../../spresense-exported-sdk/nuttx/libs/libnuttx.a(fs-smartfs_utils.o)
                0x000000000d00abb8                smartfs_mount
 .text.smartfs_unmount
                0x000000000d00ac68       0x70 ../../spresense-exported-sdk/nuttx/libs/libnuttx.a(fs-smartfs_utils.o)
                0x000000000d00ac68                smartfs_unmount
 .text.smartfs_finddirentry
                0x000000000d00acd8      0x2c4 ../../spresense-exported-sdk/nuttx/libs/libnuttx.a(fs-smartfs_utils.o)
                0x000000000d00acd8                smartfs_finddirentry
 .text.smartfs_createentry
                0x000000000d00af9c      0x23c ../../spresense-exported-sdk/nuttx/libs/libnuttx.a(fs-smartfs_utils.o)
                0x000000000d00af9c                smartfs_createentry
 .text.smartfs_deleteentry
                0x000000000d00b1d8      0x19c ../../spresense-exported-sdk/nuttx/libs/libnuttx.a(fs-smartfs_utils.o)
                0x000000000d00b1d8                smartfs_deleteentry
 .text.smartfs_countdirentries
                0x000000000d00b374       0x8a ../../spresense-exported-sdk/nuttx/libs/libnuttx.a(fs-smartfs_utils.o)
                0x000000000d00b374                smartfs_countdirentries
 .text.smartfs_sync_internal
                0x000000000d00b3fe       0x62 ../../spresense-exported-sdk/nuttx/libs/libnuttx.a(fs-smartfs_utils.o)
                0x000000000d00b3fe                smartfs_sync_internal
 .text.smartfs_seek_internal
                0x000000000d00b460      0x100 ../../spresense-exported-sdk/nuttx/libs/libnuttx.a(fs-smartfs_utils.o)
                0x000000000d00b460                smartfs_seek_internal
 .text.smartfs_shrinkfile
                0x000000000d00b560      0x12a ../../spresense-exported-sdk/nuttx/libs/libnuttx.a(fs-smartfs_utils.o)
                0x000000000d00b560                smartfs_shrinkfile
 .text.smartfs_extendfile
                0x000000000d00b68a       0xc2 ../../spresense-exported-sdk/nuttx/libs/libnuttx.a(fs-smartfs_utils.o)
                0x000000000d00b68a                smartfs_extendfile
 .text.smartfs_get_first_mount
                0x000000000d00b74c        0xc ../../spresense-exported-sdk/nuttx/libs/libnuttx.a(fs-smartfs_utils.o)
                0x000000000d00b74c                smartfs_get_first_mount
 .text          0x000000000d00b758        0x0 ../../spresense-exported-sdk/nuttx/libs/libnuttx.a(board-cxd56_crashdump.o)
 .text.board_crashdump
                0x000000000d00b758      0x164 ../../spresense-exported-sdk/nuttx/libs/libnuttx.a(board-cxd56_crashdump.o)
                0x000000000d00b758                board_crashdump
 .text          0x000000000d00b8bc        0x0 ../../spresense-exported-sdk/nuttx/libs/libnuttx.a(sched-clock_abstime2ticks.o)
 .text.clock_abstime2ticks
                0x000000000d00b8bc       0x58 ../../spresense-exported-sdk/nuttx/libs/libnuttx.a(sched-clock_abstime2ticks.o)
                0x000000000d00b8bc                clock_abstime2ticks
 .text          0x000000000d00b914        0x0 ../../spresense-exported-sdk/nuttx/libs/libnuttx.a(sched-clock_time2ticks.o)
 .text.clock_time2ticks
                0x000000000d00b914       0x38 ../../spresense-exported-sdk/nuttx/libs/libnuttx.a(sched-clock_time2ticks.o)
                0x000000000d00b914                clock_time2ticks
 .text          0x000000000d00b94c        0x0 ../../spresense-exported-sdk/nuttx/libs/libnuttx.a(sched-env_dup.o)
 .text.env_dup  0x000000000d00b94c       0x5c ../../spresense-exported-sdk/nuttx/libs/libnuttx.a(sched-env_dup.o)
                0x000000000d00b94c                env_dup
 .text          0x000000000d00b9a8        0x0 ../../spresense-exported-sdk/nuttx/libs/libnuttx.a(sched-exit.o)
 .text.exit     0x000000000d00b9a8       0x1c ../../spresense-exported-sdk/nuttx/libs/libnuttx.a(sched-exit.o)
                0x000000000d00b9a8                exit
 .text          0x000000000d00b9c4        0x0 ../../spresense-exported-sdk/nuttx/libs/libnuttx.a(sched-group_childstatus.o)
 .text.task_initialize
                0x000000000d00b9c4       0x20 ../../spresense-exported-sdk/nuttx/libs/libnuttx.a(sched-group_childstatus.o)
                0x000000000d00b9c4                task_initialize
 .text.group_allocchild
                0x000000000d00b9e4       0x18 ../../spresense-exported-sdk/nuttx/libs/libnuttx.a(sched-group_childstatus.o)
                0x000000000d00b9e4                group_allocchild
 .text.group_freechild
                0x000000000d00b9fc       0x14 ../../spresense-exported-sdk/nuttx/libs/libnuttx.a(sched-group_childstatus.o)
                0x000000000d00b9fc                group_freechild
 .text.group_addchild
                0x000000000d00ba10        0x8 ../../spresense-exported-sdk/nuttx/libs/libnuttx.a(sched-group_childstatus.o)
                0x000000000d00ba10                group_addchild
 .text.group_findchild
                0x000000000d00ba18       0x12 ../../spresense-exported-sdk/nuttx/libs/libnuttx.a(sched-group_childstatus.o)
                0x000000000d00ba18                group_findchild
 .text.group_exitchild
                0x000000000d00ba2a       0x10 ../../spresense-exported-sdk/nuttx/libs/libnuttx.a(sched-group_childstatus.o)
                0x000000000d00ba2a                group_exitchild
 .text.group_removechild
                0x000000000d00ba3a       0x2c ../../spresense-exported-sdk/nuttx/libs/libnuttx.a(sched-group_childstatus.o)
                0x000000000d00ba3a                group_removechild
 .text.group_removechildren
                0x000000000d00ba66       0x16 ../../spresense-exported-sdk/nuttx/libs/libnuttx.a(sched-group_childstatus.o)
                0x000000000d00ba66                group_removechildren
 .text          0x000000000d00ba7c        0x0 ../../spresense-exported-sdk/nuttx/libs/libnuttx.a(sched-group_setuptaskfiles.o)
 .text.group_setuptaskfiles
                0x000000000d00ba7c       0x48 ../../spresense-exported-sdk/nuttx/libs/libnuttx.a(sched-group_setuptaskfiles.o)
                0x000000000d00ba7c                group_setuptaskfiles
 .text          0x000000000d00bac4        0x0 ../../spresense-exported-sdk/nuttx/libs/libnuttx.a(sched-irq_dispatch.o)
 .text.irq_dispatch
                0x000000000d00bac4       0x3c ../../spresense-exported-sdk/nuttx/libs/libnuttx.a(sched-irq_dispatch.o)
                0x000000000d00bac4                irq_dispatch
 .text          0x000000000d00bb00        0x0 ../../spresense-exported-sdk/nuttx/libs/libnuttx.a(sched-kwork_hpthread.o)
 .text.work_hpthread
                0x000000000d00bb00       0x14 ../../spresense-exported-sdk/nuttx/libs/libnuttx.a(sched-kwork_hpthread.o)
 .text.work_hpstart
                0x000000000d00bb14       0x48 ../../spresense-exported-sdk/nuttx/libs/libnuttx.a(sched-kwork_hpthread.o)
                0x000000000d00bb14                work_hpstart
 .text          0x000000000d00bb5c        0x0 ../../spresense-exported-sdk/nuttx/libs/libnuttx.a(sched-kwork_lpthread.o)
 .text.work_lpthread
                0x000000000d00bb5c       0x4c ../../spresense-exported-sdk/nuttx/libs/libnuttx.a(sched-kwork_lpthread.o)
 .text.work_lpstart
                0x000000000d00bba8       0x64 ../../spresense-exported-sdk/nuttx/libs/libnuttx.a(sched-kwork_lpthread.o)
                0x000000000d00bba8                work_lpstart
 .text          0x000000000d00bc0c        0x0 ../../spresense-exported-sdk/nuttx/libs/libnuttx.a(sched-kwork_process.o)
 .text.work_process
                0x000000000d00bc0c       0xcc ../../spresense-exported-sdk/nuttx/libs/libnuttx.a(sched-kwork_process.o)
                0x000000000d00bc0c                work_process
 .text          0x000000000d00bcd8        0x0 ../../spresense-exported-sdk/nuttx/libs/libnuttx.a(sched-kwork_signal.o)
 .text.work_signal
                0x000000000d00bcd8       0x48 ../../spresense-exported-sdk/nuttx/libs/libnuttx.a(sched-kwork_signal.o)
                0x000000000d00bcd8                work_signal
 .text          0x000000000d00bd20        0x0 ../../spresense-exported-sdk/nuttx/libs/libnuttx.a(sched-mq_msgfree.o)
 .text.nxmq_free_msg
                0x000000000d00bd20       0x44 ../../spresense-exported-sdk/nuttx/libs/libnuttx.a(sched-mq_msgfree.o)
                0x000000000d00bd20                nxmq_free_msg
 .text          0x000000000d00bd64        0x0 ../../spresense-exported-sdk/nuttx/libs/libnuttx.a(sched-mq_rcvinternal.o)
 .text.nxmq_verify_receive
                0x000000000d00bd64       0x26 ../../spresense-exported-sdk/nuttx/libs/libnuttx.a(sched-mq_rcvinternal.o)
                0x000000000d00bd64                nxmq_verify_receive
 *fill*         0x000000000d00bd8a        0x2 
 .text.nxmq_wait_receive
                0x000000000d00bd8c       0x68 ../../spresense-exported-sdk/nuttx/libs/libnuttx.a(sched-mq_rcvinternal.o)
                0x000000000d00bd8c                nxmq_wait_receive
 .text.nxmq_do_receive
                0x000000000d00bdf4       0x64 ../../spresense-exported-sdk/nuttx/libs/libnuttx.a(sched-mq_rcvinternal.o)
                0x000000000d00bdf4                nxmq_do_receive
 .text          0x000000000d00be58        0x0 ../../spresense-exported-sdk/nuttx/libs/libnuttx.a(sched-sched_addblocked.o)
 .text.sched_addblocked
                0x000000000d00be58       0x28 ../../spresense-exported-sdk/nuttx/libs/libnuttx.a(sched-sched_addblocked.o)
                0x000000000d00be58                sched_addblocked
 .text          0x000000000d00be80        0x0 ../../spresense-exported-sdk/nuttx/libs/libnuttx.a(sched-sched_addprioritized.o)
 .text.sched_addprioritized
                0x000000000d00be80       0x48 ../../spresense-exported-sdk/nuttx/libs/libnuttx.a(sched-sched_addprioritized.o)
                0x000000000d00be80                sched_addprioritized
 .text          0x000000000d00bec8        0x0 ../../spresense-exported-sdk/nuttx/libs/libnuttx.a(sched-sched_addreadytorun.o)
 .text.sched_addreadytorun
                0x000000000d00bec8       0x4c ../../spresense-exported-sdk/nuttx/libs/libnuttx.a(sched-sched_addreadytorun.o)
                0x000000000d00bec8                sched_addreadytorun
 .text          0x000000000d00bf14        0x0 ../../spresense-exported-sdk/nuttx/libs/libnuttx.a(sched-sched_foreach.o)
 .text.sched_foreach
                0x000000000d00bf14       0x38 ../../spresense-exported-sdk/nuttx/libs/libnuttx.a(sched-sched_foreach.o)
                0x000000000d00bf14                sched_foreach
 .text          0x000000000d00bf4c        0x0 ../../spresense-exported-sdk/nuttx/libs/libnuttx.a(sched-sched_garbage.o)
 .text.sched_garbage_collection
                0x000000000d00bf4c       0x30 ../../spresense-exported-sdk/nuttx/libs/libnuttx.a(sched-sched_garbage.o)
                0x000000000d00bf4c                sched_garbage_collection
 .text.sched_have_garbage
                0x000000000d00bf7c       0x10 ../../spresense-exported-sdk/nuttx/libs/libnuttx.a(sched-sched_garbage.o)
                0x000000000d00bf7c                sched_have_garbage
 .text          0x000000000d00bf8c        0x0 ../../spresense-exported-sdk/nuttx/libs/libnuttx.a(sched-sched_getfiles.o)
 .text.sched_getfiles
                0x000000000d00bf8c       0x10 ../../spresense-exported-sdk/nuttx/libs/libnuttx.a(sched-sched_getfiles.o)
                0x000000000d00bf8c                sched_getfiles
 .text          0x000000000d00bf9c        0x0 ../../spresense-exported-sdk/nuttx/libs/libnuttx.a(sched-sched_getsockets.o)
 .text.sched_getsockets
                0x000000000d00bf9c       0x10 ../../spresense-exported-sdk/nuttx/libs/libnuttx.a(sched-sched_getsockets.o)
                0x000000000d00bf9c                sched_getsockets
 .text          0x000000000d00bfac        0x0 ../../spresense-exported-sdk/nuttx/libs/libnuttx.a(sched-sched_gettcb.o)
 .text.sched_gettcb
                0x000000000d00bfac       0x38 ../../spresense-exported-sdk/nuttx/libs/libnuttx.a(sched-sched_gettcb.o)
                0x000000000d00bfac                sched_gettcb
 .text          0x000000000d00bfe4        0x0 ../../spresense-exported-sdk/nuttx/libs/libnuttx.a(sched-sched_idletask.o)
 .text.sched_idletask
                0x000000000d00bfe4       0x18 ../../spresense-exported-sdk/nuttx/libs/libnuttx.a(sched-sched_idletask.o)
                0x000000000d00bfe4                sched_idletask
 .text          0x000000000d00bffc        0x0 ../../spresense-exported-sdk/nuttx/libs/libnuttx.a(sched-sched_mergepending.o)
 .text.sched_mergepending
                0x000000000d00bffc       0x58 ../../spresense-exported-sdk/nuttx/libs/libnuttx.a(sched-sched_mergepending.o)
                0x000000000d00bffc                sched_mergepending
 .text          0x000000000d00c054        0x0 ../../spresense-exported-sdk/nuttx/libs/libnuttx.a(sched-sched_processtimer.o)
 .text.nxsched_process_timer
                0x000000000d00c054       0x30 ../../spresense-exported-sdk/nuttx/libs/libnuttx.a(sched-sched_processtimer.o)
                0x000000000d00c054                nxsched_process_timer
 .text          0x000000000d00c084        0x0 ../../spresense-exported-sdk/nuttx/libs/libnuttx.a(sched-sched_releasetcb.o)
 .text.sched_releasetcb
                0x000000000d00c084       0x58 ../../spresense-exported-sdk/nuttx/libs/libnuttx.a(sched-sched_releasetcb.o)
                0x000000000d00c084                sched_releasetcb
 .text          0x000000000d00c0dc        0x0 ../../spresense-exported-sdk/nuttx/libs/libnuttx.a(sched-sched_removeblocked.o)
 .text.sched_removeblocked
                0x000000000d00c0dc       0x1c ../../spresense-exported-sdk/nuttx/libs/libnuttx.a(sched-sched_removeblocked.o)
                0x000000000d00c0dc                sched_removeblocked
 .text          0x000000000d00c0f8        0x0 ../../spresense-exported-sdk/nuttx/libs/libnuttx.a(sched-sched_removereadytorun.o)
 .text.sched_removereadytorun
                0x000000000d00c0f8       0x28 ../../spresense-exported-sdk/nuttx/libs/libnuttx.a(sched-sched_removereadytorun.o)
                0x000000000d00c0f8                sched_removereadytorun
 .text          0x000000000d00c120        0x0 ../../spresense-exported-sdk/nuttx/libs/libnuttx.a(sched-sched_resumescheduler.o)
 .text.sched_resume_scheduler
                0x000000000d00c120        0x6 ../../spresense-exported-sdk/nuttx/libs/libnuttx.a(sched-sched_resumescheduler.o)
                0x000000000d00c120                sched_resume_scheduler
 .text          0x000000000d00c126        0x0 ../../spresense-exported-sdk/nuttx/libs/libnuttx.a(sched-sched_roundrobin.o)
 .text.sched_roundrobin_process
                0x000000000d00c126       0x38 ../../spresense-exported-sdk/nuttx/libs/libnuttx.a(sched-sched_roundrobin.o)
                0x000000000d00c126                sched_roundrobin_process
 .text          0x000000000d00c15e        0x0 ../../spresense-exported-sdk/nuttx/libs/libnuttx.a(sched-sem_reset.o)
 .text.nxsem_reset
                0x000000000d00c15e       0x42 ../../spresense-exported-sdk/nuttx/libs/libnuttx.a(sched-sem_reset.o)
                0x000000000d00c15e                nxsem_reset
 .text          0x000000000d00c1a0        0x0 ../../spresense-exported-sdk/nuttx/libs/libnuttx.a(sched-sig_dispatch.o)
 .text.nxsig_tcbdispatch
                0x000000000d00c1a0      0x1b8 ../../spresense-exported-sdk/nuttx/libs/libnuttx.a(sched-sig_dispatch.o)
                0x000000000d00c1a0                nxsig_tcbdispatch
 .text.nxsig_dispatch
                0x000000000d00c358       0x28 ../../spresense-exported-sdk/nuttx/libs/libnuttx.a(sched-sig_dispatch.o)
                0x000000000d00c358                nxsig_dispatch
 .text          0x000000000d00c380        0x0 ../../spresense-exported-sdk/nuttx/libs/libnuttx.a(sched-sig_findaction.o)
 .text.nxsig_find_action
                0x000000000d00c380       0x22 ../../spresense-exported-sdk/nuttx/libs/libnuttx.a(sched-sig_findaction.o)
                0x000000000d00c380                nxsig_find_action
 .text          0x000000000d00c3a2        0x0 ../../spresense-exported-sdk/nuttx/libs/libnuttx.a(sched-sig_initialize.o)
 *fill*         0x000000000d00c3a2        0x2 
 .text.nxsig_alloc_actionblock
                0x000000000d00c3a4       0x28 ../../spresense-exported-sdk/nuttx/libs/libnuttx.a(sched-sig_initialize.o)
                0x000000000d00c3a4                nxsig_alloc_actionblock
 .text.nxsig_initialize
                0x000000000d00c3cc       0xc8 ../../spresense-exported-sdk/nuttx/libs/libnuttx.a(sched-sig_initialize.o)
                0x000000000d00c3cc                nxsig_initialize
 .text          0x000000000d00c494        0x0 ../../spresense-exported-sdk/nuttx/libs/libnuttx.a(sched-sig_kill.o)
 .text.nxsig_kill
                0x000000000d00c494       0x54 ../../spresense-exported-sdk/nuttx/libs/libnuttx.a(sched-sig_kill.o)
                0x000000000d00c494                nxsig_kill
 .text.kill     0x000000000d00c4e8       0x1a ../../spresense-exported-sdk/nuttx/libs/libnuttx.a(sched-sig_kill.o)
                0x000000000d00c4e8                kill
 .text          0x000000000d00c502        0x0 ../../spresense-exported-sdk/nuttx/libs/libnuttx.a(sched-sig_procmask.o)
 *fill*         0x000000000d00c502        0x2 
 .text.nxsig_procmask
                0x000000000d00c504       0x64 ../../spresense-exported-sdk/nuttx/libs/libnuttx.a(sched-sig_procmask.o)
                0x000000000d00c504                nxsig_procmask
 .text.sigprocmask
                0x000000000d00c568       0x1a ../../spresense-exported-sdk/nuttx/libs/libnuttx.a(sched-sig_procmask.o)
                0x000000000d00c568                sigprocmask
 .text          0x000000000d00c582        0x0 ../../spresense-exported-sdk/nuttx/libs/libnuttx.a(sched-sig_queue.o)
 *fill*         0x000000000d00c582        0x2 
 .text.nxsig_queue
                0x000000000d00c584       0x48 ../../spresense-exported-sdk/nuttx/libs/libnuttx.a(sched-sig_queue.o)
                0x000000000d00c584                nxsig_queue
 .text.sigqueue
                0x000000000d00c5cc       0x1a ../../spresense-exported-sdk/nuttx/libs/libnuttx.a(sched-sig_queue.o)
                0x000000000d00c5cc                sigqueue
 .text          0x000000000d00c5e6        0x0 ../../spresense-exported-sdk/nuttx/libs/libnuttx.a(sched-sig_timedwait.o)
 .text.nxsig_timeout
                0x000000000d00c5e6       0x26 ../../spresense-exported-sdk/nuttx/libs/libnuttx.a(sched-sig_timedwait.o)
 *fill*         0x000000000d00c60c        0x4 
 .text.nxsig_timedwait
                0x000000000d00c610      0x108 ../../spresense-exported-sdk/nuttx/libs/libnuttx.a(sched-sig_timedwait.o)
                0x000000000d00c610                nxsig_timedwait
 .text.sigtimedwait
                0x000000000d00c718       0x1a ../../spresense-exported-sdk/nuttx/libs/libnuttx.a(sched-sig_timedwait.o)
                0x000000000d00c718                sigtimedwait
 .text          0x000000000d00c732        0x0 ../../spresense-exported-sdk/nuttx/libs/libnuttx.a(sched-sig_unmaskpendingsignal.o)
 *fill*         0x000000000d00c732        0x2 
 .text.nxsig_unmask_pendingsignal
                0x000000000d00c734       0x68 ../../spresense-exported-sdk/nuttx/libs/libnuttx.a(sched-sig_unmaskpendingsignal.o)
                0x000000000d00c734                nxsig_unmask_pendingsignal
 .text          0x000000000d00c79c        0x0 ../../spresense-exported-sdk/nuttx/libs/libnuttx.a(sched-sig_usleep.o)
 .text.nxsig_usleep
                0x000000000d00c79c       0x2c ../../spresense-exported-sdk/nuttx/libs/libnuttx.a(sched-sig_usleep.o)
                0x000000000d00c79c                nxsig_usleep
 .text          0x000000000d00c7c8        0x0 ../../spresense-exported-sdk/nuttx/libs/libnuttx.a(sched-task_activate.o)
 .text.task_activate
                0x000000000d00c7c8       0x1a ../../spresense-exported-sdk/nuttx/libs/libnuttx.a(sched-task_activate.o)
                0x000000000d00c7c8                task_activate
 .text          0x000000000d00c7e2        0x0 ../../spresense-exported-sdk/nuttx/libs/libnuttx.a(sched-task_exithook.o)
 .text.nxtask_exithook
                0x000000000d00c7e2       0xc8 ../../spresense-exported-sdk/nuttx/libs/libnuttx.a(sched-task_exithook.o)
                0x000000000d00c7e2                nxtask_exithook
 .text          0x000000000d00c8aa        0x0 ../../spresense-exported-sdk/nuttx/libs/libnuttx.a(sched-task_recover.o)
 .text.nxtask_recover
                0x000000000d00c8aa       0x18 ../../spresense-exported-sdk/nuttx/libs/libnuttx.a(sched-task_recover.o)
                0x000000000d00c8aa                nxtask_recover
 .text          0x000000000d00c8c2        0x0 ../../spresense-exported-sdk/nuttx/libs/libnuttx.a(sched-wd_recover.o)
 .text.wd_recover
                0x000000000d00c8c2       0x28 ../../spresense-exported-sdk/nuttx/libs/libnuttx.a(sched-wd_recover.o)
                0x000000000d00c8c2                wd_recover
 .text          0x000000000d00c8ea        0x0 ../../spresense-exported-sdk/nuttx/libs/libnuttx.a(drivers-syslog_channel.o)
 .text.syslog_default_flush
                0x000000000d00c8ea        0x4 ../../spresense-exported-sdk/nuttx/libs/libnuttx.a(drivers-syslog_channel.o)
 *fill*         0x000000000d00c8ee        0x2 
 .text.syslog_channel
                0x000000000d00c8f0       0x14 ../../spresense-exported-sdk/nuttx/libs/libnuttx.a(drivers-syslog_channel.o)
                0x000000000d00c8f0                syslog_channel
 .text          0x000000000d00c904        0x0 ../../spresense-exported-sdk/nuttx/libs/libnuttx.a(drivers-syslog_flush.o)
 .text.syslog_flush
                0x000000000d00c904        0xc ../../spresense-exported-sdk/nuttx/libs/libnuttx.a(drivers-syslog_flush.o)
                0x000000000d00c904                syslog_flush
 .text          0x000000000d00c910        0x0 ../../spresense-exported-sdk/nuttx/libs/libnuttx.a(c-lib_dtoa_data.o)
 .text          0x000000000d00c910        0x0 ../../spresense-exported-sdk/nuttx/libs/libnuttx.a(c-lib_fseek.o)
 .text.fseek    0x000000000d00c910       0x3a ../../spresense-exported-sdk/nuttx/libs/libnuttx.a(c-lib_fseek.o)
                0x000000000d00c910                fseek
 .text          0x000000000d00c94a        0x0 ../../spresense-exported-sdk/nuttx/libs/libnuttx.a(c-lib_libflushall.o)
 .text.lib_flushall
                0x000000000d00c94a       0x42 ../../spresense-exported-sdk/nuttx/libs/libnuttx.a(c-lib_libflushall.o)
                0x000000000d00c94a                lib_flushall
 .text          0x000000000d00c98c        0x0 ../../spresense-exported-sdk/nuttx/libs/libnuttx.a(c-lib_match.o)
 .text.match_one
                0x000000000d00c98c       0xdc ../../spresense-exported-sdk/nuttx/libs/libnuttx.a(c-lib_match.o)
 .text.match    0x000000000d00ca68       0x3a ../../spresense-exported-sdk/nuttx/libs/libnuttx.a(c-lib_match.o)
                0x000000000d00ca68                match
 .text          0x000000000d00caa2        0x0 ../../spresense-exported-sdk/nuttx/libs/libnuttx.a(c-lib_memoutstream.o)
 .text.memoutstream_putc
                0x000000000d00caa2       0x1a ../../spresense-exported-sdk/nuttx/libs/libnuttx.a(c-lib_memoutstream.o)
 .text.lib_memoutstream
                0x000000000d00cabc       0x20 ../../spresense-exported-sdk/nuttx/libs/libnuttx.a(c-lib_memoutstream.o)
                0x000000000d00cabc                lib_memoutstream
 .text          0x000000000d00cadc        0x0 ../../spresense-exported-sdk/nuttx/libs/libnuttx.a(c-lib_nulloutstream.o)
 .text.nulloutstream_putc
                0x000000000d00cadc        0x8 ../../spresense-exported-sdk/nuttx/libs/libnuttx.a(c-lib_nulloutstream.o)
 .text.lib_nulloutstream
                0x000000000d00cae4       0x18 ../../spresense-exported-sdk/nuttx/libs/libnuttx.a(c-lib_nulloutstream.o)
                0x000000000d00cae4                lib_nulloutstream
 .text          0x000000000d00cafc        0x0 ../../spresense-exported-sdk/nuttx/libs/libnuttx.a(c-lib_strchr.o)
 .text.strchr   0x000000000d00cafc       0x18 ../../spresense-exported-sdk/nuttx/libs/libnuttx.a(c-lib_strchr.o)
                0x000000000d00cafc                strchr
 .text          0x000000000d00cb14        0x0 ../../spresense-exported-sdk/nuttx/libs/libnuttx.a(c-lib_strcmp.o)
 .text.strcmp   0x000000000d00cb14       0x18 ../../spresense-exported-sdk/nuttx/libs/libnuttx.a(c-lib_strcmp.o)
                0x000000000d00cb14                strcmp
 .text          0x000000000d00cb2c        0x0 ../../spresense-exported-sdk/nuttx/libs/libnuttx.a(c-lib_strcspn.o)
 .text.strcspn  0x000000000d00cb2c       0x1c ../../spresense-exported-sdk/nuttx/libs/libnuttx.a(c-lib_strcspn.o)
                0x000000000d00cb2c                strcspn
 .text          0x000000000d00cb48        0x0 ../../spresense-exported-sdk/nuttx/libs/libnuttx.a(c-lib_streamsem.o)
 .text.stream_semtake
                0x000000000d00cb48       0x10 ../../spresense-exported-sdk/nuttx/libs/libnuttx.a(c-lib_streamsem.o)
                0x000000000d00cb48                stream_semtake
 .text.stream_semgive
                0x000000000d00cb58        0x4 ../../spresense-exported-sdk/nuttx/libs/libnuttx.a(c-lib_streamsem.o)
                0x000000000d00cb58                stream_semgive
 .text          0x000000000d00cb5c        0x0 ../../spresense-exported-sdk/nuttx/libs/libnuttx.a(c-lib_strncmp.o)
 .text.strncmp  0x000000000d00cb5c       0x20 ../../spresense-exported-sdk/nuttx/libs/libnuttx.a(c-lib_strncmp.o)
                0x000000000d00cb5c                strncmp
 .text          0x000000000d00cb7c        0x0 ../../spresense-exported-sdk/nuttx/libs/libnuttx.a(c-lib_strtol.o)
 .text.strtol   0x000000000d00cb7c       0x74 ../../spresense-exported-sdk/nuttx/libs/libnuttx.a(c-lib_strtol.o)
                0x000000000d00cb7c                strtol
 .text          0x000000000d00cbf0        0x0 ../../spresense-exported-sdk/nuttx/libs/libnuttx.a(c-lib_strtoul.o)
 .text.strtoul  0x000000000d00cbf0       0xa2 ../../spresense-exported-sdk/nuttx/libs/libnuttx.a(c-lib_strtoul.o)
                0x000000000d00cbf0                strtoul
 .text          0x000000000d00cc92        0x0 ../../spresense-exported-sdk/nuttx/libs/libnuttx.a(c-lib_syslog.o)
 *fill*         0x000000000d00cc92        0x2 
 .text.vsyslog  0x000000000d00cc94       0x20 ../../spresense-exported-sdk/nuttx/libs/libnuttx.a(c-lib_syslog.o)
                0x000000000d00cc94                vsyslog
 .text.syslog   0x000000000d00ccb4       0x1a ../../spresense-exported-sdk/nuttx/libs/libnuttx.a(c-lib_syslog.o)
                0x000000000d00ccb4                syslog
 .text          0x000000000d00ccce        0x0 ../../spresense-exported-sdk/nuttx/libs/libnuttx.a(c-lib_time.o)
 .text.time     0x000000000d00ccce       0x1e ../../spresense-exported-sdk/nuttx/libs/libnuttx.a(c-lib_time.o)
                0x000000000d00ccce                time
 .text          0x000000000d00ccec        0x0 ../../spresense-exported-sdk/nuttx/libs/libnuttx.a(c-lib_wrflush.o)
 .text.lib_wrflush
                0x000000000d00ccec       0x14 ../../spresense-exported-sdk/nuttx/libs/libnuttx.a(c-lib_wrflush.o)
                0x000000000d00ccec                lib_wrflush
 .text          0x000000000d00cd00        0x0 ../../spresense-exported-sdk/nuttx/libs/libnuttx.a(c-sig_addset.o)
 .text.sigaddset
                0x000000000d00cd00       0x24 ../../spresense-exported-sdk/nuttx/libs/libnuttx.a(c-sig_addset.o)
                0x000000000d00cd00                sigaddset
 .text          0x000000000d00cd24        0x0 ../../spresense-exported-sdk/nuttx/libs/libnuttx.a(c-sig_delset.o)
 .text.sigdelset
                0x000000000d00cd24       0x26 ../../spresense-exported-sdk/nuttx/libs/libnuttx.a(c-sig_delset.o)
                0x000000000d00cd24                sigdelset
 .text          0x000000000d00cd4a        0x0 ../../spresense-exported-sdk/nuttx/libs/libnuttx.a(c-sig_emptyset.o)
 .text.sigemptyset
                0x000000000d00cd4a        0x8 ../../spresense-exported-sdk/nuttx/libs/libnuttx.a(c-sig_emptyset.o)
                0x000000000d00cd4a                sigemptyset
 .text          0x000000000d00cd52        0x0 ../../spresense-exported-sdk/nuttx/libs/libnuttx.a(c-sig_ismember.o)
 .text.sigismember
                0x000000000d00cd52       0x14 ../../spresense-exported-sdk/nuttx/libs/libnuttx.a(c-sig_ismember.o)
                0x000000000d00cd52                sigismember
 .text          0x000000000d00cd66        0x0 ../../spresense-exported-sdk/nuttx/libs/libnuttx.a(mm-mm_addfreechunk.o)
 .text.mm_addfreechunk
                0x000000000d00cd66       0x36 ../../spresense-exported-sdk/nuttx/libs/libnuttx.a(mm-mm_addfreechunk.o)
                0x000000000d00cd66                mm_addfreechunk
 .text          0x000000000d00cd9c        0x0 ../../spresense-exported-sdk/nuttx/libs/libnuttx.a(mm-mm_free.o)
 .text.mm_free  0x000000000d00cd9c       0x92 ../../spresense-exported-sdk/nuttx/libs/libnuttx.a(mm-mm_free.o)
                0x000000000d00cd9c                mm_free
 .text          0x000000000d00ce2e        0x0 ../../spresense-exported-sdk/nuttx/libs/libnuttx.a(mm-mm_malloc.o)
 .text.mm_malloc
                0x000000000d00ce2e       0x7c ../../spresense-exported-sdk/nuttx/libs/libnuttx.a(mm-mm_malloc.o)
                0x000000000d00ce2e                mm_malloc
 .text          0x000000000d00ceaa        0x0 ../../spresense-exported-sdk/nuttx/libs/libnuttx.a(mm-mm_size2ndx.o)
 .text.mm_size2ndx
                0x000000000d00ceaa       0x1a ../../spresense-exported-sdk/nuttx/libs/libnuttx.a(mm-mm_size2ndx.o)
                0x000000000d00ceaa                mm_size2ndx
 .text          0x000000000d00cec4        0x0 ../../spresense-exported-sdk/nuttx/libs/libnuttx.a(mm-mm_zalloc.o)
 .text.mm_zalloc
                0x000000000d00cec4       0x1a ../../spresense-exported-sdk/nuttx/libs/libnuttx.a(mm-mm_zalloc.o)
                0x000000000d00cec4                mm_zalloc
 .text          0x000000000d00cede        0x0 ../../spresense-exported-sdk/nuttx/libs/libnuttx.a(mm-umm_heapmember.o)
 *fill*         0x000000000d00cede        0x2 
 .text.umm_heapmember
                0x000000000d00cee0        0xc ../../spresense-exported-sdk/nuttx/libs/libnuttx.a(mm-umm_heapmember.o)
                0x000000000d00cee0                umm_heapmember
 .text          0x000000000d00ceec        0x0 ../../spresense-exported-sdk/nuttx/libs/libnuttx.a(mm-umm_realloc.o)
 .text.realloc  0x000000000d00ceec       0x10 ../../spresense-exported-sdk/nuttx/libs/libnuttx.a(mm-umm_realloc.o)
                0x000000000d00ceec                realloc
 .text          0x000000000d00cefc        0x0 ../../spresense-exported-sdk/nuttx/libs/libnuttx.a(arch-cxd56_backuplog.o)
 .text.up_backuplog_initialize
                0x000000000d00cefc       0x34 ../../spresense-exported-sdk/nuttx/libs/libnuttx.a(arch-cxd56_backuplog.o)
                0x000000000d00cefc                up_backuplog_initialize
 .text.up_backuplog_region
                0x000000000d00cf30       0x7c ../../spresense-exported-sdk/nuttx/libs/libnuttx.a(arch-cxd56_backuplog.o)
                0x000000000d00cf30                up_backuplog_region
 .text.up_backuplog_free
                0x000000000d00cfac       0xb8 ../../spresense-exported-sdk/nuttx/libs/libnuttx.a(arch-cxd56_backuplog.o)
                0x000000000d00cfac                up_backuplog_free
 .text.up_backuplog_alloc
                0x000000000d00d064       0xfc ../../spresense-exported-sdk/nuttx/libs/libnuttx.a(arch-cxd56_backuplog.o)
                0x000000000d00d064                up_backuplog_alloc
 .text.up_backuplog_entry
                0x000000000d00d160       0x84 ../../spresense-exported-sdk/nuttx/libs/libnuttx.a(arch-cxd56_backuplog.o)
                0x000000000d00d160                up_backuplog_entry
 .text          0x000000000d00d1e4        0x0 ../../spresense-exported-sdk/nuttx/libs/libnuttx.a(arch-cxd56_cpufifo.o)
 .text.cpufifo_reserve
                0x000000000d00d1e4       0x2c ../../spresense-exported-sdk/nuttx/libs/libnuttx.a(arch-cxd56_cpufifo.o)
 .text.cpufifo_txhandler
                0x000000000d00d210       0x44 ../../spresense-exported-sdk/nuttx/libs/libnuttx.a(arch-cxd56_cpufifo.o)
 .text.cxd56_cfpush
                0x000000000d00d254       0x58 ../../spresense-exported-sdk/nuttx/libs/libnuttx.a(arch-cxd56_cpufifo.o)
                0x000000000d00d254                cxd56_cfpush
 .text.cxd56_cfpull
                0x000000000d00d2ac       0x34 ../../spresense-exported-sdk/nuttx/libs/libnuttx.a(arch-cxd56_cpufifo.o)
                0x000000000d00d2ac                cxd56_cfpull
 .text.cpufifo_rxhandler
                0x000000000d00d2e0       0x28 ../../spresense-exported-sdk/nuttx/libs/libnuttx.a(arch-cxd56_cpufifo.o)
 .text.cxd56_cfregrxhandler
                0x000000000d00d308       0x28 ../../spresense-exported-sdk/nuttx/libs/libnuttx.a(arch-cxd56_cpufifo.o)
                0x000000000d00d308                cxd56_cfregrxhandler
 .text.cxd56_cfunregrxhandler
                0x000000000d00d330       0x1c ../../spresense-exported-sdk/nuttx/libs/libnuttx.a(arch-cxd56_cpufifo.o)
                0x000000000d00d330                cxd56_cfunregrxhandler
 .text.cxd56_cfinitialize
                0x000000000d00d34c       0x60 ../../spresense-exported-sdk/nuttx/libs/libnuttx.a(arch-cxd56_cpufifo.o)
                0x000000000d00d34c                cxd56_cfinitialize
 .text          0x000000000d00d3ac        0x0 ../../spresense-exported-sdk/nuttx/libs/libnuttx.a(arch-cxd56_farapi.o)
 .text.cxd56_farapidonehandler
                0x000000000d00d3ac       0x40 ../../spresense-exported-sdk/nuttx/libs/libnuttx.a(arch-cxd56_farapi.o)
 .text.farapi_main
                0x000000000d00d3ec       0xa0 ../../spresense-exported-sdk/nuttx/libs/libnuttx.a(arch-cxd56_farapi.o)
                0x000000000d00d3ec                farapi_main
 .text.cxd56_farapiinitialize
                0x000000000d00d48c       0x88 ../../spresense-exported-sdk/nuttx/libs/libnuttx.a(arch-cxd56_farapi.o)
                0x000000000d00d48c                cxd56_farapiinitialize
 .text          0x000000000d00d514        0x0 ../../spresense-exported-sdk/nuttx/libs/libnuttx.a(arch-up_exit.o)
 .text._exit    0x000000000d00d514       0x28 ../../spresense-exported-sdk/nuttx/libs/libnuttx.a(arch-up_exit.o)
                0x000000000d00d514                _exit
 .text          0x000000000d00d53c        0xa ../../spresense-exported-sdk/nuttx/libs/libnuttx.a(arch-up_fullcontextrestore.o)
                0x000000000d00d53c                up_fullcontextrestore
 .text          0x000000000d00d546        0x0 ../../spresense-exported-sdk/nuttx/libs/libnuttx.a(arch-up_reprioritizertr.o)
 *fill*         0x000000000d00d546        0x2 
 .text.up_reprioritize_rtr
                0x000000000d00d548       0x74 ../../spresense-exported-sdk/nuttx/libs/libnuttx.a(arch-up_reprioritizertr.o)
                0x000000000d00d548                up_reprioritize_rtr
 .text          0x000000000d00d5bc        0x0 ../../spresense-exported-sdk/nuttx/libs/libnuttx.a(arch-up_schedulesigaction.o)
 .text.up_schedule_sigaction
                0x000000000d00d5bc       0x94 ../../spresense-exported-sdk/nuttx/libs/libnuttx.a(arch-up_schedulesigaction.o)
                0x000000000d00d5bc                up_schedule_sigaction
 .text          0x000000000d00d650        0x0 ../../spresense-exported-sdk/nuttx/libs/libnuttx.a(arch-up_sigdeliver.o)
 .text.up_sigdeliver
                0x000000000d00d650       0x4c ../../spresense-exported-sdk/nuttx/libs/libnuttx.a(arch-up_sigdeliver.o)
                0x000000000d00d650                up_sigdeliver
 .text          0x000000000d00d69c        0x0 ../../spresense-exported-sdk/nuttx/libs/libnuttx.a(net-net_checksd.o)
 .text.net_checksd
                0x000000000d00d69c       0x1e ../../spresense-exported-sdk/nuttx/libs/libnuttx.a(net-net_checksd.o)
                0x000000000d00d69c                net_checksd
 .text          0x000000000d00d6ba        0x0 ../../spresense-exported-sdk/nuttx/libs/libnuttx.a(net-net_close.o)
 .text.psock_close
                0x000000000d00d6ba       0x34 ../../spresense-exported-sdk/nuttx/libs/libnuttx.a(net-net_close.o)
                0x000000000d00d6ba                psock_close
 .text.net_close
                0x000000000d00d6ee        0xe ../../spresense-exported-sdk/nuttx/libs/libnuttx.a(net-net_close.o)
                0x000000000d00d6ee                net_close
 .text          0x000000000d00d6fc        0x0 ../../spresense-exported-sdk/nuttx/libs/libnuttx.a(net-netdev_register.o)
 .text.netdev_register
                0x000000000d00d6fc       0x94 ../../spresense-exported-sdk/nuttx/libs/libnuttx.a(net-netdev_register.o)
                0x000000000d00d6fc                netdev_register
 .text          0x000000000d00d790        0x0 ../../spresense-exported-sdk/nuttx/libs/libnuttx.a(net-net_procfs.o)
 .text.netprocfs_rewinddir
                0x000000000d00d790        0x8 ../../spresense-exported-sdk/nuttx/libs/libnuttx.a(net-net_procfs.o)
 .text.netprocfs_stat
                0x000000000d00d798       0x50 ../../spresense-exported-sdk/nuttx/libs/libnuttx.a(net-net_procfs.o)
 .text.netprocfs_closedir
                0x000000000d00d7e8       0x12 ../../spresense-exported-sdk/nuttx/libs/libnuttx.a(net-net_procfs.o)
 .text.netprocfs_close
                0x000000000d00d7fa       0x10 ../../spresense-exported-sdk/nuttx/libs/libnuttx.a(net-net_procfs.o)
 .text.netprocfs_readdir
                0x000000000d00d80a       0x4a ../../spresense-exported-sdk/nuttx/libs/libnuttx.a(net-net_procfs.o)
 .text.netprocfs_open
                0x000000000d00d854       0x50 ../../spresense-exported-sdk/nuttx/libs/libnuttx.a(net-net_procfs.o)
 .text.netprocfs_opendir
                0x000000000d00d8a4       0x44 ../../spresense-exported-sdk/nuttx/libs/libnuttx.a(net-net_procfs.o)
 .text.netprocfs_dup
                0x000000000d00d8e8       0x28 ../../spresense-exported-sdk/nuttx/libs/libnuttx.a(net-net_procfs.o)
 .text.netprocfs_read
                0x000000000d00d910       0x20 ../../spresense-exported-sdk/nuttx/libs/libnuttx.a(net-net_procfs.o)
 .text.netprocfs_read_linegen
                0x000000000d00d930       0x8c ../../spresense-exported-sdk/nuttx/libs/libnuttx.a(net-net_procfs.o)
                0x000000000d00d930                netprocfs_read_linegen
 .text          0x000000000d00d9bc        0x0 ../../spresense-exported-sdk/nuttx/libs/libnuttx.a(net-send.o)
 .text.psock_send
                0x000000000d00d9bc       0x26 ../../spresense-exported-sdk/nuttx/libs/libnuttx.a(net-send.o)
                0x000000000d00d9bc                psock_send
 .text.nx_send  0x000000000d00d9e2       0x1c ../../spresense-exported-sdk/nuttx/libs/libnuttx.a(net-send.o)
                0x000000000d00d9e2                nx_send
 .text.send     0x000000000d00d9fe       0x1a ../../spresense-exported-sdk/nuttx/libs/libnuttx.a(net-send.o)
                0x000000000d00d9fe                send
 .text          0x000000000d00da18        0x0 ../../spresense-exported-sdk/nuttx/libs/libnuttx.a(fs-fs_blockproxy.o)
 .text.block_proxy
                0x000000000d00da18       0xa8 ../../spresense-exported-sdk/nuttx/libs/libnuttx.a(fs-fs_blockproxy.o)
                0x000000000d00da18                block_proxy
 .text          0x000000000d00dac0        0x0 ../../spresense-exported-sdk/nuttx/libs/libnuttx.a(fs-fs_filedetach.o)
 .text.file_detach
                0x000000000d00dac0       0x56 ../../spresense-exported-sdk/nuttx/libs/libnuttx.a(fs-fs_filedetach.o)
                0x000000000d00dac0                file_detach
 .text          0x000000000d00db16        0x0 ../../spresense-exported-sdk/nuttx/libs/libnuttx.a(fs-fs_inodefree.o)
 .text.inode_free
                0x000000000d00db16       0x1e ../../spresense-exported-sdk/nuttx/libs/libnuttx.a(fs-fs_inodefree.o)
                0x000000000d00db16                inode_free
 .text          0x000000000d00db34        0x0 ../../spresense-exported-sdk/nuttx/libs/libnuttx.a(fs-fs_lseek.o)
 .text.file_seek
                0x000000000d00db34       0x40 ../../spresense-exported-sdk/nuttx/libs/libnuttx.a(fs-fs_lseek.o)
                0x000000000d00db34                file_seek
 .text.lseek    0x000000000d00db74       0x30 ../../spresense-exported-sdk/nuttx/libs/libnuttx.a(fs-fs_lseek.o)
                0x000000000d00db74                lseek
 .text          0x000000000d00dba4        0x0 ../../spresense-exported-sdk/nuttx/libs/libnuttx.a(fs-fs_procfsmeminfo.o)
 .text.meminfo_stat
                0x000000000d00dba4       0x2c ../../spresense-exported-sdk/nuttx/libs/libnuttx.a(fs-fs_procfsmeminfo.o)
 .text.meminfo_dup
                0x000000000d00dbd0       0x28 ../../spresense-exported-sdk/nuttx/libs/libnuttx.a(fs-fs_procfsmeminfo.o)
 .text.meminfo_read
                0x000000000d00dbf8       0x80 ../../spresense-exported-sdk/nuttx/libs/libnuttx.a(fs-fs_procfsmeminfo.o)
 .text.meminfo_close
                0x000000000d00dc78       0x10 ../../spresense-exported-sdk/nuttx/libs/libnuttx.a(fs-fs_procfsmeminfo.o)
 .text.meminfo_open
                0x000000000d00dc88       0x3c ../../spresense-exported-sdk/nuttx/libs/libnuttx.a(fs-fs_procfsmeminfo.o)
 .text          0x000000000d00dcc4        0x0 ../../spresense-exported-sdk/nuttx/libs/libnuttx.a(fs-fs_procfs_mount.o)
 .text.mount_stat
                0x000000000d00dcc4       0x18 ../../spresense-exported-sdk/nuttx/libs/libnuttx.a(fs-fs_procfs_mount.o)
 .text.mount_dup
                0x000000000d00dcdc       0x28 ../../spresense-exported-sdk/nuttx/libs/libnuttx.a(fs-fs_procfs_mount.o)
 .text.mount_read
                0x000000000d00dd04       0x5c ../../spresense-exported-sdk/nuttx/libs/libnuttx.a(fs-fs_procfs_mount.o)
 .text.mount_sprintf
                0x000000000d00dd60       0x44 ../../spresense-exported-sdk/nuttx/libs/libnuttx.a(fs-fs_procfs_mount.o)
 .text.usage_entry
                0x000000000d00dda4      0x150 ../../spresense-exported-sdk/nuttx/libs/libnuttx.a(fs-fs_procfs_mount.o)
 .text.blocks_entry
                0x000000000d00def4       0x54 ../../spresense-exported-sdk/nuttx/libs/libnuttx.a(fs-fs_procfs_mount.o)
 .text.mount_entry
                0x000000000d00df48       0x2c ../../spresense-exported-sdk/nuttx/libs/libnuttx.a(fs-fs_procfs_mount.o)
 .text.mount_close
                0x000000000d00df74       0x10 ../../spresense-exported-sdk/nuttx/libs/libnuttx.a(fs-fs_procfs_mount.o)
 .text.mount_open
                0x000000000d00df84       0x60 ../../spresense-exported-sdk/nuttx/libs/libnuttx.a(fs-fs_procfs_mount.o)
 .text          0x000000000d00dfe4        0x0 ../../spresense-exported-sdk/nuttx/libs/libnuttx.a(fs-fs_stat.o)
 .text.inode_stat
                0x000000000d00dfe4       0x7a ../../spresense-exported-sdk/nuttx/libs/libnuttx.a(fs-fs_stat.o)
                0x000000000d00dfe4                inode_stat
 .text.stat_recursive
                0x000000000d00e05e       0x6a ../../spresense-exported-sdk/nuttx/libs/libnuttx.a(fs-fs_stat.o)
                0x000000000d00e05e                stat_recursive
 .text.stat     0x000000000d00e0c8       0x50 ../../spresense-exported-sdk/nuttx/libs/libnuttx.a(fs-fs_stat.o)
                0x000000000d00e0c8                stat
 .text          0x000000000d00e118        0x0 ../../spresense-exported-sdk/nuttx/libs/libnuttx.a(fs-fs_unlink.o)
 .text.unlink   0x000000000d00e118       0xbe ../../spresense-exported-sdk/nuttx/libs/libnuttx.a(fs-fs_unlink.o)
                0x000000000d00e118                unlink
 .text          0x000000000d00e1d6        0x0 ../../spresense-exported-sdk/nuttx/libs/libnuttx.a(sched-group_leave.o)
 *fill*         0x000000000d00e1d6        0x2 
 .text.group_leave
                0x000000000d00e1d8       0xd0 ../../spresense-exported-sdk/nuttx/libs/libnuttx.a(sched-group_leave.o)
                0x000000000d00e1d8                group_leave
 .text          0x000000000d00e2a8        0x0 ../../spresense-exported-sdk/nuttx/libs/libnuttx.a(sched-group_signal.o)
 .text.group_signal_handler
                0x000000000d00e2a8       0x8a ../../spresense-exported-sdk/nuttx/libs/libnuttx.a(sched-group_signal.o)
 *fill*         0x000000000d00e332        0x2 
 .text.group_signal
                0x000000000d00e334       0x4c ../../spresense-exported-sdk/nuttx/libs/libnuttx.a(sched-group_signal.o)
                0x000000000d00e334                group_signal
 .text          0x000000000d00e380        0x0 ../../spresense-exported-sdk/nuttx/libs/libnuttx.a(sched-mq_recover.o)
 .text.nxmq_recover
                0x000000000d00e380       0x20 ../../spresense-exported-sdk/nuttx/libs/libnuttx.a(sched-mq_recover.o)
                0x000000000d00e380                nxmq_recover
 .text          0x000000000d00e3a0        0x0 ../../spresense-exported-sdk/nuttx/libs/libnuttx.a(sched-mq_release.o)
 .text.nxmq_release
                0x000000000d00e3a0       0x14 ../../spresense-exported-sdk/nuttx/libs/libnuttx.a(sched-mq_release.o)
                0x000000000d00e3a0                nxmq_release
 .text          0x000000000d00e3b4        0x0 ../../spresense-exported-sdk/nuttx/libs/libnuttx.a(sched-mq_waitirq.o)
 .text.nxmq_wait_irq
                0x000000000d00e3b4       0x3e ../../spresense-exported-sdk/nuttx/libs/libnuttx.a(sched-mq_waitirq.o)
                0x000000000d00e3b4                nxmq_wait_irq
 .text          0x000000000d00e3f2        0x0 ../../spresense-exported-sdk/nuttx/libs/libnuttx.a(sched-pthread_release.o)
 .text.pthread_release
                0x000000000d00e3f2       0x30 ../../spresense-exported-sdk/nuttx/libs/libnuttx.a(sched-pthread_release.o)
                0x000000000d00e3f2                pthread_release
 .text          0x000000000d00e422        0x0 ../../spresense-exported-sdk/nuttx/libs/libnuttx.a(sched-sem_recover.o)
 .text.nxsem_recover
                0x000000000d00e422       0x26 ../../spresense-exported-sdk/nuttx/libs/libnuttx.a(sched-sem_recover.o)
                0x000000000d00e422                nxsem_recover
 .text          0x000000000d00e448        0x0 ../../spresense-exported-sdk/nuttx/libs/libnuttx.a(sched-sig_allocpendingsigaction.o)
 .text.nxsig_alloc_pendingsigaction
                0x000000000d00e448       0x48 ../../spresense-exported-sdk/nuttx/libs/libnuttx.a(sched-sig_allocpendingsigaction.o)
                0x000000000d00e448                nxsig_alloc_pendingsigaction
 .text          0x000000000d00e490        0x0 ../../spresense-exported-sdk/nuttx/libs/libnuttx.a(sched-sig_cleanup.o)
 .text.nxsig_cleanup
                0x000000000d00e490       0x32 ../../spresense-exported-sdk/nuttx/libs/libnuttx.a(sched-sig_cleanup.o)
                0x000000000d00e490                nxsig_cleanup
 .text.nxsig_release
                0x000000000d00e4c2       0x28 ../../spresense-exported-sdk/nuttx/libs/libnuttx.a(sched-sig_cleanup.o)
                0x000000000d00e4c2                nxsig_release
 .text          0x000000000d00e4ea        0x0 ../../spresense-exported-sdk/nuttx/libs/libnuttx.a(sched-sig_deliver.o)
 .text.nxsig_deliver
                0x000000000d00e4ea       0xc4 ../../spresense-exported-sdk/nuttx/libs/libnuttx.a(sched-sig_deliver.o)
                0x000000000d00e4ea                nxsig_deliver
 .text          0x000000000d00e5ae        0x0 ../../spresense-exported-sdk/nuttx/libs/libnuttx.a(sched-sig_lowest.o)
 .text.nxsig_lowest
                0x000000000d00e5ae       0x1e ../../spresense-exported-sdk/nuttx/libs/libnuttx.a(sched-sig_lowest.o)
                0x000000000d00e5ae                nxsig_lowest
 .text          0x000000000d00e5cc        0x0 ../../spresense-exported-sdk/nuttx/libs/libnuttx.a(sched-sig_nanosleep.o)
 .text.nxsig_nanosleep
                0x000000000d00e5cc       0x88 ../../spresense-exported-sdk/nuttx/libs/libnuttx.a(sched-sig_nanosleep.o)
                0x000000000d00e5cc                nxsig_nanosleep
 .text.clock_nanosleep
                0x000000000d00e654       0x60 ../../spresense-exported-sdk/nuttx/libs/libnuttx.a(sched-sig_nanosleep.o)
                0x000000000d00e654                clock_nanosleep
 .text          0x000000000d00e6b4        0x0 ../../spresense-exported-sdk/nuttx/libs/libnuttx.a(sched-sig_pending.o)
 .text.nxsig_pendingset
                0x000000000d00e6b4       0x2e ../../spresense-exported-sdk/nuttx/libs/libnuttx.a(sched-sig_pending.o)
                0x000000000d00e6b4                nxsig_pendingset
 *fill*         0x000000000d00e6e2        0x2 
 .text.sigpending
                0x000000000d00e6e4       0x20 ../../spresense-exported-sdk/nuttx/libs/libnuttx.a(sched-sig_pending.o)
                0x000000000d00e6e4                sigpending
 .text          0x000000000d00e704        0x0 ../../spresense-exported-sdk/nuttx/libs/libnuttx.a(sched-sig_releasependingsigaction.o)
 .text.nxsig_release_pendingsigaction
                0x000000000d00e704       0x44 ../../spresense-exported-sdk/nuttx/libs/libnuttx.a(sched-sig_releasependingsigaction.o)
                0x000000000d00e704                nxsig_release_pendingsigaction
 .text          0x000000000d00e748        0x0 ../../spresense-exported-sdk/nuttx/libs/libnuttx.a(sched-sig_releasependingsignal.o)
 .text.nxsig_release_pendingsignal
                0x000000000d00e748       0x44 ../../spresense-exported-sdk/nuttx/libs/libnuttx.a(sched-sig_releasependingsignal.o)
                0x000000000d00e748                nxsig_release_pendingsignal
 .text          0x000000000d00e78c        0x0 ../../spresense-exported-sdk/nuttx/libs/libnuttx.a(sched-sig_removependingsignal.o)
 .text.nxsig_remove_pendingsignal
                0x000000000d00e78c       0x3c ../../spresense-exported-sdk/nuttx/libs/libnuttx.a(sched-sig_removependingsignal.o)
                0x000000000d00e78c                nxsig_remove_pendingsignal
 .text          0x000000000d00e7c8        0x0 ../../spresense-exported-sdk/nuttx/libs/libnuttx.a(sched-task_exit.o)
 .text.nxtask_exit
                0x000000000d00e7c8       0x4c ../../spresense-exported-sdk/nuttx/libs/libnuttx.a(sched-task_exit.o)
                0x000000000d00e7c8                nxtask_exit
 .text          0x000000000d00e814        0x0 ../../spresense-exported-sdk/nuttx/libs/libnuttx.a(sched-task_terminate.o)
 .text.nxtask_terminate
                0x000000000d00e814       0x54 ../../spresense-exported-sdk/nuttx/libs/libnuttx.a(sched-task_terminate.o)
                0x000000000d00e814                nxtask_terminate
 .text          0x000000000d00e868        0x0 ../../spresense-exported-sdk/nuttx/libs/libnuttx.a(drivers-bchdev_register.o)
 .text.bchdev_register
                0x000000000d00e868       0x34 ../../spresense-exported-sdk/nuttx/libs/libnuttx.a(drivers-bchdev_register.o)
                0x000000000d00e868                bchdev_register
 .text          0x000000000d00e89c        0x0 ../../spresense-exported-sdk/nuttx/libs/libnuttx.a(drivers-bchlib_setup.o)
 .text.bchlib_setup
                0x000000000d00e89c       0x98 ../../spresense-exported-sdk/nuttx/libs/libnuttx.a(drivers-bchlib_setup.o)
                0x000000000d00e89c                bchlib_setup
 .text          0x000000000d00e934        0x0 ../../spresense-exported-sdk/nuttx/libs/libnuttx.a(drivers-bchlib_teardown.o)
 .text.bchlib_teardown
                0x000000000d00e934       0x32 ../../spresense-exported-sdk/nuttx/libs/libnuttx.a(drivers-bchlib_teardown.o)
                0x000000000d00e934                bchlib_teardown
 .text          0x000000000d00e966        0x0 ../../spresense-exported-sdk/nuttx/libs/libnuttx.a(drivers-vsyslog.o)
 .text.nx_vsyslog
                0x000000000d00e966       0x26 ../../spresense-exported-sdk/nuttx/libs/libnuttx.a(drivers-vsyslog.o)
                0x000000000d00e966                nx_vsyslog
 .text          0x000000000d00e98c        0x0 ../../spresense-exported-sdk/nuttx/libs/libnuttx.a(c-lib_basename.o)
 .text.basename
                0x000000000d00e98c       0x4c ../../spresense-exported-sdk/nuttx/libs/libnuttx.a(c-lib_basename.o)
                0x000000000d00e98c                basename
 .text          0x000000000d00e9d8        0x0 ../../spresense-exported-sdk/nuttx/libs/libnuttx.a(c-lib_checkbase.o)
 .text.lib_checkbase
                0x000000000d00e9d8       0x5e ../../spresense-exported-sdk/nuttx/libs/libnuttx.a(c-lib_checkbase.o)
                0x000000000d00e9d8                lib_checkbase
 .text          0x000000000d00ea36        0x0 ../../spresense-exported-sdk/nuttx/libs/libnuttx.a(c-lib_isbasedigit.o)
 .text.lib_isbasedigit
                0x000000000d00ea36       0x4c ../../spresense-exported-sdk/nuttx/libs/libnuttx.a(c-lib_isbasedigit.o)
                0x000000000d00ea36                lib_isbasedigit
 .text          0x000000000d00ea82        0x0 ../../spresense-exported-sdk/nuttx/libs/libnuttx.a(c-lib_setlogmask.o)
 *fill*         0x000000000d00ea82        0x2 
 .text.setlogmask
                0x000000000d00ea84       0x20 ../../spresense-exported-sdk/nuttx/libs/libnuttx.a(c-lib_setlogmask.o)
                0x000000000d00ea84                setlogmask
 .text          0x000000000d00eaa4        0x0 ../../spresense-exported-sdk/nuttx/libs/libnuttx.a(c-lib_skipspace.o)
 .text.lib_skipspace
                0x000000000d00eaa4       0x16 ../../spresense-exported-sdk/nuttx/libs/libnuttx.a(c-lib_skipspace.o)
                0x000000000d00eaa4                lib_skipspace
 .text          0x000000000d00eaba        0x0 ../../spresense-exported-sdk/nuttx/libs/libnuttx.a(c-lib_strrchr.o)
 .text.strrchr  0x000000000d00eaba       0x24 ../../spresense-exported-sdk/nuttx/libs/libnuttx.a(c-lib_strrchr.o)
                0x000000000d00eaba                strrchr
 .text          0x000000000d00eade        0x0 ../../spresense-exported-sdk/nuttx/libs/libnuttx.a(c-lib_vsnprintf.o)
 .text.vsnprintf
                0x000000000d00eade       0x2a ../../spresense-exported-sdk/nuttx/libs/libnuttx.a(c-lib_vsnprintf.o)
                0x000000000d00eade                vsnprintf
 .text          0x000000000d00eb08        0x0 ../../spresense-exported-sdk/nuttx/libs/libnuttx.a(mm-mm_heapmember.o)
 .text.mm_heapmember
                0x000000000d00eb08       0x16 ../../spresense-exported-sdk/nuttx/libs/libnuttx.a(mm-mm_heapmember.o)
                0x000000000d00eb08                mm_heapmember
 .text          0x000000000d00eb1e        0x0 ../../spresense-exported-sdk/nuttx/libs/libnuttx.a(mm-mm_realloc.o)
 .text.mm_realloc
                0x000000000d00eb1e      0x1a8 ../../spresense-exported-sdk/nuttx/libs/libnuttx.a(mm-mm_realloc.o)
                0x000000000d00eb1e                mm_realloc
 .text          0x000000000d00ecc6        0x0 ../../spresense-exported-sdk/nuttx/libs/libnuttx.a(mm-mm_shrinkchunk.o)
 .text.mm_shrinkchunk
                0x000000000d00ecc6       0x64 ../../spresense-exported-sdk/nuttx/libs/libnuttx.a(mm-mm_shrinkchunk.o)
                0x000000000d00ecc6                mm_shrinkchunk
 .text          0x000000000d00ed2a        0x0 ../../spresense-exported-sdk/nuttx/libs/libnuttx.a(mm-umm_mallinfo.o)
 *fill*         0x000000000d00ed2a        0x2 
 .text.mallinfo
                0x000000000d00ed2c       0x24 ../../spresense-exported-sdk/nuttx/libs/libnuttx.a(mm-umm_mallinfo.o)
                0x000000000d00ed2c                mallinfo
 .text          0x000000000d00ed50        0x0 ../../spresense-exported-sdk/nuttx/libs/libnuttx.a(net-netdev_count.o)
 .text.netdev_count
                0x000000000d00ed50       0x20 ../../spresense-exported-sdk/nuttx/libs/libnuttx.a(net-netdev_count.o)
                0x000000000d00ed50                netdev_count
 .text          0x000000000d00ed70        0x0 ../../spresense-exported-sdk/nuttx/libs/libnuttx.a(net-netdev_findbyindex.o)
 .text.netdev_findbyindex
                0x000000000d00ed70       0x28 ../../spresense-exported-sdk/nuttx/libs/libnuttx.a(net-netdev_findbyindex.o)
                0x000000000d00ed70                netdev_findbyindex
 .text          0x000000000d00ed98        0x0 ../../spresense-exported-sdk/nuttx/libs/libnuttx.a(net-netdev_findbyname.o)
 .text.netdev_findbyname
                0x000000000d00ed98       0x30 ../../spresense-exported-sdk/nuttx/libs/libnuttx.a(net-netdev_findbyname.o)
                0x000000000d00ed98                netdev_findbyname
 .text          0x000000000d00edc8        0x0 ../../spresense-exported-sdk/nuttx/libs/libnuttx.a(net-netdev_statistics.o)
 .text.netprocfs_blank_line
                0x000000000d00edc8        0x8 ../../spresense-exported-sdk/nuttx/libs/libnuttx.a(net-netdev_statistics.o)
 .text.netprocfs_linklayer
                0x000000000d00edd0       0x7c ../../spresense-exported-sdk/nuttx/libs/libnuttx.a(net-netdev_statistics.o)
 .text.netprocfs_read_devstats
                0x000000000d00ee4c       0x18 ../../spresense-exported-sdk/nuttx/libs/libnuttx.a(net-netdev_statistics.o)
                0x000000000d00ee4c                netprocfs_read_devstats
 .text          0x000000000d00ee64        0x0 ../../spresense-exported-sdk/nuttx/libs/libnuttx.a(fs-fs_closeblockdriver.o)
 .text.close_blockdriver
                0x000000000d00ee64       0x28 ../../spresense-exported-sdk/nuttx/libs/libnuttx.a(fs-fs_closeblockdriver.o)
                0x000000000d00ee64                close_blockdriver
 .text          0x000000000d00ee8c        0x0 ../../spresense-exported-sdk/nuttx/libs/libnuttx.a(fs-fs_foreachmountpoint.o)
 .text.mountpoint_filter
                0x000000000d00ee8c       0x70 ../../spresense-exported-sdk/nuttx/libs/libnuttx.a(fs-fs_foreachmountpoint.o)
 .text.foreach_mountpoint
                0x000000000d00eefc       0x18 ../../spresense-exported-sdk/nuttx/libs/libnuttx.a(fs-fs_foreachmountpoint.o)
                0x000000000d00eefc                foreach_mountpoint
 .text          0x000000000d00ef14        0x0 ../../spresense-exported-sdk/nuttx/libs/libnuttx.a(fs-fs_gettype.o)
 .text.fs_gettype
                0x000000000d00ef14       0x50 ../../spresense-exported-sdk/nuttx/libs/libnuttx.a(fs-fs_gettype.o)
                0x000000000d00ef14                fs_gettype
 .text          0x000000000d00ef64        0x0 ../../spresense-exported-sdk/nuttx/libs/libnuttx.a(fs-fs_inoderemove.o)
 .text.inode_unlink
                0x000000000d00ef64       0x4c ../../spresense-exported-sdk/nuttx/libs/libnuttx.a(fs-fs_inoderemove.o)
                0x000000000d00ef64                inode_unlink
 .text.inode_remove
                0x000000000d00efb0       0x2a ../../spresense-exported-sdk/nuttx/libs/libnuttx.a(fs-fs_inoderemove.o)
                0x000000000d00efb0                inode_remove
 .text          0x000000000d00efda        0x0 ../../spresense-exported-sdk/nuttx/libs/libnuttx.a(fs-fs_openblockdriver.o)
 .text.open_blockdriver
                0x000000000d00efda       0x42 ../../spresense-exported-sdk/nuttx/libs/libnuttx.a(fs-fs_openblockdriver.o)
                0x000000000d00efda                open_blockdriver
 .text          0x000000000d00f01c        0x0 ../../spresense-exported-sdk/nuttx/libs/libnuttx.a(fs-mq_close.o)
 .text.mq_inode_release
                0x000000000d00f01c       0x40 ../../spresense-exported-sdk/nuttx/libs/libnuttx.a(fs-mq_close.o)
                0x000000000d00f01c                mq_inode_release
 .text.nxmq_close_group
                0x000000000d00f05c       0x2a ../../spresense-exported-sdk/nuttx/libs/libnuttx.a(fs-mq_close.o)
                0x000000000d00f05c                nxmq_close_group
 .text.mq_close
                0x000000000d00f086       0x22 ../../spresense-exported-sdk/nuttx/libs/libnuttx.a(fs-mq_close.o)
                0x000000000d00f086                mq_close
 .text          0x000000000d00f0a8        0x0 ../../spresense-exported-sdk/nuttx/libs/libnuttx.a(sched-clock_timespec_subtract.o)
 .text.clock_timespec_subtract
                0x000000000d00f0a8       0x3c ../../spresense-exported-sdk/nuttx/libs/libnuttx.a(sched-clock_timespec_subtract.o)
                0x000000000d00f0a8                clock_timespec_subtract
 .text          0x000000000d00f0e4        0x0 ../../spresense-exported-sdk/nuttx/libs/libnuttx.a(sched-env_release.o)
 .text.env_release
                0x000000000d00f0e4       0x14 ../../spresense-exported-sdk/nuttx/libs/libnuttx.a(sched-env_release.o)
                0x000000000d00f0e4                env_release
 .text          0x000000000d00f0f8        0x0 ../../spresense-exported-sdk/nuttx/libs/libnuttx.a(sched-group_foreachchild.o)
 .text.group_foreachchild
                0x000000000d00f0f8       0x22 ../../spresense-exported-sdk/nuttx/libs/libnuttx.a(sched-group_foreachchild.o)
                0x000000000d00f0f8                group_foreachchild
 .text          0x000000000d00f11a        0x0 ../../spresense-exported-sdk/nuttx/libs/libnuttx.a(sched-mq_desclose.o)
 *fill*         0x000000000d00f11a        0x2 
 .text.nxmq_desclose_group
                0x000000000d00f11c       0x3c ../../spresense-exported-sdk/nuttx/libs/libnuttx.a(sched-mq_desclose.o)
                0x000000000d00f11c                nxmq_desclose_group
 .text          0x000000000d00f158        0x0 ../../spresense-exported-sdk/nuttx/libs/libnuttx.a(sched-sig_action.o)
 .text.nxsig_release_action
                0x000000000d00f158        0xc ../../spresense-exported-sdk/nuttx/libs/libnuttx.a(sched-sig_action.o)
                0x000000000d00f158                nxsig_release_action
 .text.nxsig_action
                0x000000000d00f164       0xd0 ../../spresense-exported-sdk/nuttx/libs/libnuttx.a(sched-sig_action.o)
                0x000000000d00f164                nxsig_action
 .text.sigaction
                0x000000000d00f234       0x1e ../../spresense-exported-sdk/nuttx/libs/libnuttx.a(sched-sig_action.o)
                0x000000000d00f234                sigaction
 .text          0x000000000d00f252        0x0 ../../spresense-exported-sdk/nuttx/libs/libnuttx.a(drivers-bchdev_driver.o)
 .text.bch_unlink
                0x000000000d00f252       0x2e ../../spresense-exported-sdk/nuttx/libs/libnuttx.a(drivers-bchdev_driver.o)
 .text.bch_ioctl
                0x000000000d00f280       0x6c ../../spresense-exported-sdk/nuttx/libs/libnuttx.a(drivers-bchdev_driver.o)
 .text.bch_seek
                0x000000000d00f2ec       0x4c ../../spresense-exported-sdk/nuttx/libs/libnuttx.a(drivers-bchdev_driver.o)
 .text.bch_open
                0x000000000d00f338       0x28 ../../spresense-exported-sdk/nuttx/libs/libnuttx.a(drivers-bchdev_driver.o)
 .text.bch_write
                0x000000000d00f360       0x40 ../../spresense-exported-sdk/nuttx/libs/libnuttx.a(drivers-bchdev_driver.o)
 .text.bch_read
                0x000000000d00f3a0       0x36 ../../spresense-exported-sdk/nuttx/libs/libnuttx.a(drivers-bchdev_driver.o)
 .text.bch_close
                0x000000000d00f3d6       0x44 ../../spresense-exported-sdk/nuttx/libs/libnuttx.a(drivers-bchdev_driver.o)
 .text.bch_poll
                0x000000000d00f41a       0x1c ../../spresense-exported-sdk/nuttx/libs/libnuttx.a(drivers-bchdev_driver.o)
 .text          0x000000000d00f436        0x0 ../../spresense-exported-sdk/nuttx/libs/libnuttx.a(drivers-bchlib_cache.o)
 .text.bchlib_flushsector
                0x000000000d00f436       0x1c ../../spresense-exported-sdk/nuttx/libs/libnuttx.a(drivers-bchlib_cache.o)
                0x000000000d00f436                bchlib_flushsector
 .text.bchlib_readsector
                0x000000000d00f452       0x2e ../../spresense-exported-sdk/nuttx/libs/libnuttx.a(drivers-bchlib_cache.o)
                0x000000000d00f452                bchlib_readsector
 .text          0x000000000d00f480        0x0 ../../spresense-exported-sdk/nuttx/libs/libnuttx.a(drivers-bchlib_read.o)
 .text.bchlib_read
                0x000000000d00f480       0xc4 ../../spresense-exported-sdk/nuttx/libs/libnuttx.a(drivers-bchlib_read.o)
                0x000000000d00f480                bchlib_read
 .text          0x000000000d00f544        0x0 ../../spresense-exported-sdk/nuttx/libs/libnuttx.a(drivers-bchlib_sem.o)
 .text.bchlib_semtake
                0x000000000d00f544       0x16 ../../spresense-exported-sdk/nuttx/libs/libnuttx.a(drivers-bchlib_sem.o)
                0x000000000d00f544                bchlib_semtake
 .text          0x000000000d00f55a        0x0 ../../spresense-exported-sdk/nuttx/libs/libnuttx.a(drivers-bchlib_write.o)
 .text.bchlib_write
                0x000000000d00f55a       0xde ../../spresense-exported-sdk/nuttx/libs/libnuttx.a(drivers-bchlib_write.o)
                0x000000000d00f55a                bchlib_write
 .text          0x000000000d00f638        0x0 ../../spresense-exported-sdk/nuttx/libs/libnuttx.a(drivers-syslog_emergstream.o)
 .text.emergstream_putc
                0x000000000d00f638       0x1e ../../spresense-exported-sdk/nuttx/libs/libnuttx.a(drivers-syslog_emergstream.o)
 *fill*         0x000000000d00f656        0x2 
 .text.emergstream
                0x000000000d00f658       0x18 ../../spresense-exported-sdk/nuttx/libs/libnuttx.a(drivers-syslog_emergstream.o)
                0x000000000d00f658                emergstream
 .text          0x000000000d00f670        0x0 ../../spresense-exported-sdk/nuttx/libs/libnuttx.a(drivers-syslog_force.o)
 .text.syslog_force
                0x000000000d00f670        0xc ../../spresense-exported-sdk/nuttx/libs/libnuttx.a(drivers-syslog_force.o)
                0x000000000d00f670                syslog_force
 .text          0x000000000d00f67c        0x0 ../../spresense-exported-sdk/nuttx/libs/libnuttx.a(drivers-syslog_stream.o)
 .text.syslogstream_putc
                0x000000000d00f67c       0x22 ../../spresense-exported-sdk/nuttx/libs/libnuttx.a(drivers-syslog_stream.o)
 *fill*         0x000000000d00f69e        0x2 
 .text.syslogstream_create
                0x000000000d00f6a0       0x18 ../../spresense-exported-sdk/nuttx/libs/libnuttx.a(drivers-syslog_stream.o)
                0x000000000d00f6a0                syslogstream_create
 .text          0x000000000d00f6b8        0x0 ../../spresense-exported-sdk/nuttx/libs/libnuttx.a(c-lib_etherntoa.o)
 .text.ether_ntoa
                0x000000000d00f6b8       0x30 ../../spresense-exported-sdk/nuttx/libs/libnuttx.a(c-lib_etherntoa.o)
                0x000000000d00f6b8                ether_ntoa
 .text          0x000000000d00f6e8        0x0 ../../spresense-exported-sdk/nuttx/libs/libnuttx.a(c-lib_sprintf.o)
 .text.sprintf  0x000000000d00f6e8       0x2e ../../spresense-exported-sdk/nuttx/libs/libnuttx.a(c-lib_sprintf.o)
                0x000000000d00f6e8                sprintf
 .text          0x000000000d00f716        0x0 ../../spresense-exported-sdk/nuttx/libs/libnuttx.a(mm-mm_mallinfo.o)
 .text.mm_mallinfo
                0x000000000d00f716       0x54 ../../spresense-exported-sdk/nuttx/libs/libnuttx.a(mm-mm_mallinfo.o)
                0x000000000d00f716                mm_mallinfo
 .text          0x000000000d00f76a        0x0 ../../spresense-exported-sdk/nuttx/libs/libnuttx.a(fs-fs_findblockdriver.o)
 .text.find_blockdriver
                0x000000000d00f76a       0x5a ../../spresense-exported-sdk/nuttx/libs/libnuttx.a(fs-fs_findblockdriver.o)
                0x000000000d00f76a                find_blockdriver
 .text          0x000000000d00f7c4        0x0 ../../spresense-exported-sdk/nuttx/libs/libnuttx.a(fs-fs_foreachinode.o)
 .text.foreach_inodelevel
                0x000000000d00f7c4       0x78 ../../spresense-exported-sdk/nuttx/libs/libnuttx.a(fs-fs_foreachinode.o)
 .text.foreach_inode
                0x000000000d00f83c       0x44 ../../spresense-exported-sdk/nuttx/libs/libnuttx.a(fs-fs_foreachinode.o)
                0x000000000d00f83c                foreach_inode
 .text          0x000000000d00f880        0x0 ../../spresense-exported-sdk/nuttx/libs/libnuttx.a(fs-fs_mtdproxy.o)
 .text.mtd_proxy
                0x000000000d00f880       0xa8 ../../spresense-exported-sdk/nuttx/libs/libnuttx.a(fs-fs_mtdproxy.o)
                0x000000000d00f880                mtd_proxy
 .text          0x000000000d00f928        0x0 ../../spresense-exported-sdk/nuttx/libs/libnuttx.a(drivers-ftl.o)
 .text.ftl_open
                0x000000000d00f928        0xc ../../spresense-exported-sdk/nuttx/libs/libnuttx.a(drivers-ftl.o)
 .text.ftl_read
                0x000000000d00f934       0x20 ../../spresense-exported-sdk/nuttx/libs/libnuttx.a(drivers-ftl.o)
 .text.ftl_geometry
                0x000000000d00f954       0x20 ../../spresense-exported-sdk/nuttx/libs/libnuttx.a(drivers-ftl.o)
 .text.ftl_ioctl
                0x000000000d00f974       0x28 ../../spresense-exported-sdk/nuttx/libs/libnuttx.a(drivers-ftl.o)
 .text.ftl_unlink
                0x000000000d00f99c       0x1e ../../spresense-exported-sdk/nuttx/libs/libnuttx.a(drivers-ftl.o)
 .text.ftl_close
                0x000000000d00f9ba       0x24 ../../spresense-exported-sdk/nuttx/libs/libnuttx.a(drivers-ftl.o)
 .text.ftl_write
                0x000000000d00f9de      0x186 ../../spresense-exported-sdk/nuttx/libs/libnuttx.a(drivers-ftl.o)
 .text.ftl_initialize_by_path
                0x000000000d00fb64       0x64 ../../spresense-exported-sdk/nuttx/libs/libnuttx.a(drivers-ftl.o)
                0x000000000d00fb64                ftl_initialize_by_path
 .text.ftl_initialize
                0x000000000d00fbc8       0x24 ../../spresense-exported-sdk/nuttx/libs/libnuttx.a(drivers-ftl.o)
                0x000000000d00fbc8                ftl_initialize
 .text          0x000000000d00fbec        0x0 ../../spresense-exported-sdk/nuttx/libs/libnuttx.a(drivers-syslog_putc.o)
 .text.syslog_putc
                0x000000000d00fbec       0x2c ../../spresense-exported-sdk/nuttx/libs/libnuttx.a(drivers-syslog_putc.o)
                0x000000000d00fbec                syslog_putc
 .text          0x000000000d00fc18        0x0 ../../spresense-exported-sdk/nuttx/libs/libnuttx.a(fs-fs_findmtddriver.o)
 .text.find_mtddriver
                0x000000000d00fc18       0x40 ../../spresense-exported-sdk/nuttx/libs/libnuttx.a(fs-fs_findmtddriver.o)
                0x000000000d00fc18                find_mtddriver
 .text          0x000000000d00fc58        0x0 ../../spresense-exported-sdk/nuttx/libs/libnuttx.a(fs-fs_registerblockdriver.o)
 .text.register_blockdriver
                0x000000000d00fc58       0x36 ../../spresense-exported-sdk/nuttx/libs/libnuttx.a(fs-fs_registerblockdriver.o)
                0x000000000d00fc58                register_blockdriver
 .text          0x000000000d00fc8e        0x0 ../../spresense-exported-sdk/nuttx/libs/libapps.a(nsh_main.o)
 *fill*         0x000000000d00fc8e        0x2 
 .text.nsh_main
                0x000000000d00fc90       0x48 ../../spresense-exported-sdk/nuttx/libs/libapps.a(nsh_main.o)
                0x000000000d00fc90                nsh_main
 .text          0x000000000d00fcd8        0x0 ../../spresense-exported-sdk/nuttx/libs/libapps.a(lateinit.o)
 .text.board_late_initialize
                0x000000000d00fcd8        0x4 ../../spresense-exported-sdk/nuttx/libs/libapps.a(lateinit.o)
                0x000000000d00fcd8                board_late_initialize
 .text          0x000000000d00fcdc        0x0 ../../spresense-exported-sdk/nuttx/libs/libapps.a(gnu_cxxinitialize.o)
 .text.up_cxxinitialize
                0x000000000d00fcdc       0x30 ../../spresense-exported-sdk/nuttx/libs/libapps.a(gnu_cxxinitialize.o)
                0x000000000d00fcdc                up_cxxinitialize
 .text          0x000000000d00fd0c        0x0 ../../spresense-exported-sdk/nuttx/libs/libapps.a(nsh_init.o)
 .text.nsh_initialize
                0x000000000d00fd0c       0x28 ../../spresense-exported-sdk/nuttx/libs/libapps.a(nsh_init.o)
                0x000000000d00fd0c                nsh_initialize
 .text          0x000000000d00fd34        0x0 ../../spresense-exported-sdk/nuttx/libs/libapps.a(nsh_parse.o)
 .text.nsh_strchr
                0x000000000d00fd34       0x24 ../../spresense-exported-sdk/nuttx/libs/libapps.a(nsh_parse.o)
 .text.nsh_dequote
                0x000000000d00fd58       0x2a ../../spresense-exported-sdk/nuttx/libs/libapps.a(nsh_parse.o)
 .text.nsh_cmdenabled
                0x000000000d00fd82       0x42 ../../spresense-exported-sdk/nuttx/libs/libapps.a(nsh_parse.o)
 .text.nsh_releaseargs
                0x000000000d00fdc4       0x3a ../../spresense-exported-sdk/nuttx/libs/libapps.a(nsh_parse.o)
 .text.nsh_child
                0x000000000d00fdfe       0x1c ../../spresense-exported-sdk/nuttx/libs/libapps.a(nsh_parse.o)
 .text.nsh_saveresult
                0x000000000d00fe1a       0x76 ../../spresense-exported-sdk/nuttx/libs/libapps.a(nsh_parse.o)
 .text.nsh_execute
                0x000000000d00fe90      0x1d4 ../../spresense-exported-sdk/nuttx/libs/libapps.a(nsh_parse.o)
 .text.nsh_memlist_free.part.0
                0x000000000d010064       0x24 ../../spresense-exported-sdk/nuttx/libs/libapps.a(nsh_parse.o)
 .text.nsh_strcat
                0x000000000d010088       0x54 ../../spresense-exported-sdk/nuttx/libs/libapps.a(nsh_parse.o)
 .text.nsh_argument
                0x000000000d0100dc      0x4b0 ../../spresense-exported-sdk/nuttx/libs/libapps.a(nsh_parse.o)
 .text.nsh_parse_command
                0x000000000d01058c      0x64c ../../spresense-exported-sdk/nuttx/libs/libapps.a(nsh_parse.o)
 .text.nsh_parse
                0x000000000d010bd8       0x90 ../../spresense-exported-sdk/nuttx/libs/libapps.a(nsh_parse.o)
                0x000000000d010bd8                nsh_parse
 .text.cmd_break
                0x000000000d010c68       0x2c ../../spresense-exported-sdk/nuttx/libs/libapps.a(nsh_parse.o)
                0x000000000d010c68                cmd_break
 .text          0x000000000d010c94        0x0 ../../spresense-exported-sdk/nuttx/libs/libapps.a(nsh_command.o)
 .text.cmd_unrecognized
                0x000000000d010c94       0x14 ../../spresense-exported-sdk/nuttx/libs/libapps.a(nsh_command.o)
 .text.cmd_true
                0x000000000d010ca8        0x4 ../../spresense-exported-sdk/nuttx/libs/libapps.a(nsh_command.o)
 .text.cmd_false
                0x000000000d010cac        0x6 ../../spresense-exported-sdk/nuttx/libs/libapps.a(nsh_command.o)
 .text.cmd_exit
                0x000000000d010cb2        0x8 ../../spresense-exported-sdk/nuttx/libs/libapps.a(nsh_command.o)
 *fill*         0x000000000d010cba        0x2 
 .text.help_showcmd
                0x000000000d010cbc       0x28 ../../spresense-exported-sdk/nuttx/libs/libapps.a(nsh_command.o)
 .text.help_cmd
                0x000000000d010ce4       0x50 ../../spresense-exported-sdk/nuttx/libs/libapps.a(nsh_command.o)
 .text.cmd_help
                0x000000000d010d34      0x29c ../../spresense-exported-sdk/nuttx/libs/libapps.a(nsh_command.o)
 .text.nsh_command
                0x000000000d010fd0       0x68 ../../spresense-exported-sdk/nuttx/libs/libapps.a(nsh_command.o)
                0x000000000d010fd0                nsh_command
 .text.nsh_extmatch_count
                0x000000000d011038       0x3c ../../spresense-exported-sdk/nuttx/libs/libapps.a(nsh_command.o)
                0x000000000d011038                nsh_extmatch_count
 .text.nsh_extmatch_getname
                0x000000000d011074        0xc ../../spresense-exported-sdk/nuttx/libs/libapps.a(nsh_command.o)
                0x000000000d011074                nsh_extmatch_getname
 .text          0x000000000d011080        0x0 ../../spresense-exported-sdk/nuttx/libs/libapps.a(nsh_fscmds.o)
 .text.nsh_getdirpath
                0x000000000d011080       0x58 ../../spresense-exported-sdk/nuttx/libs/libapps.a(nsh_fscmds.o)
 .text.ls_specialdir
                0x000000000d0110d8       0x28 ../../spresense-exported-sdk/nuttx/libs/libapps.a(nsh_fscmds.o)
 .text.ls_handler
                0x000000000d011100      0x194 ../../spresense-exported-sdk/nuttx/libs/libapps.a(nsh_fscmds.o)
 .text.ls_recursive
                0x000000000d011294       0x78 ../../spresense-exported-sdk/nuttx/libs/libapps.a(nsh_fscmds.o)
 .text.cmd_basename
                0x000000000d01130c       0x48 ../../spresense-exported-sdk/nuttx/libs/libapps.a(nsh_fscmds.o)
                0x000000000d01130c                cmd_basename
 .text.cmd_dirname
                0x000000000d011354       0x1c ../../spresense-exported-sdk/nuttx/libs/libapps.a(nsh_fscmds.o)
                0x000000000d011354                cmd_dirname
 .text.cmd_cat  0x000000000d011370       0x5c ../../spresense-exported-sdk/nuttx/libs/libapps.a(nsh_fscmds.o)
                0x000000000d011370                cmd_cat
 .text.cmd_cp   0x000000000d0113cc      0x1bc ../../spresense-exported-sdk/nuttx/libs/libapps.a(nsh_fscmds.o)
                0x000000000d0113cc                cmd_cp
 .text.cmd_ls   0x000000000d011588      0x168 ../../spresense-exported-sdk/nuttx/libs/libapps.a(nsh_fscmds.o)
                0x000000000d011588                cmd_ls
 .text.cmd_mkdir
                0x000000000d0116f0       0x54 ../../spresense-exported-sdk/nuttx/libs/libapps.a(nsh_fscmds.o)
                0x000000000d0116f0                cmd_mkdir
 .text.cmd_mkfatfs
                0x000000000d011744      0x12c ../../spresense-exported-sdk/nuttx/libs/libapps.a(nsh_fscmds.o)
                0x000000000d011744                cmd_mkfatfs
 .text.cmd_mkfifo
                0x000000000d011870       0x54 ../../spresense-exported-sdk/nuttx/libs/libapps.a(nsh_fscmds.o)
                0x000000000d011870                cmd_mkfifo
 .text.cmd_mkrd
                0x000000000d0118c4      0x108 ../../spresense-exported-sdk/nuttx/libs/libapps.a(nsh_fscmds.o)
                0x000000000d0118c4                cmd_mkrd
 .text.cmd_mksmartfs
                0x000000000d0119cc      0x118 ../../spresense-exported-sdk/nuttx/libs/libapps.a(nsh_fscmds.o)
                0x000000000d0119cc                cmd_mksmartfs
 .text.cmd_mv   0x000000000d011ae4       0x88 ../../spresense-exported-sdk/nuttx/libs/libapps.a(nsh_fscmds.o)
                0x000000000d011ae4                cmd_mv
 .text.cmd_rm   0x000000000d011b6c       0x50 ../../spresense-exported-sdk/nuttx/libs/libapps.a(nsh_fscmds.o)
                0x000000000d011b6c                cmd_rm
 .text.cmd_rmdir
                0x000000000d011bbc       0x50 ../../spresense-exported-sdk/nuttx/libs/libapps.a(nsh_fscmds.o)
                0x000000000d011bbc                cmd_rmdir
 .text.cmd_sh   0x000000000d011c0c        0x8 ../../spresense-exported-sdk/nuttx/libs/libapps.a(nsh_fscmds.o)
                0x000000000d011c0c                cmd_sh
 .text.cmd_cmp  0x000000000d011c14      0x140 ../../spresense-exported-sdk/nuttx/libs/libapps.a(nsh_fscmds.o)
                0x000000000d011c14                cmd_cmp
 .text          0x000000000d011d54        0x0 ../../spresense-exported-sdk/nuttx/libs/libapps.a(nsh_ddcmd.o)
 .text.cmd_dd   0x000000000d011d54      0x2a4 ../../spresense-exported-sdk/nuttx/libs/libapps.a(nsh_ddcmd.o)
                0x000000000d011d54                cmd_dd
 .text          0x000000000d011ff8        0x0 ../../spresense-exported-sdk/nuttx/libs/libapps.a(nsh_proccmds.o)
 .text.ps_callback
                0x000000000d011ff8      0x3f0 ../../spresense-exported-sdk/nuttx/libs/libapps.a(nsh_proccmds.o)
 .text.cmd_exec
                0x000000000d0123e8       0x48 ../../spresense-exported-sdk/nuttx/libs/libapps.a(nsh_proccmds.o)
                0x000000000d0123e8                cmd_exec
 .text.cmd_ps   0x000000000d012430       0xd4 ../../spresense-exported-sdk/nuttx/libs/libapps.a(nsh_proccmds.o)
                0x000000000d012430                cmd_ps
 .text.cmd_kill
                0x000000000d012504       0x9c ../../spresense-exported-sdk/nuttx/libs/libapps.a(nsh_proccmds.o)
                0x000000000d012504                cmd_kill
 .text.cmd_sleep
                0x000000000d0125a0       0x3c ../../spresense-exported-sdk/nuttx/libs/libapps.a(nsh_proccmds.o)
                0x000000000d0125a0                cmd_sleep
 .text.cmd_usleep
                0x000000000d0125dc       0x3c ../../spresense-exported-sdk/nuttx/libs/libapps.a(nsh_proccmds.o)
                0x000000000d0125dc                cmd_usleep
 .text          0x000000000d012618        0x0 ../../spresense-exported-sdk/nuttx/libs/libapps.a(nsh_mmcmds.o)
 .text.cmd_free
                0x000000000d012618       0x10 ../../spresense-exported-sdk/nuttx/libs/libapps.a(nsh_mmcmds.o)
                0x000000000d012618                cmd_free
 .text          0x000000000d012628        0x0 ../../spresense-exported-sdk/nuttx/libs/libapps.a(nsh_timcmds.o)
 .text.cmd_time
                0x000000000d012628       0xb8 ../../spresense-exported-sdk/nuttx/libs/libapps.a(nsh_timcmds.o)
                0x000000000d012628                cmd_time
 .text.cmd_date
                0x000000000d0126e0      0x208 ../../spresense-exported-sdk/nuttx/libs/libapps.a(nsh_timcmds.o)
                0x000000000d0126e0                cmd_date
 .text          0x000000000d0128e8        0x0 ../../spresense-exported-sdk/nuttx/libs/libapps.a(nsh_envcmds.o)
 .text.nsh_getcwd
                0x000000000d0128e8       0x1c ../../spresense-exported-sdk/nuttx/libs/libapps.a(nsh_envcmds.o)
                0x000000000d0128e8                nsh_getcwd
 .text.nsh_getfullpath
                0x000000000d012904       0xa8 ../../spresense-exported-sdk/nuttx/libs/libapps.a(nsh_envcmds.o)
                0x000000000d012904                nsh_getfullpath
 .text.nsh_freefullpath
                0x000000000d0129ac        0x8 ../../spresense-exported-sdk/nuttx/libs/libapps.a(nsh_envcmds.o)
                0x000000000d0129ac                nsh_freefullpath
 .text.cmd_cd   0x000000000d0129b4       0xc8 ../../spresense-exported-sdk/nuttx/libs/libapps.a(nsh_envcmds.o)
                0x000000000d0129b4                cmd_cd
 .text.cmd_echo
                0x000000000d012a7c       0x70 ../../spresense-exported-sdk/nuttx/libs/libapps.a(nsh_envcmds.o)
                0x000000000d012a7c                cmd_echo
 .text.cmd_pwd  0x000000000d012aec       0x1c ../../spresense-exported-sdk/nuttx/libs/libapps.a(nsh_envcmds.o)
                0x000000000d012aec                cmd_pwd
 .text.cmd_set  0x000000000d012b08      0x118 ../../spresense-exported-sdk/nuttx/libs/libapps.a(nsh_envcmds.o)
                0x000000000d012b08                cmd_set
 .text.cmd_unset
                0x000000000d012c20       0x3c ../../spresense-exported-sdk/nuttx/libs/libapps.a(nsh_envcmds.o)
                0x000000000d012c20                cmd_unset
 .text          0x000000000d012c5c        0x0 ../../spresense-exported-sdk/nuttx/libs/libapps.a(nsh_syscmds.o)
 .text.cmd_poweroff
                0x000000000d012c5c       0x4c ../../spresense-exported-sdk/nuttx/libs/libapps.a(nsh_syscmds.o)
                0x000000000d012c5c                cmd_poweroff
 .text.cmd_reboot
                0x000000000d012ca8       0x4c ../../spresense-exported-sdk/nuttx/libs/libapps.a(nsh_syscmds.o)
                0x000000000d012ca8                cmd_reboot
 .text.cmd_uname
                0x000000000d012cf4      0x168 ../../spresense-exported-sdk/nuttx/libs/libapps.a(nsh_syscmds.o)
                0x000000000d012cf4                cmd_uname
 .text          0x000000000d012e5c        0x0 ../../spresense-exported-sdk/nuttx/libs/libapps.a(nsh_dbgcmds.o)
 .text.mem_parse.isra.0
                0x000000000d012e5c       0x4e ../../spresense-exported-sdk/nuttx/libs/libapps.a(nsh_dbgcmds.o)
 *fill*         0x000000000d012eaa        0x2 
 .text.cmd_mb   0x000000000d012eac       0x98 ../../spresense-exported-sdk/nuttx/libs/libapps.a(nsh_dbgcmds.o)
                0x000000000d012eac                cmd_mb
 .text.cmd_mh   0x000000000d012f44       0xa0 ../../spresense-exported-sdk/nuttx/libs/libapps.a(nsh_dbgcmds.o)
                0x000000000d012f44                cmd_mh
 .text.cmd_mw   0x000000000d012fe4       0x80 ../../spresense-exported-sdk/nuttx/libs/libapps.a(nsh_dbgcmds.o)
                0x000000000d012fe4                cmd_mw
 .text.nsh_dumpbuffer
                0x000000000d013064       0xbc ../../spresense-exported-sdk/nuttx/libs/libapps.a(nsh_dbgcmds.o)
                0x000000000d013064                nsh_dumpbuffer
 .text.cmd_xd   0x000000000d013120       0x58 ../../spresense-exported-sdk/nuttx/libs/libapps.a(nsh_dbgcmds.o)
                0x000000000d013120                cmd_xd
 .text.cmd_hexdump
                0x000000000d013178      0x184 ../../spresense-exported-sdk/nuttx/libs/libapps.a(nsh_dbgcmds.o)
                0x000000000d013178                cmd_hexdump
 .text          0x000000000d0132fc        0x0 ../../spresense-exported-sdk/nuttx/libs/libapps.a(nsh_fsutils.o)
 .text.isspace  0x000000000d0132fc       0x14 ../../spresense-exported-sdk/nuttx/libs/libapps.a(nsh_fsutils.o)
 .text.nsh_catfile
                0x000000000d013310      0x104 ../../spresense-exported-sdk/nuttx/libs/libapps.a(nsh_fsutils.o)
                0x000000000d013310                nsh_catfile
 .text.nsh_readfile
                0x000000000d013414       0xa4 ../../spresense-exported-sdk/nuttx/libs/libapps.a(nsh_fsutils.o)
                0x000000000d013414                nsh_readfile
 .text.nsh_foreach_direntry
                0x000000000d0134b8       0x5c ../../spresense-exported-sdk/nuttx/libs/libapps.a(nsh_fsutils.o)
                0x000000000d0134b8                nsh_foreach_direntry
 .text.nsh_trimdir
                0x000000000d013514       0x24 ../../spresense-exported-sdk/nuttx/libs/libapps.a(nsh_fsutils.o)
                0x000000000d013514                nsh_trimdir
 .text.nsh_trimspaces
                0x000000000d013538       0x3c ../../spresense-exported-sdk/nuttx/libs/libapps.a(nsh_fsutils.o)
                0x000000000d013538                nsh_trimspaces
 .text          0x000000000d013574        0x0 ../../spresense-exported-sdk/nuttx/libs/libapps.a(nsh_builtin.o)
 .text.nsh_builtin
                0x000000000d013574       0xc0 ../../spresense-exported-sdk/nuttx/libs/libapps.a(nsh_builtin.o)
                0x000000000d013574                nsh_builtin
 .text          0x000000000d013634        0x0 ../../spresense-exported-sdk/nuttx/libs/libapps.a(nsh_netcmds.o)
 .text.ifconfig_callback
                0x000000000d013634       0x2c ../../spresense-exported-sdk/nuttx/libs/libapps.a(nsh_netcmds.o)
 .text.nsh_foreach_netdev.constprop.0
                0x000000000d013660       0x74 ../../spresense-exported-sdk/nuttx/libs/libapps.a(nsh_netcmds.o)
 .text.tftpc_parseargs
                0x000000000d0136d4      0x114 ../../spresense-exported-sdk/nuttx/libs/libapps.a(nsh_netcmds.o)
                0x000000000d0136d4                tftpc_parseargs
 .text.cmd_ifup
                0x000000000d0137e8       0x54 ../../spresense-exported-sdk/nuttx/libs/libapps.a(nsh_netcmds.o)
                0x000000000d0137e8                cmd_ifup
 .text.cmd_ifdown
                0x000000000d01383c       0x54 ../../spresense-exported-sdk/nuttx/libs/libapps.a(nsh_netcmds.o)
                0x000000000d01383c                cmd_ifdown
 .text.cmd_ifconfig
                0x000000000d013890      0x12c ../../spresense-exported-sdk/nuttx/libs/libapps.a(nsh_netcmds.o)
                0x000000000d013890                cmd_ifconfig
 .text          0x000000000d0139bc        0x0 ../../spresense-exported-sdk/nuttx/libs/libapps.a(nsh_mntcmds.o)
 .text.cmd_df   0x000000000d0139bc       0x34 ../../spresense-exported-sdk/nuttx/libs/libapps.a(nsh_mntcmds.o)
                0x000000000d0139bc                cmd_df
 .text.cmd_mount
                0x000000000d0139f0      0x158 ../../spresense-exported-sdk/nuttx/libs/libapps.a(nsh_mntcmds.o)
                0x000000000d0139f0                cmd_mount
 .text.cmd_umount
                0x000000000d013b48       0x54 ../../spresense-exported-sdk/nuttx/libs/libapps.a(nsh_mntcmds.o)
                0x000000000d013b48                cmd_umount
 .text          0x000000000d013b9c        0x0 ../../spresense-exported-sdk/nuttx/libs/libapps.a(nsh_consolemain.o)
 .text.nsh_consolemain
                0x000000000d013b9c       0x14 ../../spresense-exported-sdk/nuttx/libs/libapps.a(nsh_consolemain.o)
                0x000000000d013b9c                nsh_consolemain
 .text          0x000000000d013bb0        0x0 ../../spresense-exported-sdk/nuttx/libs/libapps.a(nsh_test.o)
 .text.expression
                0x000000000d013bb0      0x31c ../../spresense-exported-sdk/nuttx/libs/libapps.a(nsh_test.o)
 .text.cmd_test
                0x000000000d013ecc        0x8 ../../spresense-exported-sdk/nuttx/libs/libapps.a(nsh_test.o)
                0x000000000d013ecc                cmd_test
 .text.cmd_lbracket
                0x000000000d013ed4       0x40 ../../spresense-exported-sdk/nuttx/libs/libapps.a(nsh_test.o)
                0x000000000d013ed4                cmd_lbracket
 .text          0x000000000d013f14        0x0 ../../spresense-exported-sdk/nuttx/libs/libapps.a(exec_builtin.o)
 .text.exec_builtin
                0x000000000d013f14       0xd2 ../../spresense-exported-sdk/nuttx/libs/libapps.a(exec_builtin.o)
                0x000000000d013f14                exec_builtin
 .text          0x000000000d013fe6        0x0 ../../spresense-exported-sdk/nuttx/libs/libapps.a(readline_common.o)
 *fill*         0x000000000d013fe6        0x2 
 .text.tab_completion
                0x000000000d013fe8      0x21c ../../spresense-exported-sdk/nuttx/libs/libapps.a(readline_common.o)
 .text.readline_prompt
                0x000000000d014204       0x10 ../../spresense-exported-sdk/nuttx/libs/libapps.a(readline_common.o)
                0x000000000d014204                readline_prompt
 .text.readline_extmatch
                0x000000000d014214       0x10 ../../spresense-exported-sdk/nuttx/libs/libapps.a(readline_common.o)
                0x000000000d014214                readline_extmatch
 .text.readline_common
                0x000000000d014224      0x1e8 ../../spresense-exported-sdk/nuttx/libs/libapps.a(readline_common.o)
                0x000000000d014224                readline_common
 .text          0x000000000d01440c        0x0 ../../spresense-exported-sdk/nuttx/libs/libapps.a(netlib_ipv4addrconv.o)
 .text.netlib_ipv4addrconv
                0x000000000d01440c       0x54 ../../spresense-exported-sdk/nuttx/libs/libapps.a(netlib_ipv4addrconv.o)
                0x000000000d01440c                netlib_ipv4addrconv
 .text          0x000000000d014460        0x0 ../../spresense-exported-sdk/nuttx/libs/libapps.a(netlib_ethaddrconv.o)
 .text.netlib_ethaddrconv
                0x000000000d014460       0x7a ../../spresense-exported-sdk/nuttx/libs/libapps.a(netlib_ethaddrconv.o)
                0x000000000d014460                netlib_ethaddrconv
 .text          0x000000000d0144da        0x0 ../../spresense-exported-sdk/nuttx/libs/libapps.a(netlib_setifstatus.o)
 .text.netlib_ifup
                0x000000000d0144da       0x56 ../../spresense-exported-sdk/nuttx/libs/libapps.a(netlib_setifstatus.o)
                0x000000000d0144da                netlib_ifup
 .text.netlib_ifdown
                0x000000000d014530       0x56 ../../spresense-exported-sdk/nuttx/libs/libapps.a(netlib_setifstatus.o)
                0x000000000d014530                netlib_ifdown
 .text          0x000000000d014586        0x0 ../../spresense-exported-sdk/nuttx/libs/libapps.a(netlib_setmacaddr.o)
 .text.netlib_setmacaddr
                0x000000000d014586       0x58 ../../spresense-exported-sdk/nuttx/libs/libapps.a(netlib_setmacaddr.o)
                0x000000000d014586                netlib_setmacaddr
 .text          0x000000000d0145de        0x0 ../../spresense-exported-sdk/nuttx/libs/libapps.a(netinit.o)
 *fill*         0x000000000d0145de        0x2 
 .text.netinit_bringup
                0x000000000d0145e0       0x10 ../../spresense-exported-sdk/nuttx/libs/libapps.a(netinit.o)
                0x000000000d0145e0                netinit_bringup
 .text          0x000000000d0145f0        0x0 ../../spresense-exported-sdk/nuttx/libs/libapps.a(mksmartfs.o)
 .text.issmartfs
                0x000000000d0145f0       0x42 ../../spresense-exported-sdk/nuttx/libs/libapps.a(mksmartfs.o)
                0x000000000d0145f0                issmartfs
 .text.mksmartfs
                0x000000000d014632       0x9a ../../spresense-exported-sdk/nuttx/libs/libapps.a(mksmartfs.o)
                0x000000000d014632                mksmartfs
 .text          0x000000000d0146cc        0x0 ../../spresense-exported-sdk/nuttx/libs/libapps.a(mkfatfs.o)
 .text.mkfatfs  0x000000000d0146cc      0x13a ../../spresense-exported-sdk/nuttx/libs/libapps.a(mkfatfs.o)
                0x000000000d0146cc                mkfatfs
 .text          0x000000000d014806        0x0 ../../spresense-exported-sdk/nuttx/libs/libapps.a(configfat.o)
 *fill*         0x000000000d014806        0x2 
 .text.mkfatfs_configfatfs
                0x000000000d014808      0x3bc ../../spresense-exported-sdk/nuttx/libs/libapps.a(configfat.o)
                0x000000000d014808                mkfatfs_configfatfs
 .text          0x000000000d014bc4        0x0 ../../spresense-exported-sdk/nuttx/libs/libapps.a(writefat.o)
 .text.mkfatfs_initmbr
                0x000000000d014bc4      0x164 ../../spresense-exported-sdk/nuttx/libs/libapps.a(writefat.o)
 .text.mkfatfs_devwrite.isra.0
                0x000000000d014d28       0x58 ../../spresense-exported-sdk/nuttx/libs/libapps.a(writefat.o)
 .text.mkfatfs_writefatfs
                0x000000000d014d80      0x1d4 ../../spresense-exported-sdk/nuttx/libs/libapps.a(writefat.o)
                0x000000000d014d80                mkfatfs_writefatfs
 .text          0x000000000d014f54        0x0 ../../spresense-exported-sdk/nuttx/libs/libapps.a(nsh_console.o)
 .text.nsh_consolelinebuffer
                0x000000000d014f54        0x6 ../../spresense-exported-sdk/nuttx/libs/libapps.a(nsh_console.o)
 .text.nsh_consoleredirect
                0x000000000d014f5a       0x44 ../../spresense-exported-sdk/nuttx/libs/libapps.a(nsh_console.o)
 .text.nsh_closeifnotclosed
                0x000000000d014f9e       0x60 ../../spresense-exported-sdk/nuttx/libs/libapps.a(nsh_console.o)
 .text.nsh_consoleundirect
                0x000000000d014ffe       0x24 ../../spresense-exported-sdk/nuttx/libs/libapps.a(nsh_console.o)
 .text.nsh_consolerelease
                0x000000000d015022       0x12 ../../spresense-exported-sdk/nuttx/libs/libapps.a(nsh_console.o)
 .text.nsh_consoleexit
                0x000000000d015034        0xe ../../spresense-exported-sdk/nuttx/libs/libapps.a(nsh_console.o)
 *fill*         0x000000000d015042        0x2 
 .text.nsh_openifnotopen.part.0
                0x000000000d015044       0x30 ../../spresense-exported-sdk/nuttx/libs/libapps.a(nsh_console.o)
 .text.nsh_consolewrite
                0x000000000d015074       0x3a ../../spresense-exported-sdk/nuttx/libs/libapps.a(nsh_console.o)
 .text.nsh_erroroutput
                0x000000000d0150ae       0x32 ../../spresense-exported-sdk/nuttx/libs/libapps.a(nsh_console.o)
 .text.nsh_consoleoutput
                0x000000000d0150e0       0x32 ../../spresense-exported-sdk/nuttx/libs/libapps.a(nsh_console.o)
 *fill*         0x000000000d015112        0x2 
 .text.nsh_newconsole
                0x000000000d015114       0x80 ../../spresense-exported-sdk/nuttx/libs/libapps.a(nsh_console.o)
                0x000000000d015114                nsh_newconsole
 .text.nsh_consoleclone
                0x000000000d015194        0x8 ../../spresense-exported-sdk/nuttx/libs/libapps.a(nsh_console.o)
 .text          0x000000000d01519c        0x0 ../../spresense-exported-sdk/nuttx/libs/libapps.a(nsh_script.o)
 .text.nsh_script
                0x000000000d01519c      0x11c ../../spresense-exported-sdk/nuttx/libs/libapps.a(nsh_script.o)
                0x000000000d01519c                nsh_script
 .text          0x000000000d0152b8        0x0 ../../spresense-exported-sdk/nuttx/libs/libapps.a(nsh_session.o)
 .text.nsh_session
                0x000000000d0152b8       0x90 ../../spresense-exported-sdk/nuttx/libs/libapps.a(nsh_session.o)
                0x000000000d0152b8                nsh_session
 .text          0x000000000d015348        0x0 ../../spresense-exported-sdk/nuttx/libs/libapps.a(readline.o)
 .text.readline_write
                0x000000000d015348        0x6 ../../spresense-exported-sdk/nuttx/libs/libapps.a(readline.o)
 .text.readline_putc
                0x000000000d01534e       0x26 ../../spresense-exported-sdk/nuttx/libs/libapps.a(readline.o)
 .text.readline_getc
                0x000000000d015374       0x30 ../../spresense-exported-sdk/nuttx/libs/libapps.a(readline.o)
 .text.readline
                0x000000000d0153a4       0x34 ../../spresense-exported-sdk/nuttx/libs/libapps.a(readline.o)
                0x000000000d0153a4                readline
 .text          0x000000000d0153d8        0x0 ../../spresense-exported-sdk/nuttx/libs/libnuttx.a(sched-clock_settime.o)
 .text.clock_settime
                0x000000000d0153d8       0x70 ../../spresense-exported-sdk/nuttx/libs/libnuttx.a(sched-clock_settime.o)
                0x000000000d0153d8                clock_settime
 .text          0x000000000d015448        0x0 ../../spresense-exported-sdk/nuttx/libs/libnuttx.a(sched-env_getenv.o)
 .text.getenv   0x000000000d015448       0x48 ../../spresense-exported-sdk/nuttx/libs/libnuttx.a(sched-env_getenv.o)
                0x000000000d015448                getenv
 .text          0x000000000d015490        0x0 ../../spresense-exported-sdk/nuttx/libs/libnuttx.a(sched-env_setenv.o)
 .text.setenv   0x000000000d015490       0xb0 ../../spresense-exported-sdk/nuttx/libs/libnuttx.a(sched-env_setenv.o)
                0x000000000d015490                setenv
 .text          0x000000000d015540        0x0 ../../spresense-exported-sdk/nuttx/libs/libnuttx.a(sched-env_unsetenv.o)
 .text.unsetenv
                0x000000000d015540       0x64 ../../spresense-exported-sdk/nuttx/libs/libnuttx.a(sched-env_unsetenv.o)
                0x000000000d015540                unsetenv
 .text          0x000000000d0155a4        0x0 ../../spresense-exported-sdk/nuttx/libs/libnuttx.a(sched-pthread_create.o)
 .text.pthread_start
                0x000000000d0155a4       0x5c ../../spresense-exported-sdk/nuttx/libs/libnuttx.a(sched-pthread_create.o)
 .text.pthread_create
                0x000000000d015600      0x1f4 ../../spresense-exported-sdk/nuttx/libs/libnuttx.a(sched-pthread_create.o)
                0x000000000d015600                pthread_create
 .text          0x000000000d0157f4        0x0 ../../spresense-exported-sdk/nuttx/libs/libnuttx.a(sched-pthread_detach.o)
 .text.pthread_detach
                0x000000000d0157f4       0x48 ../../spresense-exported-sdk/nuttx/libs/libnuttx.a(sched-pthread_detach.o)
                0x000000000d0157f4                pthread_detach
 .text          0x000000000d01583c        0x0 ../../spresense-exported-sdk/nuttx/libs/libnuttx.a(sched-pthread_exit.o)
 .text.pthread_exit
                0x000000000d01583c       0x48 ../../spresense-exported-sdk/nuttx/libs/libnuttx.a(sched-pthread_exit.o)
                0x000000000d01583c                pthread_exit
 .text          0x000000000d015884        0x0 ../../spresense-exported-sdk/nuttx/libs/libnuttx.a(sched-pthread_findjoininfo.o)
 .text.pthread_findjoininfo
                0x000000000d015884       0x12 ../../spresense-exported-sdk/nuttx/libs/libnuttx.a(sched-pthread_findjoininfo.o)
                0x000000000d015884                pthread_findjoininfo
 .text          0x000000000d015896        0x0 ../../spresense-exported-sdk/nuttx/libs/libnuttx.a(sched-pthread_initialize.o)
 .text.pthread_initialize
                0x000000000d015896        0x2 ../../spresense-exported-sdk/nuttx/libs/libnuttx.a(sched-pthread_initialize.o)
                0x000000000d015896                pthread_initialize
 .text.pthread_sem_take
                0x000000000d015898       0x40 ../../spresense-exported-sdk/nuttx/libs/libnuttx.a(sched-pthread_initialize.o)
                0x000000000d015898                pthread_sem_take
 .text.pthread_sem_give
                0x000000000d0158d8       0x18 ../../spresense-exported-sdk/nuttx/libs/libnuttx.a(sched-pthread_initialize.o)
                0x000000000d0158d8                pthread_sem_give
 .text          0x000000000d0158f0        0x0 ../../spresense-exported-sdk/nuttx/libs/libnuttx.a(sched-pthread_mutexinconsistent.o)
 .text.pthread_mutex_inconsistent
                0x000000000d0158f0       0x44 ../../spresense-exported-sdk/nuttx/libs/libnuttx.a(sched-pthread_mutexinconsistent.o)
                0x000000000d0158f0                pthread_mutex_inconsistent
 .text          0x000000000d015934        0x0 ../../spresense-exported-sdk/nuttx/libs/libnuttx.a(sched-sched_getparam.o)
 .text.nxsched_getparam
                0x000000000d015934       0x48 ../../spresense-exported-sdk/nuttx/libs/libnuttx.a(sched-sched_getparam.o)
                0x000000000d015934                nxsched_getparam
 .text.sched_getparam
                0x000000000d01597c       0x1a ../../spresense-exported-sdk/nuttx/libs/libnuttx.a(sched-sched_getparam.o)
                0x000000000d01597c                sched_getparam
 .text          0x000000000d015996        0x0 ../../spresense-exported-sdk/nuttx/libs/libnuttx.a(sched-sched_getscheduler.o)
 *fill*         0x000000000d015996        0x2 
 .text.nxsched_getscheduler
                0x000000000d015998       0x24 ../../spresense-exported-sdk/nuttx/libs/libnuttx.a(sched-sched_getscheduler.o)
                0x000000000d015998                nxsched_getscheduler
 .text.sched_getscheduler
                0x000000000d0159bc       0x1a ../../spresense-exported-sdk/nuttx/libs/libnuttx.a(sched-sched_getscheduler.o)
                0x000000000d0159bc                sched_getscheduler
 .text          0x000000000d0159d6        0x0 ../../spresense-exported-sdk/nuttx/libs/libnuttx.a(sched-sched_setparam.o)
 *fill*         0x000000000d0159d6        0x2 
 .text.nxsched_setparam
                0x000000000d0159d8       0x44 ../../spresense-exported-sdk/nuttx/libs/libnuttx.a(sched-sched_setparam.o)
                0x000000000d0159d8                nxsched_setparam
 .text.sched_setparam
                0x000000000d015a1c       0x1a ../../spresense-exported-sdk/nuttx/libs/libnuttx.a(sched-sched_setparam.o)
                0x000000000d015a1c                sched_setparam
 .text          0x000000000d015a36        0x0 ../../spresense-exported-sdk/nuttx/libs/libnuttx.a(sched-sched_setpriority.o)
 *fill*         0x000000000d015a36        0x2 
 .text.nxsched_setpriority
                0x000000000d015a38       0x88 ../../spresense-exported-sdk/nuttx/libs/libnuttx.a(sched-sched_setpriority.o)
                0x000000000d015a38                nxsched_setpriority
 .text          0x000000000d015ac0        0x0 ../../spresense-exported-sdk/nuttx/libs/libnuttx.a(sched-sched_waitpid.o)
 .text.waitpid  0x000000000d015ac0      0x124 ../../spresense-exported-sdk/nuttx/libs/libnuttx.a(sched-sched_waitpid.o)
                0x000000000d015ac0                waitpid
 .text          0x000000000d015be4        0x0 ../../spresense-exported-sdk/nuttx/libs/libnuttx.a(sched-task_spawn.o)
 .text.nxtask_spawn_exec
                0x000000000d015be4       0x60 ../../spresense-exported-sdk/nuttx/libs/libnuttx.a(sched-task_spawn.o)
 .text.nxtask_spawn_proxy
                0x000000000d015c44       0x3c ../../spresense-exported-sdk/nuttx/libs/libnuttx.a(sched-task_spawn.o)
 .text.task_spawn
                0x000000000d015c80       0xc0 ../../spresense-exported-sdk/nuttx/libs/libnuttx.a(sched-task_spawn.o)
                0x000000000d015c80                task_spawn
 .text          0x000000000d015d40        0x0 ../../spresense-exported-sdk/nuttx/libs/libnuttx.a(sched-task_spawnparms.o)
 .text.spawn_semtake
                0x000000000d015d40       0x14 ../../spresense-exported-sdk/nuttx/libs/libnuttx.a(sched-task_spawnparms.o)
                0x000000000d015d40                spawn_semtake
 .text.spawn_execattrs
                0x000000000d015d54       0x48 ../../spresense-exported-sdk/nuttx/libs/libnuttx.a(sched-task_spawnparms.o)
                0x000000000d015d54                spawn_execattrs
 .text.spawn_proxyattrs
                0x000000000d015d9c       0x86 ../../spresense-exported-sdk/nuttx/libs/libnuttx.a(sched-task_spawnparms.o)
                0x000000000d015d9c                spawn_proxyattrs
 .text          0x000000000d015e22        0x0 ../../spresense-exported-sdk/nuttx/libs/libnuttx.a(boards-boardctl.o)
 .text.boardctl
                0x000000000d015e22       0xc2 ../../spresense-exported-sdk/nuttx/libs/libnuttx.a(boards-boardctl.o)
                0x000000000d015e22                boardctl
 .text          0x000000000d015ee4        0x0 ../../spresense-exported-sdk/nuttx/libs/libnuttx.a(c-lib_asprintf.o)
 .text.asprintf
                0x000000000d015ee4       0x1a ../../spresense-exported-sdk/nuttx/libs/libnuttx.a(c-lib_asprintf.o)
                0x000000000d015ee4                asprintf
 .text          0x000000000d015efe        0x0 ../../spresense-exported-sdk/nuttx/libs/libnuttx.a(c-lib_builtin_forindex.o)
 *fill*         0x000000000d015efe        0x2 
 .text.builtin_for_index
                0x000000000d015f00       0x1c ../../spresense-exported-sdk/nuttx/libs/libnuttx.a(c-lib_builtin_forindex.o)
                0x000000000d015f00                builtin_for_index
 .text          0x000000000d015f1c        0x0 ../../spresense-exported-sdk/nuttx/libs/libnuttx.a(c-lib_builtin_getname.o)
 .text.builtin_getname
                0x000000000d015f1c        0xc ../../spresense-exported-sdk/nuttx/libs/libnuttx.a(c-lib_builtin_getname.o)
                0x000000000d015f1c                builtin_getname
 .text          0x000000000d015f28        0x0 ../../spresense-exported-sdk/nuttx/libs/libnuttx.a(c-lib_builtin_isavail.o)
 .text.builtin_isavail
                0x000000000d015f28       0x26 ../../spresense-exported-sdk/nuttx/libs/libnuttx.a(c-lib_builtin_isavail.o)
                0x000000000d015f28                builtin_isavail
 .text          0x000000000d015f4e        0x0 ../../spresense-exported-sdk/nuttx/libs/libnuttx.a(c-lib_chdir.o)
 *fill*         0x000000000d015f4e        0x2 
 .text.chdir    0x000000000d015f50       0x78 ../../spresense-exported-sdk/nuttx/libs/libnuttx.a(c-lib_chdir.o)
                0x000000000d015f50                chdir
 .text          0x000000000d015fc8        0x0 ../../spresense-exported-sdk/nuttx/libs/libnuttx.a(c-lib_dirname.o)
 .text.dirname  0x000000000d015fc8       0x54 ../../spresense-exported-sdk/nuttx/libs/libnuttx.a(c-lib_dirname.o)
                0x000000000d015fc8                dirname
 .text          0x000000000d01601c        0x0 ../../spresense-exported-sdk/nuttx/libs/libnuttx.a(c-lib_fclose.o)
 .text.fclose   0x000000000d01601c       0x76 ../../spresense-exported-sdk/nuttx/libs/libnuttx.a(c-lib_fclose.o)
                0x000000000d01601c                fclose
 .text          0x000000000d016092        0x0 ../../spresense-exported-sdk/nuttx/libs/libnuttx.a(c-lib_fflush.o)
 .text.fflush   0x000000000d016092       0x2c ../../spresense-exported-sdk/nuttx/libs/libnuttx.a(c-lib_fflush.o)
                0x000000000d016092                fflush
 .text          0x000000000d0160be        0x0 ../../spresense-exported-sdk/nuttx/libs/libnuttx.a(c-lib_fgets.o)
 .text.fgets    0x000000000d0160be       0x1c ../../spresense-exported-sdk/nuttx/libs/libnuttx.a(c-lib_fgets.o)
                0x000000000d0160be                fgets
 .text          0x000000000d0160da        0x0 ../../spresense-exported-sdk/nuttx/libs/libnuttx.a(c-lib_fopen.o)
 .text.lib_mode2oflags
                0x000000000d0160da       0xa4 ../../spresense-exported-sdk/nuttx/libs/libnuttx.a(c-lib_fopen.o)
                0x000000000d0160da                lib_mode2oflags
 .text.fdopen   0x000000000d01617e       0x1e ../../spresense-exported-sdk/nuttx/libs/libnuttx.a(c-lib_fopen.o)
                0x000000000d01617e                fdopen
 .text.fopen    0x000000000d01619c       0x3c ../../spresense-exported-sdk/nuttx/libs/libnuttx.a(c-lib_fopen.o)
                0x000000000d01619c                fopen
 .text          0x000000000d0161d8        0x0 ../../spresense-exported-sdk/nuttx/libs/libnuttx.a(c-lib_fprintf.o)
 .text.fprintf  0x000000000d0161d8       0x1a ../../spresense-exported-sdk/nuttx/libs/libnuttx.a(c-lib_fprintf.o)
                0x000000000d0161d8                fprintf
 .text          0x000000000d0161f2        0x0 ../../spresense-exported-sdk/nuttx/libs/libnuttx.a(c-lib_fputs.o)
 .text.fputs    0x000000000d0161f2       0x5c ../../spresense-exported-sdk/nuttx/libs/libnuttx.a(c-lib_fputs.o)
                0x000000000d0161f2                fputs
 .text          0x000000000d01624e        0x0 ../../spresense-exported-sdk/nuttx/libs/libnuttx.a(c-lib_ftell.o)
 .text.ftell    0x000000000d01624e       0x4c ../../spresense-exported-sdk/nuttx/libs/libnuttx.a(c-lib_ftell.o)
                0x000000000d01624e                ftell
 .text          0x000000000d01629a        0x0 ../../spresense-exported-sdk/nuttx/libs/libnuttx.a(c-lib_fwrite.o)
 .text.fwrite   0x000000000d01629a       0x1a ../../spresense-exported-sdk/nuttx/libs/libnuttx.a(c-lib_fwrite.o)
                0x000000000d01629a                fwrite
 .text          0x000000000d0162b4        0x0 ../../spresense-exported-sdk/nuttx/libs/libnuttx.a(c-lib_getopt.o)
 .text.getopt   0x000000000d0162b4      0x134 ../../spresense-exported-sdk/nuttx/libs/libnuttx.a(c-lib_getopt.o)
                0x000000000d0162b4                getopt
 .text          0x000000000d0163e8        0x0 ../../spresense-exported-sdk/nuttx/libs/libnuttx.a(c-lib_gmtimer.o)
 .text.gmtime_r
                0x000000000d0163e8       0xe4 ../../spresense-exported-sdk/nuttx/libs/libnuttx.a(c-lib_gmtimer.o)
                0x000000000d0163e8                gmtime_r
 .text          0x000000000d0164cc        0x0 ../../spresense-exported-sdk/nuttx/libs/libnuttx.a(c-lib_isleapyear.o)
 .text.clock_isleapyear
                0x000000000d0164cc       0x2c ../../spresense-exported-sdk/nuttx/libs/libnuttx.a(c-lib_isleapyear.o)
                0x000000000d0164cc                clock_isleapyear
 .text          0x000000000d0164f8        0x0 ../../spresense-exported-sdk/nuttx/libs/libnuttx.a(c-lib_libfgets.o)
 .text.consume_eol
                0x000000000d0164f8       0x20 ../../spresense-exported-sdk/nuttx/libs/libnuttx.a(c-lib_libfgets.o)
 .text.lib_fgets
                0x000000000d016518       0x8a ../../spresense-exported-sdk/nuttx/libs/libnuttx.a(c-lib_libfgets.o)
                0x000000000d016518                lib_fgets
 .text          0x000000000d0165a2        0x0 ../../spresense-exported-sdk/nuttx/libs/libnuttx.a(c-lib_memcmp.o)
 .text.memcmp   0x000000000d0165a2       0x24 ../../spresense-exported-sdk/nuttx/libs/libnuttx.a(c-lib_memcmp.o)
                0x000000000d0165a2                memcmp
 .text          0x000000000d0165c6        0x0 ../../spresense-exported-sdk/nuttx/libs/libnuttx.a(c-lib_mkfifo.o)
 .text.mkfifo   0x000000000d0165c6        0x8 ../../spresense-exported-sdk/nuttx/libs/libnuttx.a(c-lib_mkfifo.o)
                0x000000000d0165c6                mkfifo
 .text          0x000000000d0165ce        0x0 ../../spresense-exported-sdk/nuttx/libs/libnuttx.a(c-lib_mktime.o)
 .text.mktime   0x000000000d0165ce       0x2a ../../spresense-exported-sdk/nuttx/libs/libnuttx.a(c-lib_mktime.o)
                0x000000000d0165ce                mktime
 .text          0x000000000d0165f8        0x0 ../../spresense-exported-sdk/nuttx/libs/libnuttx.a(c-lib_psa_init.o)
 .text.posix_spawnattr_init
                0x000000000d0165f8       0x3a ../../spresense-exported-sdk/nuttx/libs/libnuttx.a(c-lib_psa_init.o)
                0x000000000d0165f8                posix_spawnattr_init
 .text          0x000000000d016632        0x0 ../../spresense-exported-sdk/nuttx/libs/libnuttx.a(c-lib_psa_setflags.o)
 .text.posix_spawnattr_setflags
                0x000000000d016632        0x6 ../../spresense-exported-sdk/nuttx/libs/libnuttx.a(c-lib_psa_setflags.o)
                0x000000000d016632                posix_spawnattr_setflags
 .text          0x000000000d016638        0x0 ../../spresense-exported-sdk/nuttx/libs/libnuttx.a(c-lib_psa_setschedparam.o)
 .text.posix_spawnattr_setschedparam
                0x000000000d016638        0x8 ../../spresense-exported-sdk/nuttx/libs/libnuttx.a(c-lib_psa_setschedparam.o)
                0x000000000d016638                posix_spawnattr_setschedparam
 .text          0x000000000d016640        0x0 ../../spresense-exported-sdk/nuttx/libs/libnuttx.a(c-lib_psa_setschedpolicy.o)
 .text.posix_spawnattr_setschedpolicy
                0x000000000d016640        0x6 ../../spresense-exported-sdk/nuttx/libs/libnuttx.a(c-lib_psa_setschedpolicy.o)
                0x000000000d016640                posix_spawnattr_setschedpolicy
 .text          0x000000000d016646        0x0 ../../spresense-exported-sdk/nuttx/libs/libnuttx.a(c-lib_psa_setstacksize.o)
 .text.task_spawnattr_setstacksize
                0x000000000d016646        0x6 ../../spresense-exported-sdk/nuttx/libs/libnuttx.a(c-lib_psa_setstacksize.o)
                0x000000000d016646                task_spawnattr_setstacksize
 .text          0x000000000d01664c        0x0 ../../spresense-exported-sdk/nuttx/libs/libnuttx.a(c-lib_psfa_addopen.o)
 .text.posix_spawn_file_actions_addopen
                0x000000000d01664c       0x48 ../../spresense-exported-sdk/nuttx/libs/libnuttx.a(c-lib_psfa_addopen.o)
                0x000000000d01664c                posix_spawn_file_actions_addopen
 .text          0x000000000d016694        0x0 ../../spresense-exported-sdk/nuttx/libs/libnuttx.a(c-lib_psfa_destroy.o)
 .text.posix_spawn_file_actions_destroy
                0x000000000d016694       0x16 ../../spresense-exported-sdk/nuttx/libs/libnuttx.a(c-lib_psfa_destroy.o)
                0x000000000d016694                posix_spawn_file_actions_destroy
 .text          0x000000000d0166aa        0x0 ../../spresense-exported-sdk/nuttx/libs/libnuttx.a(c-lib_psfa_init.o)
 .text.posix_spawn_file_actions_init
                0x000000000d0166aa        0x8 ../../spresense-exported-sdk/nuttx/libs/libnuttx.a(c-lib_psfa_init.o)
                0x000000000d0166aa                posix_spawn_file_actions_init
 .text          0x000000000d0166b2        0x0 ../../spresense-exported-sdk/nuttx/libs/libnuttx.a(c-lib_sleep.o)
 *fill*         0x000000000d0166b2        0x2 
 .text.sleep    0x000000000d0166b4       0x38 ../../spresense-exported-sdk/nuttx/libs/libnuttx.a(c-lib_sleep.o)
                0x000000000d0166b4                sleep
 .text          0x000000000d0166ec        0x0 ../../spresense-exported-sdk/nuttx/libs/libnuttx.a(c-lib_strcat.o)
 .text.strcat   0x000000000d0166ec       0x20 ../../spresense-exported-sdk/nuttx/libs/libnuttx.a(c-lib_strcat.o)
                0x000000000d0166ec                strcat
 .text          0x000000000d01670c        0x0 ../../spresense-exported-sdk/nuttx/libs/libnuttx.a(c-lib_strftime.o)
 .text.strftime
                0x000000000d01670c      0x1b0 ../../spresense-exported-sdk/nuttx/libs/libnuttx.a(c-lib_strftime.o)
                0x000000000d01670c                strftime
 .text          0x000000000d0168bc        0x0 ../../spresense-exported-sdk/nuttx/libs/libnuttx.a(c-lib_strncasecmp.o)
 .text.strncasecmp
                0x000000000d0168bc       0x36 ../../spresense-exported-sdk/nuttx/libs/libnuttx.a(c-lib_strncasecmp.o)
                0x000000000d0168bc                strncasecmp
 .text          0x000000000d0168f2        0x0 ../../spresense-exported-sdk/nuttx/libs/libnuttx.a(c-lib_strtokr.o)
 .text.strtok_r
                0x000000000d0168f2       0x5a ../../spresense-exported-sdk/nuttx/libs/libnuttx.a(c-lib_strtokr.o)
                0x000000000d0168f2                strtok_r
 .text          0x000000000d01694c        0x0 ../../spresense-exported-sdk/nuttx/libs/libnuttx.a(c-lib_usleep.o)
 .text.usleep   0x000000000d01694c       0x30 ../../spresense-exported-sdk/nuttx/libs/libnuttx.a(c-lib_usleep.o)
                0x000000000d01694c                usleep
 .text          0x000000000d01697c        0x0 ../../spresense-exported-sdk/nuttx/libs/libnuttx.a(c-lib_utsname.o)
 .text.uname    0x000000000d01697c       0x84 ../../spresense-exported-sdk/nuttx/libs/libnuttx.a(c-lib_utsname.o)
                0x000000000d01697c                uname
 .text          0x000000000d016a00        0x0 ../../spresense-exported-sdk/nuttx/libs/libnuttx.a(c-lib_vasprintf.o)
 .text.vasprintf
                0x000000000d016a00       0x48 ../../spresense-exported-sdk/nuttx/libs/libnuttx.a(c-lib_vasprintf.o)
                0x000000000d016a00                vasprintf
 .text          0x000000000d016a48        0x0 ../../spresense-exported-sdk/nuttx/libs/libnuttx.a(c-pthread_attr_init.o)
 .text.pthread_attr_init
                0x000000000d016a48       0x18 ../../spresense-exported-sdk/nuttx/libs/libnuttx.a(c-pthread_attr_init.o)
                0x000000000d016a48                pthread_attr_init
 .text          0x000000000d016a60        0x0 ../../spresense-exported-sdk/nuttx/libs/libnuttx.a(c-pthread_attr_setschedparam.o)
 .text.pthread_attr_setschedparam
                0x000000000d016a60       0x10 ../../spresense-exported-sdk/nuttx/libs/libnuttx.a(c-pthread_attr_setschedparam.o)
                0x000000000d016a60                pthread_attr_setschedparam
 .text          0x000000000d016a70        0x0 ../../spresense-exported-sdk/nuttx/libs/libnuttx.a(c-pthread_attr_setschedpolicy.o)
 .text.pthread_attr_setschedpolicy
                0x000000000d016a70       0x12 ../../spresense-exported-sdk/nuttx/libs/libnuttx.a(c-pthread_attr_setschedpolicy.o)
                0x000000000d016a70                pthread_attr_setschedpolicy
 .text          0x000000000d016a82        0x0 ../../spresense-exported-sdk/nuttx/libs/libnuttx.a(c-sched_getprioritymax.o)
 .text.sched_get_priority_max
                0x000000000d016a82        0x4 ../../spresense-exported-sdk/nuttx/libs/libnuttx.a(c-sched_getprioritymax.o)
                0x000000000d016a82                sched_get_priority_max
 .text          0x000000000d016a86        0x0 ../../spresense-exported-sdk/nuttx/libs/libnuttx.a(c-sched_getprioritymin.o)
 .text.sched_get_priority_min
                0x000000000d016a86        0x4 ../../spresense-exported-sdk/nuttx/libs/libnuttx.a(c-sched_getprioritymin.o)
                0x000000000d016a86                sched_get_priority_min
 .text          0x000000000d016a8a        0x0 ../../spresense-exported-sdk/nuttx/libs/libnuttx.a(arch-up_usestack.o)
 .text.up_use_stack
                0x000000000d016a8a       0x34 ../../spresense-exported-sdk/nuttx/libs/libnuttx.a(arch-up_usestack.o)
                0x000000000d016a8a                up_use_stack
 .text          0x000000000d016abe        0x0 ../../spresense-exported-sdk/nuttx/libs/libnuttx.a(net-socket.o)
 *fill*         0x000000000d016abe        0x2 
 .text.psock_socket
                0x000000000d016ac0       0x5c ../../spresense-exported-sdk/nuttx/libs/libnuttx.a(net-socket.o)
                0x000000000d016ac0                psock_socket
 .text.socket   0x000000000d016b1c       0x46 ../../spresense-exported-sdk/nuttx/libs/libnuttx.a(net-socket.o)
                0x000000000d016b1c                socket
 .text          0x000000000d016b62        0x0 ../../spresense-exported-sdk/nuttx/libs/libnuttx.a(net-usrsock_sockif.o)
 .text.usrsock_sockif_sockcaps
                0x000000000d016b62        0x4 ../../spresense-exported-sdk/nuttx/libs/libnuttx.a(net-usrsock_sockif.o)
 .text.usrsock_sockif_addref
                0x000000000d016b66        0xa ../../spresense-exported-sdk/nuttx/libs/libnuttx.a(net-usrsock_sockif.o)
 .text.usrsock_sockif_send
                0x000000000d016b70       0x10 ../../spresense-exported-sdk/nuttx/libs/libnuttx.a(net-usrsock_sockif.o)
 .text.usrsock_sockif_close
                0x000000000d016b80       0x2e ../../spresense-exported-sdk/nuttx/libs/libnuttx.a(net-usrsock_sockif.o)
 .text.usrsock_sockif_setup
                0x000000000d016bae       0x2a ../../spresense-exported-sdk/nuttx/libs/libnuttx.a(net-usrsock_sockif.o)
 .text          0x000000000d016bd8        0x0 ../../spresense-exported-sdk/nuttx/libs/libnuttx.a(fs-fs_closedir.o)
 .text.closedir
                0x000000000d016bd8       0x62 ../../spresense-exported-sdk/nuttx/libs/libnuttx.a(fs-fs_closedir.o)
                0x000000000d016bd8                closedir
 .text          0x000000000d016c3a        0x0 ../../spresense-exported-sdk/nuttx/libs/libnuttx.a(fs-fs_dup2.o)
 .text.dup2     0x000000000d016c3a       0x30 ../../spresense-exported-sdk/nuttx/libs/libnuttx.a(fs-fs_dup2.o)
                0x000000000d016c3a                dup2
 .text          0x000000000d016c6a        0x0 ../../spresense-exported-sdk/nuttx/libs/libnuttx.a(fs-fs_ioctl.o)
 .text.file_ioctl
                0x000000000d016c6a       0x1a ../../spresense-exported-sdk/nuttx/libs/libnuttx.a(fs-fs_ioctl.o)
                0x000000000d016c6a                file_ioctl
 .text.ioctl    0x000000000d016c84       0x42 ../../spresense-exported-sdk/nuttx/libs/libnuttx.a(fs-fs_ioctl.o)
                0x000000000d016c84                ioctl
 .text          0x000000000d016cc6        0x0 ../../spresense-exported-sdk/nuttx/libs/libnuttx.a(fs-fs_mkdir.o)
 .text.mkdir    0x000000000d016cc6       0x80 ../../spresense-exported-sdk/nuttx/libs/libnuttx.a(fs-fs_mkdir.o)
                0x000000000d016cc6                mkdir
 .text          0x000000000d016d46        0x0 ../../spresense-exported-sdk/nuttx/libs/libnuttx.a(fs-fs_mount.o)
 *fill*         0x000000000d016d46        0x2 
 .text.mount    0x000000000d016d48      0x10c ../../spresense-exported-sdk/nuttx/libs/libnuttx.a(fs-fs_mount.o)
                0x000000000d016d48                mount
 .text          0x000000000d016e54        0x0 ../../spresense-exported-sdk/nuttx/libs/libnuttx.a(fs-fs_opendir.o)
 .text.opendir  0x000000000d016e54      0x158 ../../spresense-exported-sdk/nuttx/libs/libnuttx.a(fs-fs_opendir.o)
                0x000000000d016e54                opendir
 .text          0x000000000d016fac        0x0 ../../spresense-exported-sdk/nuttx/libs/libnuttx.a(fs-fs_readdir.o)
 .text.readdir  0x000000000d016fac       0xbc ../../spresense-exported-sdk/nuttx/libs/libnuttx.a(fs-fs_readdir.o)
                0x000000000d016fac                readdir
 .text          0x000000000d017068        0x0 ../../spresense-exported-sdk/nuttx/libs/libnuttx.a(fs-fs_read.o)
 .text.file_read
                0x000000000d017068       0x2a ../../spresense-exported-sdk/nuttx/libs/libnuttx.a(fs-fs_read.o)
                0x000000000d017068                file_read
 .text.nx_read  0x000000000d017092       0x30 ../../spresense-exported-sdk/nuttx/libs/libnuttx.a(fs-fs_read.o)
                0x000000000d017092                nx_read
 .text.read     0x000000000d0170c2       0x1a ../../spresense-exported-sdk/nuttx/libs/libnuttx.a(fs-fs_read.o)
                0x000000000d0170c2                read
 .text          0x000000000d0170dc        0x0 ../../spresense-exported-sdk/nuttx/libs/libnuttx.a(fs-fs_rename.o)
 .text.rename   0x000000000d0170dc      0x268 ../../spresense-exported-sdk/nuttx/libs/libnuttx.a(fs-fs_rename.o)
                0x000000000d0170dc                rename
 .text          0x000000000d017344        0x0 ../../spresense-exported-sdk/nuttx/libs/libnuttx.a(fs-fs_rmdir.o)
 .text.rmdir    0x000000000d017344       0x8e ../../spresense-exported-sdk/nuttx/libs/libnuttx.a(fs-fs_rmdir.o)
                0x000000000d017344                rmdir
 .text          0x000000000d0173d2        0x0 ../../spresense-exported-sdk/nuttx/libs/libnuttx.a(fs-fs_romfs.o)
 .text.romfs_ioctl
                0x000000000d0173d2       0x26 ../../spresense-exported-sdk/nuttx/libs/libnuttx.a(fs-fs_romfs.o)
 .text.romfs_rewinddir
                0x000000000d0173f8       0x24 ../../spresense-exported-sdk/nuttx/libs/libnuttx.a(fs-fs_romfs.o)
 .text.romfs_seek
                0x000000000d01741c       0x54 ../../spresense-exported-sdk/nuttx/libs/libnuttx.a(fs-fs_romfs.o)
 .text.romfs_stat
                0x000000000d017470       0x88 ../../spresense-exported-sdk/nuttx/libs/libnuttx.a(fs-fs_romfs.o)
 .text.romfs_statfs
                0x000000000d0174f8       0x4e ../../spresense-exported-sdk/nuttx/libs/libnuttx.a(fs-fs_romfs.o)
 .text.romfs_close
                0x000000000d017546       0x22 ../../spresense-exported-sdk/nuttx/libs/libnuttx.a(fs-fs_romfs.o)
 .text.romfs_bind
                0x000000000d017568       0x82 ../../spresense-exported-sdk/nuttx/libs/libnuttx.a(fs-fs_romfs.o)
 .text.romfs_readdir
                0x000000000d0175ea       0x70 ../../spresense-exported-sdk/nuttx/libs/libnuttx.a(fs-fs_romfs.o)
 .text.romfs_opendir
                0x000000000d01765a       0x54 ../../spresense-exported-sdk/nuttx/libs/libnuttx.a(fs-fs_romfs.o)
 .text.romfs_dup
                0x000000000d0176ae       0x66 ../../spresense-exported-sdk/nuttx/libs/libnuttx.a(fs-fs_romfs.o)
 .text.romfs_read
                0x000000000d017714       0xb8 ../../spresense-exported-sdk/nuttx/libs/libnuttx.a(fs-fs_romfs.o)
 .text.romfs_open
                0x000000000d0177cc       0xc0 ../../spresense-exported-sdk/nuttx/libs/libnuttx.a(fs-fs_romfs.o)
 .text.romfs_unbind
                0x000000000d01788c       0x60 ../../spresense-exported-sdk/nuttx/libs/libnuttx.a(fs-fs_romfs.o)
 .text.romfs_fstat
                0x000000000d0178ec       0x72 ../../spresense-exported-sdk/nuttx/libs/libnuttx.a(fs-fs_romfs.o)
 .text          0x000000000d01795e        0x0 ../../spresense-exported-sdk/nuttx/libs/libnuttx.a(fs-fs_romfsutil.o)
 .text.romfs_devread32
                0x000000000d01795e       0x1c ../../spresense-exported-sdk/nuttx/libs/libnuttx.a(fs-fs_romfsutil.o)
 .text.romfs_semtake
                0x000000000d01797a       0x16 ../../spresense-exported-sdk/nuttx/libs/libnuttx.a(fs-fs_romfsutil.o)
                0x000000000d01797a                romfs_semtake
 .text.romfs_semgive
                0x000000000d017990        0x6 ../../spresense-exported-sdk/nuttx/libs/libnuttx.a(fs-fs_romfsutil.o)
                0x000000000d017990                romfs_semgive
 .text.romfs_hwread
                0x000000000d017996       0x60 ../../spresense-exported-sdk/nuttx/libs/libnuttx.a(fs-fs_romfsutil.o)
                0x000000000d017996                romfs_hwread
 .text.romfs_devcacheread
                0x000000000d0179f6       0x3e ../../spresense-exported-sdk/nuttx/libs/libnuttx.a(fs-fs_romfsutil.o)
                0x000000000d0179f6                romfs_devcacheread
 .text.romfs_followhardlinks
                0x000000000d017a34       0x44 ../../spresense-exported-sdk/nuttx/libs/libnuttx.a(fs-fs_romfsutil.o)
 .text.romfs_filecacheread
                0x000000000d017a78       0x2c ../../spresense-exported-sdk/nuttx/libs/libnuttx.a(fs-fs_romfsutil.o)
                0x000000000d017a78                romfs_filecacheread
 .text.romfs_hwconfigure
                0x000000000d017aa4       0xae ../../spresense-exported-sdk/nuttx/libs/libnuttx.a(fs-fs_romfsutil.o)
                0x000000000d017aa4                romfs_hwconfigure
 *fill*         0x000000000d017b52        0x2 
 .text.romfs_fsconfigure
                0x000000000d017b54       0x48 ../../spresense-exported-sdk/nuttx/libs/libnuttx.a(fs-fs_romfsutil.o)
                0x000000000d017b54                romfs_fsconfigure
 .text.romfs_fileconfigure
                0x000000000d017b9c       0x2e ../../spresense-exported-sdk/nuttx/libs/libnuttx.a(fs-fs_romfsutil.o)
                0x000000000d017b9c                romfs_fileconfigure
 .text.romfs_checkmount
                0x000000000d017bca       0x44 ../../spresense-exported-sdk/nuttx/libs/libnuttx.a(fs-fs_romfsutil.o)
                0x000000000d017bca                romfs_checkmount
 .text.romfs_parsedirentry
                0x000000000d017c0e       0x64 ../../spresense-exported-sdk/nuttx/libs/libnuttx.a(fs-fs_romfsutil.o)
                0x000000000d017c0e                romfs_parsedirentry
 .text.romfs_parsefilename
                0x000000000d017c72       0x74 ../../spresense-exported-sdk/nuttx/libs/libnuttx.a(fs-fs_romfsutil.o)
                0x000000000d017c72                romfs_parsefilename
 .text.romfs_finddirentry
                0x000000000d017ce6       0xfe ../../spresense-exported-sdk/nuttx/libs/libnuttx.a(fs-fs_romfsutil.o)
                0x000000000d017ce6                romfs_finddirentry
 .text.romfs_datastart
                0x000000000d017de4       0x46 ../../spresense-exported-sdk/nuttx/libs/libnuttx.a(fs-fs_romfsutil.o)
                0x000000000d017de4                romfs_datastart
 .text          0x000000000d017e2a        0x0 ../../spresense-exported-sdk/nuttx/libs/libnuttx.a(fs-fs_umount2.o)
 .text.umount2  0x000000000d017e2a       0xc2 ../../spresense-exported-sdk/nuttx/libs/libnuttx.a(fs-fs_umount2.o)
                0x000000000d017e2a                umount2
 .text          0x000000000d017eec        0x0 ../../spresense-exported-sdk/nuttx/libs/libnuttx.a(fs-smartfs_smart.o)
 .text.smartfs_ioctl
                0x000000000d017eec        0x6 ../../spresense-exported-sdk/nuttx/libs/libnuttx.a(fs-smartfs_smart.o)
 .text.smartfs_dup
                0x000000000d017ef2        0xe ../../spresense-exported-sdk/nuttx/libs/libnuttx.a(fs-smartfs_smart.o)
 .text.smartfs_rewinddir
                0x000000000d017f00        0xc ../../spresense-exported-sdk/nuttx/libs/libnuttx.a(fs-smartfs_smart.o)
 .text.smartfs_opendir
                0x000000000d017f0c       0x50 ../../spresense-exported-sdk/nuttx/libs/libnuttx.a(fs-smartfs_smart.o)
 .text.smartfs_statfs
                0x000000000d017f5c       0x6c ../../spresense-exported-sdk/nuttx/libs/libnuttx.a(fs-smartfs_smart.o)
 .text.smartfs_rename
                0x000000000d017fc8      0x108 ../../spresense-exported-sdk/nuttx/libs/libnuttx.a(fs-smartfs_smart.o)
 .text.smartfs_mkdir
                0x000000000d0180d0       0x78 ../../spresense-exported-sdk/nuttx/libs/libnuttx.a(fs-smartfs_smart.o)
 .text.smartfs_rmdir
                0x000000000d018148       0x6a ../../spresense-exported-sdk/nuttx/libs/libnuttx.a(fs-smartfs_smart.o)
 .text.smartfs_unlink
                0x000000000d0181b2       0x52 ../../spresense-exported-sdk/nuttx/libs/libnuttx.a(fs-smartfs_smart.o)
 .text.smartfs_bind
                0x000000000d018204       0x80 ../../spresense-exported-sdk/nuttx/libs/libnuttx.a(fs-smartfs_smart.o)
 .text.smartfs_readdir
                0x000000000d018284       0xdc ../../spresense-exported-sdk/nuttx/libs/libnuttx.a(fs-smartfs_smart.o)
 .text.smartfs_truncate
                0x000000000d018360       0x46 ../../spresense-exported-sdk/nuttx/libs/libnuttx.a(fs-smartfs_smart.o)
 .text.smartfs_sync
                0x000000000d0183a6       0x26 ../../spresense-exported-sdk/nuttx/libs/libnuttx.a(fs-smartfs_smart.o)
 .text.smartfs_close
                0x000000000d0183cc       0x68 ../../spresense-exported-sdk/nuttx/libs/libnuttx.a(fs-smartfs_smart.o)
 .text.smartfs_seek
                0x000000000d018434       0x34 ../../spresense-exported-sdk/nuttx/libs/libnuttx.a(fs-smartfs_smart.o)
 .text.smartfs_write
                0x000000000d018468      0x196 ../../spresense-exported-sdk/nuttx/libs/libnuttx.a(fs-smartfs_smart.o)
 .text.smartfs_read
                0x000000000d0185fe       0xc0 ../../spresense-exported-sdk/nuttx/libs/libnuttx.a(fs-smartfs_smart.o)
 .text.smartfs_open
                0x000000000d0186be      0x15e ../../spresense-exported-sdk/nuttx/libs/libnuttx.a(fs-smartfs_smart.o)
 .text.smartfs_stat
                0x000000000d01881c       0x8c ../../spresense-exported-sdk/nuttx/libs/libnuttx.a(fs-smartfs_smart.o)
 .text.smartfs_unbind
                0x000000000d0188a8       0x40 ../../spresense-exported-sdk/nuttx/libs/libnuttx.a(fs-smartfs_smart.o)
 .text.smartfs_fstat
                0x000000000d0188e8       0x62 ../../spresense-exported-sdk/nuttx/libs/libnuttx.a(fs-smartfs_smart.o)
 .text          0x000000000d01894a        0x0 ../../spresense-exported-sdk/nuttx/libs/libnuttx.a(board-cxd56_appinit.o)
 .text.board_app_initialize
                0x000000000d01894a        0x4 ../../spresense-exported-sdk/nuttx/libs/libnuttx.a(board-cxd56_appinit.o)
                0x000000000d01894a                board_app_initialize
 .text          0x000000000d01894e        0x0 ../../spresense-exported-sdk/nuttx/libs/libnuttx.a(board-cxd56_bringup.o)
 *fill*         0x000000000d01894e        0x2 
 .text.cxd56_bringup
                0x000000000d018950       0xb4 ../../spresense-exported-sdk/nuttx/libs/libnuttx.a(board-cxd56_bringup.o)
                0x000000000d018950                cxd56_bringup
 .text          0x000000000d018a04        0x0 ../../spresense-exported-sdk/nuttx/libs/libnuttx.a(board-cxd56_clock.o)
 .text.board_clock_initialize
                0x000000000d018a04        0xc ../../spresense-exported-sdk/nuttx/libs/libnuttx.a(board-cxd56_clock.o)
                0x000000000d018a04                board_clock_initialize
 .text.board_clock_enable
                0x000000000d018a10        0xc ../../spresense-exported-sdk/nuttx/libs/libnuttx.a(board-cxd56_clock.o)
                0x000000000d018a10                board_clock_enable
 .text          0x000000000d018a1c        0x0 ../../spresense-exported-sdk/nuttx/libs/libnuttx.a(board-cxd56_flash.o)
 .text.board_flash_initialize
                0x000000000d018a1c       0x50 ../../spresense-exported-sdk/nuttx/libs/libnuttx.a(board-cxd56_flash.o)
                0x000000000d018a1c                board_flash_initialize
 .text          0x000000000d018a6c        0x0 ../../spresense-exported-sdk/nuttx/libs/libnuttx.a(board-cxd56_i2cdev.o)
 .text.board_i2cdev_initialize
                0x000000000d018a6c       0x20 ../../spresense-exported-sdk/nuttx/libs/libnuttx.a(board-cxd56_i2cdev.o)
                0x000000000d018a6c                board_i2cdev_initialize
 .text          0x000000000d018a8c        0x0 ../../spresense-exported-sdk/nuttx/libs/libnuttx.a(board-cxd56_ioctl.o)
 .text.board_ioctl
                0x000000000d018a8c       0x14 ../../spresense-exported-sdk/nuttx/libs/libnuttx.a(board-cxd56_ioctl.o)
                0x000000000d018a8c                board_ioctl
 .text          0x000000000d018aa0        0x0 ../../spresense-exported-sdk/nuttx/libs/libnuttx.a(board-cxd56_power.o)
 .text.board_pmic_read
                0x000000000d018aa0        0x4 ../../spresense-exported-sdk/nuttx/libs/libnuttx.a(board-cxd56_power.o)
                0x000000000d018aa0                board_pmic_read
 .text.board_pmic_write
                0x000000000d018aa4        0x4 ../../spresense-exported-sdk/nuttx/libs/libnuttx.a(board-cxd56_power.o)
                0x000000000d018aa4                board_pmic_write
 .text.board_power_control
                0x000000000d018aa8       0x54 ../../spresense-exported-sdk/nuttx/libs/libnuttx.a(board-cxd56_power.o)
                0x000000000d018aa8                board_power_control
 .text.board_power_setup
                0x000000000d018afc       0x7a ../../spresense-exported-sdk/nuttx/libs/libnuttx.a(board-cxd56_power.o)
                0x000000000d018afc                board_power_setup
 *fill*         0x000000000d018b76        0x2 
 .text.board_flash_power_control.part.0
                0x000000000d018b78       0x30 ../../spresense-exported-sdk/nuttx/libs/libnuttx.a(board-cxd56_power.o)
 .text.board_power_control_tristate
                0x000000000d018ba8       0x3c ../../spresense-exported-sdk/nuttx/libs/libnuttx.a(board-cxd56_power.o)
                0x000000000d018ba8                board_power_control_tristate
 .text.board_power_monitor
                0x000000000d018be4       0x34 ../../spresense-exported-sdk/nuttx/libs/libnuttx.a(board-cxd56_power.o)
                0x000000000d018be4                board_power_monitor
 .text.board_power_monitor_tristate
                0x000000000d018c18       0x22 ../../spresense-exported-sdk/nuttx/libs/libnuttx.a(board-cxd56_power.o)
                0x000000000d018c18                board_power_monitor_tristate
 *fill*         0x000000000d018c3a        0x2 
 .text.board_flash_power_control
                0x000000000d018c3c       0x3c ../../spresense-exported-sdk/nuttx/libs/libnuttx.a(board-cxd56_power.o)
                0x000000000d018c3c                board_flash_power_control
 .text.board_flash_power_monitor
                0x000000000d018c78        0x8 ../../spresense-exported-sdk/nuttx/libs/libnuttx.a(board-cxd56_power.o)
                0x000000000d018c78                board_flash_power_monitor
 .text.board_xtal_power_control
                0x000000000d018c80       0x50 ../../spresense-exported-sdk/nuttx/libs/libnuttx.a(board-cxd56_power.o)
                0x000000000d018c80                board_xtal_power_control
 .text.board_xtal_power_monitor
                0x000000000d018cd0        0x8 ../../spresense-exported-sdk/nuttx/libs/libnuttx.a(board-cxd56_power.o)
                0x000000000d018cd0                board_xtal_power_monitor
 .text.board_lna_power_control
                0x000000000d018cd8       0x50 ../../spresense-exported-sdk/nuttx/libs/libnuttx.a(board-cxd56_power.o)
                0x000000000d018cd8                board_lna_power_control
 .text.board_reset
                0x000000000d018d28       0x24 ../../spresense-exported-sdk/nuttx/libs/libnuttx.a(board-cxd56_power.o)
                0x000000000d018d28                board_reset
 .text.board_power_off
                0x000000000d018d4c       0x4c ../../spresense-exported-sdk/nuttx/libs/libnuttx.a(board-cxd56_power.o)
                0x000000000d018d4c                board_power_off
 .text          0x000000000d018d98        0x0 ../../spresense-exported-sdk/nuttx/libs/libnuttx.a(board-cxd56_pwm.o)
 .text.board_pwm_setup
                0x000000000d018d98       0x14 ../../spresense-exported-sdk/nuttx/libs/libnuttx.a(board-cxd56_pwm.o)
                0x000000000d018d98                board_pwm_setup
 .text          0x000000000d018dac        0x0 ../../spresense-exported-sdk/nuttx/libs/libnuttx.a(board-cxd56_uid.o)
 .text.board_uniqueid
                0x000000000d018dac       0x12 ../../spresense-exported-sdk/nuttx/libs/libnuttx.a(board-cxd56_uid.o)
                0x000000000d018dac                board_uniqueid
 .text          0x000000000d018dbe        0x0 ../../spresense-exported-sdk/nuttx/libs/libnuttx.a(board-cxd56_usbmsc.o)
 .text.board_usbmsc_initialize
                0x000000000d018dbe        0x4 ../../spresense-exported-sdk/nuttx/libs/libnuttx.a(board-cxd56_usbmsc.o)
                0x000000000d018dbe                board_usbmsc_initialize
 .text          0x000000000d018dc2        0x0 ../../spresense-exported-sdk/nuttx/libs/libnuttx.a(sched-env_findvar.o)
 .text.env_findvar
                0x000000000d018dc2       0x38 ../../spresense-exported-sdk/nuttx/libs/libnuttx.a(sched-env_findvar.o)
                0x000000000d018dc2                env_findvar
 .text          0x000000000d018dfa        0x0 ../../spresense-exported-sdk/nuttx/libs/libnuttx.a(sched-env_removevar.o)
 .text.env_removevar
                0x000000000d018dfa       0x40 ../../spresense-exported-sdk/nuttx/libs/libnuttx.a(sched-env_removevar.o)
                0x000000000d018dfa                env_removevar
 .text          0x000000000d018e3a        0x0 ../../spresense-exported-sdk/nuttx/libs/libnuttx.a(sched-group_join.o)
 *fill*         0x000000000d018e3a        0x2 
 .text.group_bind
                0x000000000d018e3c       0x10 ../../spresense-exported-sdk/nuttx/libs/libnuttx.a(sched-group_join.o)
                0x000000000d018e3c                group_bind
 .text.group_join
                0x000000000d018e4c       0x4e ../../spresense-exported-sdk/nuttx/libs/libnuttx.a(sched-group_join.o)
                0x000000000d018e4c                group_join
 .text          0x000000000d018e9a        0x0 ../../spresense-exported-sdk/nuttx/libs/libnuttx.a(sched-pthread_completejoin.o)
 .text.pthread_destroyjoin
                0x000000000d018e9a       0x4c ../../spresense-exported-sdk/nuttx/libs/libnuttx.a(sched-pthread_completejoin.o)
                0x000000000d018e9a                pthread_destroyjoin
 .text.pthread_completejoin
                0x000000000d018ee6       0x96 ../../spresense-exported-sdk/nuttx/libs/libnuttx.a(sched-pthread_completejoin.o)
                0x000000000d018ee6                pthread_completejoin
 .text          0x000000000d018f7c        0x0 ../../spresense-exported-sdk/nuttx/libs/libnuttx.a(sched-sched_setscheduler.o)
 .text.nxsched_setscheduler
                0x000000000d018f7c       0x66 ../../spresense-exported-sdk/nuttx/libs/libnuttx.a(sched-sched_setscheduler.o)
                0x000000000d018f7c                nxsched_setscheduler
 .text.sched_setscheduler
                0x000000000d018fe2       0x1a ../../spresense-exported-sdk/nuttx/libs/libnuttx.a(sched-sched_setscheduler.o)
                0x000000000d018fe2                sched_setscheduler
 .text          0x000000000d018ffc        0x0 ../../spresense-exported-sdk/nuttx/libs/libnuttx.a(sched-task_getgroup.o)
 .text.task_getgroup
                0x000000000d018ffc        0xc ../../spresense-exported-sdk/nuttx/libs/libnuttx.a(sched-task_getgroup.o)
                0x000000000d018ffc                task_getgroup
 .text          0x000000000d019008        0x0 ../../spresense-exported-sdk/nuttx/libs/libnuttx.a(sched-task_reparent.o)
 .text.task_reparent
                0x000000000d019008       0x9c ../../spresense-exported-sdk/nuttx/libs/libnuttx.a(sched-task_reparent.o)
                0x000000000d019008                task_reparent
 .text          0x000000000d0190a4        0x0 ../../spresense-exported-sdk/nuttx/libs/libnuttx.a(drivers-cdcacm.o)
 .text.cdcacm_requeue_rdrequest
                0x000000000d0190a4       0x12 ../../spresense-exported-sdk/nuttx/libs/libnuttx.a(drivers-cdcacm.o)
 .text.cdcacm_allocreq
                0x000000000d0190b6       0x32 ../../spresense-exported-sdk/nuttx/libs/libnuttx.a(drivers-cdcacm.o)
 .text.cdcacm_ep0incomplete
                0x000000000d0190e8        0x2 ../../spresense-exported-sdk/nuttx/libs/libnuttx.a(drivers-cdcacm.o)
 .text.cdcuart_setup
                0x000000000d0190ea       0x12 ../../spresense-exported-sdk/nuttx/libs/libnuttx.a(drivers-cdcacm.o)
 .text.cdcuart_shutdown
                0x000000000d0190fc        0x2 ../../spresense-exported-sdk/nuttx/libs/libnuttx.a(drivers-cdcacm.o)
 .text.cdcuart_attach
                0x000000000d0190fe        0x4 ../../spresense-exported-sdk/nuttx/libs/libnuttx.a(drivers-cdcacm.o)
 .text.cdcuart_rxflowcontrol
                0x000000000d019102        0x4 ../../spresense-exported-sdk/nuttx/libs/libnuttx.a(drivers-cdcacm.o)
 .text.cdcuart_txempty
                0x000000000d019106       0x10 ../../spresense-exported-sdk/nuttx/libs/libnuttx.a(drivers-cdcacm.o)
 .text.cdcuart_ioctl
                0x000000000d019116      0x13a ../../spresense-exported-sdk/nuttx/libs/libnuttx.a(drivers-cdcacm.o)
 .text.cdcacm_resume
                0x000000000d019250       0x10 ../../spresense-exported-sdk/nuttx/libs/libnuttx.a(drivers-cdcacm.o)
 .text.cdcacm_suspend
                0x000000000d019260        0x8 ../../spresense-exported-sdk/nuttx/libs/libnuttx.a(drivers-cdcacm.o)
 .text.cdcacm_release_rxpending
                0x000000000d019268       0xdc ../../spresense-exported-sdk/nuttx/libs/libnuttx.a(drivers-cdcacm.o)
 .text.cdcacm_rdcomplete
                0x000000000d019344       0x4a ../../spresense-exported-sdk/nuttx/libs/libnuttx.a(drivers-cdcacm.o)
 .text.cdcacm_rxtimeout
                0x000000000d01938e       0x12 ../../spresense-exported-sdk/nuttx/libs/libnuttx.a(drivers-cdcacm.o)
 .text.cdcuart_rxint
                0x000000000d0193a0       0x2e ../../spresense-exported-sdk/nuttx/libs/libnuttx.a(drivers-cdcacm.o)
 .text.cdcacm_epconfigure
                0x000000000d0193ce       0x24 ../../spresense-exported-sdk/nuttx/libs/libnuttx.a(drivers-cdcacm.o)
 .text.cdcacm_sndpacket
                0x000000000d0193f2       0xdc ../../spresense-exported-sdk/nuttx/libs/libnuttx.a(drivers-cdcacm.o)
 .text.cdcacm_wrcomplete
                0x000000000d0194ce       0x3c ../../spresense-exported-sdk/nuttx/libs/libnuttx.a(drivers-cdcacm.o)
 .text.cdcuart_txint
                0x000000000d01950a       0x16 ../../spresense-exported-sdk/nuttx/libs/libnuttx.a(drivers-cdcacm.o)
 .text.cdcacm_freereq
                0x000000000d019520       0x24 ../../spresense-exported-sdk/nuttx/libs/libnuttx.a(drivers-cdcacm.o)
 .text.cdcacm_resetconfig
                0x000000000d019544       0x32 ../../spresense-exported-sdk/nuttx/libs/libnuttx.a(drivers-cdcacm.o)
 .text.cdcacm_disconnect
                0x000000000d019576       0x3c ../../spresense-exported-sdk/nuttx/libs/libnuttx.a(drivers-cdcacm.o)
 .text.cdcacm_unbind
                0x000000000d0195b2       0xb4 ../../spresense-exported-sdk/nuttx/libs/libnuttx.a(drivers-cdcacm.o)
 *fill*         0x000000000d019666        0x2 
 .text.cdcacm_bind
                0x000000000d019668      0x130 ../../spresense-exported-sdk/nuttx/libs/libnuttx.a(drivers-cdcacm.o)
 .text.cdcacm_setconfig
                0x000000000d019798       0xfc ../../spresense-exported-sdk/nuttx/libs/libnuttx.a(drivers-cdcacm.o)
 .text.cdcacm_setup
                0x000000000d019894      0x1f0 ../../spresense-exported-sdk/nuttx/libs/libnuttx.a(drivers-cdcacm.o)
 .text.cdcuart_detach
                0x000000000d019a84        0x2 ../../spresense-exported-sdk/nuttx/libs/libnuttx.a(drivers-cdcacm.o)
 *fill*         0x000000000d019a86        0x2 
 .text.cdcacm_initialize
                0x000000000d019a88       0xfc ../../spresense-exported-sdk/nuttx/libs/libnuttx.a(drivers-cdcacm.o)
                0x000000000d019a88                cdcacm_initialize
 .text.cdcacm_uninitialize
                0x000000000d019b84       0x38 ../../spresense-exported-sdk/nuttx/libs/libnuttx.a(drivers-cdcacm.o)
                0x000000000d019b84                cdcacm_uninitialize
 .text          0x000000000d019bbc        0x0 ../../spresense-exported-sdk/nuttx/libs/libnuttx.a(drivers-fifo.o)
 .text.mkfifo2  0x000000000d019bbc       0x40 ../../spresense-exported-sdk/nuttx/libs/libnuttx.a(drivers-fifo.o)
                0x000000000d019bbc                mkfifo2
 .text          0x000000000d019bfc        0x0 ../../spresense-exported-sdk/nuttx/libs/libnuttx.a(drivers-i2c_driver.o)
 .text.i2cdrvr_read
                0x000000000d019bfc        0x4 ../../spresense-exported-sdk/nuttx/libs/libnuttx.a(drivers-i2c_driver.o)
 .text.i2cdrvr_write
                0x000000000d019c00        0x4 ../../spresense-exported-sdk/nuttx/libs/libnuttx.a(drivers-i2c_driver.o)
 .text.i2cdrvr_unlink
                0x000000000d019c04       0x36 ../../spresense-exported-sdk/nuttx/libs/libnuttx.a(drivers-i2c_driver.o)
 .text.i2cdrvr_ioctl
                0x000000000d019c3a       0x46 ../../spresense-exported-sdk/nuttx/libs/libnuttx.a(drivers-i2c_driver.o)
 .text.i2cdrvr_close
                0x000000000d019c80       0x38 ../../spresense-exported-sdk/nuttx/libs/libnuttx.a(drivers-i2c_driver.o)
 .text.i2cdrvr_open
                0x000000000d019cb8       0x22 ../../spresense-exported-sdk/nuttx/libs/libnuttx.a(drivers-i2c_driver.o)
 *fill*         0x000000000d019cda        0x2 
 .text.i2c_register
                0x000000000d019cdc       0x58 ../../spresense-exported-sdk/nuttx/libs/libnuttx.a(drivers-i2c_driver.o)
                0x000000000d019cdc                i2c_register
 .text          0x000000000d019d34        0x0 ../../spresense-exported-sdk/nuttx/libs/libnuttx.a(drivers-mkrd.o)
 .text.mkrd     0x000000000d019d34       0x40 ../../spresense-exported-sdk/nuttx/libs/libnuttx.a(drivers-mkrd.o)
                0x000000000d019d34                mkrd
 .text          0x000000000d019d74        0x0 ../../spresense-exported-sdk/nuttx/libs/libnuttx.a(drivers-pipe_common.o)
 .text.nxsem_wait_uninterruptible
                0x000000000d019d74       0x16 ../../spresense-exported-sdk/nuttx/libs/libnuttx.a(drivers-pipe_common.o)
 .text.pipecommon_pollnotify
                0x000000000d019d8a       0x44 ../../spresense-exported-sdk/nuttx/libs/libnuttx.a(drivers-pipe_common.o)
 .text.pipecommon_allocdev
                0x000000000d019dce       0x4e ../../spresense-exported-sdk/nuttx/libs/libnuttx.a(drivers-pipe_common.o)
                0x000000000d019dce                pipecommon_allocdev
 .text.pipecommon_freedev
                0x000000000d019e1c       0x1e ../../spresense-exported-sdk/nuttx/libs/libnuttx.a(drivers-pipe_common.o)
                0x000000000d019e1c                pipecommon_freedev
 .text.pipecommon_close
                0x000000000d019e3a       0x9e ../../spresense-exported-sdk/nuttx/libs/libnuttx.a(drivers-pipe_common.o)
                0x000000000d019e3a                pipecommon_close
 .text.pipecommon_open
                0x000000000d019ed8       0xaa ../../spresense-exported-sdk/nuttx/libs/libnuttx.a(drivers-pipe_common.o)
                0x000000000d019ed8                pipecommon_open
 .text.pipecommon_read
                0x000000000d019f82       0xc8 ../../spresense-exported-sdk/nuttx/libs/libnuttx.a(drivers-pipe_common.o)
                0x000000000d019f82                pipecommon_read
 .text.pipecommon_write
                0x000000000d01a04a       0xea ../../spresense-exported-sdk/nuttx/libs/libnuttx.a(drivers-pipe_common.o)
                0x000000000d01a04a                pipecommon_write
 .text.pipecommon_poll
                0x000000000d01a134       0xa8 ../../spresense-exported-sdk/nuttx/libs/libnuttx.a(drivers-pipe_common.o)
                0x000000000d01a134                pipecommon_poll
 .text.pipecommon_ioctl
                0x000000000d01a1dc       0x76 ../../spresense-exported-sdk/nuttx/libs/libnuttx.a(drivers-pipe_common.o)
                0x000000000d01a1dc                pipecommon_ioctl
 .text.pipecommon_unlink
                0x000000000d01a252       0x26 ../../spresense-exported-sdk/nuttx/libs/libnuttx.a(drivers-pipe_common.o)
                0x000000000d01a252                pipecommon_unlink
 .text          0x000000000d01a278        0x0 ../../spresense-exported-sdk/nuttx/libs/libnuttx.a(drivers-ramdisk.o)
 .text.rd_open  0x000000000d01a278        0xc ../../spresense-exported-sdk/nuttx/libs/libnuttx.a(drivers-ramdisk.o)
 .text.rd_geometry
                0x000000000d01a284       0x22 ../../spresense-exported-sdk/nuttx/libs/libnuttx.a(drivers-ramdisk.o)
 .text.rd_ioctl
                0x000000000d01a2a6       0x1a ../../spresense-exported-sdk/nuttx/libs/libnuttx.a(drivers-ramdisk.o)
 .text.rd_close
                0x000000000d01a2c0       0x24 ../../spresense-exported-sdk/nuttx/libs/libnuttx.a(drivers-ramdisk.o)
 .text.rd_write
                0x000000000d01a2e4       0x3a ../../spresense-exported-sdk/nuttx/libs/libnuttx.a(drivers-ramdisk.o)
 .text.rd_read  0x000000000d01a31e       0x32 ../../spresense-exported-sdk/nuttx/libs/libnuttx.a(drivers-ramdisk.o)
 .text.rd_unlink
                0x000000000d01a350       0x20 ../../spresense-exported-sdk/nuttx/libs/libnuttx.a(drivers-ramdisk.o)
 .text.ramdisk_register
                0x000000000d01a370       0x60 ../../spresense-exported-sdk/nuttx/libs/libnuttx.a(drivers-ramdisk.o)
                0x000000000d01a370                ramdisk_register
 .text          0x000000000d01a3d0        0x0 ../../spresense-exported-sdk/nuttx/libs/libnuttx.a(drivers-rtc.o)
 .text.rtc_read
                0x000000000d01a3d0        0x4 ../../spresense-exported-sdk/nuttx/libs/libnuttx.a(drivers-rtc.o)
 .text.rtc_write
                0x000000000d01a3d4        0x4 ../../spresense-exported-sdk/nuttx/libs/libnuttx.a(drivers-rtc.o)
 .text.rtc_destroy
                0x000000000d01a3d8       0x1e ../../spresense-exported-sdk/nuttx/libs/libnuttx.a(drivers-rtc.o)
 .text.rtc_unlink
                0x000000000d01a3f6       0x28 ../../spresense-exported-sdk/nuttx/libs/libnuttx.a(drivers-rtc.o)
 .text.rtc_close
                0x000000000d01a41e       0x30 ../../spresense-exported-sdk/nuttx/libs/libnuttx.a(drivers-rtc.o)
 .text.rtc_open
                0x000000000d01a44e       0x22 ../../spresense-exported-sdk/nuttx/libs/libnuttx.a(drivers-rtc.o)
 .text.rtc_ioctl
                0x000000000d01a470      0x198 ../../spresense-exported-sdk/nuttx/libs/libnuttx.a(drivers-rtc.o)
 .text.rtc_alarm_callback
                0x000000000d01a608       0x32 ../../spresense-exported-sdk/nuttx/libs/libnuttx.a(drivers-rtc.o)
 *fill*         0x000000000d01a63a        0x2 
 .text.rtc_initialize
                0x000000000d01a63c       0x68 ../../spresense-exported-sdk/nuttx/libs/libnuttx.a(drivers-rtc.o)
                0x000000000d01a63c                rtc_initialize
 .text          0x000000000d01a6a4        0x0 ../../spresense-exported-sdk/nuttx/libs/libnuttx.a(drivers-smart.o)
 .text.smart_open
                0x000000000d01a6a4        0x4 ../../spresense-exported-sdk/nuttx/libs/libnuttx.a(drivers-smart.o)
 .text.smart_read
                0x000000000d01a6a8       0x2a ../../spresense-exported-sdk/nuttx/libs/libnuttx.a(drivers-smart.o)
 .text.smart_write
                0x000000000d01a6d2       0x96 ../../spresense-exported-sdk/nuttx/libs/libnuttx.a(drivers-smart.o)
 .text.smart_geometry
                0x000000000d01a768       0x28 ../../spresense-exported-sdk/nuttx/libs/libnuttx.a(drivers-smart.o)
 .text.smart_setsectorsize
                0x000000000d01a790       0xbc ../../spresense-exported-sdk/nuttx/libs/libnuttx.a(drivers-smart.o)
 .text.smart_calc_sector_crc
                0x000000000d01a84c       0x2e ../../spresense-exported-sdk/nuttx/libs/libnuttx.a(drivers-smart.o)
 .text.smart_validate_crc
                0x000000000d01a87a       0x18 ../../spresense-exported-sdk/nuttx/libs/libnuttx.a(drivers-smart.o)
 *fill*         0x000000000d01a892        0x2 
 .text.smart_findfreephyssector.isra.0
                0x000000000d01a894      0x124 ../../spresense-exported-sdk/nuttx/libs/libnuttx.a(drivers-smart.o)
 .text.smart_erase_block_if_empty.constprop.0
                0x000000000d01a9b8       0x6a ../../spresense-exported-sdk/nuttx/libs/libnuttx.a(drivers-smart.o)
 .text.smart_bytewrite.constprop.0
                0x000000000d01aa22       0x74 ../../spresense-exported-sdk/nuttx/libs/libnuttx.a(drivers-smart.o)
 .text.smart_freesector
                0x000000000d01aa96       0x9c ../../spresense-exported-sdk/nuttx/libs/libnuttx.a(drivers-smart.o)
 .text.smart_relocate_sector
                0x000000000d01ab32       0x88 ../../spresense-exported-sdk/nuttx/libs/libnuttx.a(drivers-smart.o)
 .text.smart_garbagecollect
                0x000000000d01abba      0x16e ../../spresense-exported-sdk/nuttx/libs/libnuttx.a(drivers-smart.o)
 .text.smart_fsck_directory
                0x000000000d01ad28      0x28a ../../spresense-exported-sdk/nuttx/libs/libnuttx.a(drivers-smart.o)
 *fill*         0x000000000d01afb2        0x2 
 .text.smart_scan
                0x000000000d01afb4      0x3cc ../../spresense-exported-sdk/nuttx/libs/libnuttx.a(drivers-smart.o)
 .text.smart_ioctl
                0x000000000d01b380      0x560 ../../spresense-exported-sdk/nuttx/libs/libnuttx.a(drivers-smart.o)
 .text.smart_close
                0x000000000d01b8e0        0x4 ../../spresense-exported-sdk/nuttx/libs/libnuttx.a(drivers-smart.o)
 .text.smart_initialize
                0x000000000d01b8e4      0x114 ../../spresense-exported-sdk/nuttx/libs/libnuttx.a(drivers-smart.o)
                0x000000000d01b8e4                smart_initialize
 .text          0x000000000d01b9f8        0x0 ../../spresense-exported-sdk/nuttx/libs/libnuttx.a(drivers-usbmsc.o)
 .text.usbmsc_ep0incomplete
                0x000000000d01b9f8        0x2 ../../spresense-exported-sdk/nuttx/libs/libnuttx.a(drivers-usbmsc.o)
 .text.usbmsc_allocreq
                0x000000000d01b9fa       0x32 ../../spresense-exported-sdk/nuttx/libs/libnuttx.a(drivers-usbmsc.o)
 .text.usbmsc_wrcomplete
                0x000000000d01ba2c       0x32 ../../spresense-exported-sdk/nuttx/libs/libnuttx.a(drivers-usbmsc.o)
                0x000000000d01ba2c                usbmsc_wrcomplete
 *fill*         0x000000000d01ba5e        0x2 
 .text.usbmsc_rdcomplete
                0x000000000d01ba60       0x58 ../../spresense-exported-sdk/nuttx/libs/libnuttx.a(drivers-usbmsc.o)
                0x000000000d01ba60                usbmsc_rdcomplete
 .text.usbmsc_setup
                0x000000000d01bab8      0x176 ../../spresense-exported-sdk/nuttx/libs/libnuttx.a(drivers-usbmsc.o)
 .text.usbmsc_lununinitialize
                0x000000000d01bc2e       0x1a ../../spresense-exported-sdk/nuttx/libs/libnuttx.a(drivers-usbmsc.o)
 .text.usbmsc_freereq
                0x000000000d01bc48       0x24 ../../spresense-exported-sdk/nuttx/libs/libnuttx.a(drivers-usbmsc.o)
 .text.usbmsc_resetconfig
                0x000000000d01bc6c       0x22 ../../spresense-exported-sdk/nuttx/libs/libnuttx.a(drivers-usbmsc.o)
                0x000000000d01bc6c                usbmsc_resetconfig
 *fill*         0x000000000d01bc8e        0x2 
 .text.usbmsc_setconfig
                0x000000000d01bc90       0xb8 ../../spresense-exported-sdk/nuttx/libs/libnuttx.a(drivers-usbmsc.o)
                0x000000000d01bc90                usbmsc_setconfig
 .text.usbmsc_disconnect
                0x000000000d01bd48       0x3e ../../spresense-exported-sdk/nuttx/libs/libnuttx.a(drivers-usbmsc.o)
 .text.usbmsc_unbind
                0x000000000d01bd86       0x94 ../../spresense-exported-sdk/nuttx/libs/libnuttx.a(drivers-usbmsc.o)
 *fill*         0x000000000d01be1a        0x2 
 .text.usbmsc_bind
                0x000000000d01be1c      0x100 ../../spresense-exported-sdk/nuttx/libs/libnuttx.a(drivers-usbmsc.o)
 .text.usbmsc_deferredresponse
                0x000000000d01bf1c       0x20 ../../spresense-exported-sdk/nuttx/libs/libnuttx.a(drivers-usbmsc.o)
                0x000000000d01bf1c                usbmsc_deferredresponse
 .text.usbmsc_bindlun
                0x000000000d01bf3c       0xd8 ../../spresense-exported-sdk/nuttx/libs/libnuttx.a(drivers-usbmsc.o)
                0x000000000d01bf3c                usbmsc_bindlun
 .text.usbmsc_unbindlun
                0x000000000d01c014       0x22 ../../spresense-exported-sdk/nuttx/libs/libnuttx.a(drivers-usbmsc.o)
                0x000000000d01c014                usbmsc_unbindlun
 *fill*         0x000000000d01c036        0x2 
 .text.usbmsc_exportluns
                0x000000000d01c038       0x80 ../../spresense-exported-sdk/nuttx/libs/libnuttx.a(drivers-usbmsc.o)
                0x000000000d01c038                usbmsc_exportluns
 .text.usbmsc_uninitialize
                0x000000000d01c0b8       0xa4 ../../spresense-exported-sdk/nuttx/libs/libnuttx.a(drivers-usbmsc.o)
                0x000000000d01c0b8                usbmsc_uninitialize
 .text.usbmsc_configure
                0x000000000d01c15c       0xbc ../../spresense-exported-sdk/nuttx/libs/libnuttx.a(drivers-usbmsc.o)
                0x000000000d01c15c                usbmsc_configure
 .text          0x000000000d01c218        0x0 ../../spresense-exported-sdk/nuttx/libs/libnuttx.a(drivers-usbmsc_scsi.o)
 .text.usbmsc_getbe32
                0x000000000d01c218        0x6 ../../spresense-exported-sdk/nuttx/libs/libnuttx.a(drivers-usbmsc_scsi.o)
 *fill*         0x000000000d01c21e        0x2 
 .text.usbmsc_setupcmd
                0x000000000d01c220       0xf0 ../../spresense-exported-sdk/nuttx/libs/libnuttx.a(drivers-usbmsc_scsi.o)
 .text.nxsem_wait_uninterruptible
                0x000000000d01c310       0x16 ../../spresense-exported-sdk/nuttx/libs/libnuttx.a(drivers-usbmsc_scsi.o)
 .text.usbmsc_scsi_wait
                0x000000000d01c326       0x3a ../../spresense-exported-sdk/nuttx/libs/libnuttx.a(drivers-usbmsc_scsi.o)
 .text.usbmsc_modepage
                0x000000000d01c360       0x68 ../../spresense-exported-sdk/nuttx/libs/libnuttx.a(drivers-usbmsc_scsi.o)
 .text.usbmsc_scsi_main
                0x000000000d01c3c8      0xc14 ../../spresense-exported-sdk/nuttx/libs/libnuttx.a(drivers-usbmsc_scsi.o)
                0x000000000d01c3c8                usbmsc_scsi_main
 .text.usbmsc_scsi_signal
                0x000000000d01cfdc       0x22 ../../spresense-exported-sdk/nuttx/libs/libnuttx.a(drivers-usbmsc_scsi.o)
                0x000000000d01cfdc                usbmsc_scsi_signal
 .text.usbmsc_scsi_lock
                0x000000000d01cffe        0x6 ../../spresense-exported-sdk/nuttx/libs/libnuttx.a(drivers-usbmsc_scsi.o)
                0x000000000d01cffe                usbmsc_scsi_lock
 .text          0x000000000d01d004        0x0 ../../spresense-exported-sdk/nuttx/libs/libnuttx.a(c-lib_calendar2utc.o)
 .text.clock_calendar2utc
                0x000000000d01d004       0x30 ../../spresense-exported-sdk/nuttx/libs/libnuttx.a(c-lib_calendar2utc.o)
                0x000000000d01d004                clock_calendar2utc
 .text          0x000000000d01d034        0x0 ../../spresense-exported-sdk/nuttx/libs/libnuttx.a(c-lib_crc8.o)
 .text.crc8part
                0x000000000d01d034       0x24 ../../spresense-exported-sdk/nuttx/libs/libnuttx.a(c-lib_crc8.o)
                0x000000000d01d034                crc8part
 .text.crc8     0x000000000d01d058        0x6 ../../spresense-exported-sdk/nuttx/libs/libnuttx.a(c-lib_crc8.o)
                0x000000000d01d058                crc8
 .text          0x000000000d01d05e        0x0 ../../spresense-exported-sdk/nuttx/libs/libnuttx.a(c-lib_daysbeforemonth.o)
 *fill*         0x000000000d01d05e        0x2 
 .text.clock_daysbeforemonth
                0x000000000d01d060       0x18 ../../spresense-exported-sdk/nuttx/libs/libnuttx.a(c-lib_daysbeforemonth.o)
                0x000000000d01d060                clock_daysbeforemonth
 .text          0x000000000d01d078        0x0 ../../spresense-exported-sdk/nuttx/libs/libnuttx.a(c-lib_fgetc.o)
 .text.fgetc    0x000000000d01d078       0x20 ../../spresense-exported-sdk/nuttx/libs/libnuttx.a(c-lib_fgetc.o)
                0x000000000d01d078                fgetc
 .text          0x000000000d01d098        0x0 ../../spresense-exported-sdk/nuttx/libs/libnuttx.a(c-lib_gethostname.o)
 .text.gethostname
                0x000000000d01d098       0x24 ../../spresense-exported-sdk/nuttx/libs/libnuttx.a(c-lib_gethostname.o)
                0x000000000d01d098                gethostname
 .text          0x000000000d01d0bc        0x0 ../../spresense-exported-sdk/nuttx/libs/libnuttx.a(c-lib_libfread.o)
 .text.lib_fread
                0x000000000d01d0bc      0x100 ../../spresense-exported-sdk/nuttx/libs/libnuttx.a(c-lib_libfread.o)
                0x000000000d01d0bc                lib_fread
 .text          0x000000000d01d1bc        0x0 ../../spresense-exported-sdk/nuttx/libs/libnuttx.a(c-lib_psfa_addaction.o)
 .text.add_file_action
                0x000000000d01d1bc       0x1a ../../spresense-exported-sdk/nuttx/libs/libnuttx.a(c-lib_psfa_addaction.o)
                0x000000000d01d1bc                add_file_action
 .text          0x000000000d01d1d6        0x0 ../../spresense-exported-sdk/nuttx/libs/libnuttx.a(arch-cxd56_i2c.o)
 .text.cxd56_i2c_disable
                0x000000000d01d1d6       0x2c ../../spresense-exported-sdk/nuttx/libs/libnuttx.a(arch-cxd56_i2c.o)
 .text.cxd56_i2c_timeout
                0x000000000d01d202       0x2a ../../spresense-exported-sdk/nuttx/libs/libnuttx.a(arch-cxd56_i2c.o)
 *fill*         0x000000000d01d22c        0x4 
 .text.cxd56_i2c_setfrequency
                0x000000000d01d230      0x1f0 ../../spresense-exported-sdk/nuttx/libs/libnuttx.a(arch-cxd56_i2c.o)
 .text.cxd56_i2c_interrupt
                0x000000000d01d420       0xa2 ../../spresense-exported-sdk/nuttx/libs/libnuttx.a(arch-cxd56_i2c.o)
 *fill*         0x000000000d01d4c2        0x2 
 .text.cxd56_i2c_transfer
                0x000000000d01d4c4      0x1f4 ../../spresense-exported-sdk/nuttx/libs/libnuttx.a(arch-cxd56_i2c.o)
 .text.cxd56_i2cbus_initialize
                0x000000000d01d6b8       0xf0 ../../spresense-exported-sdk/nuttx/libs/libnuttx.a(arch-cxd56_i2c.o)
                0x000000000d01d6b8                cxd56_i2cbus_initialize
 .text.cxd56_i2cbus_uninitialize
                0x000000000d01d7a8       0x7c ../../spresense-exported-sdk/nuttx/libs/libnuttx.a(arch-cxd56_i2c.o)
                0x000000000d01d7a8                cxd56_i2cbus_uninitialize
 .text          0x000000000d01d824        0x0 ../../spresense-exported-sdk/nuttx/libs/libnuttx.a(arch-cxd56_rtc_lowerhalf.o)
 .text.cxd56_alarm_callback
                0x000000000d01d824       0x1e ../../spresense-exported-sdk/nuttx/libs/libnuttx.a(arch-cxd56_rtc_lowerhalf.o)
 .text.cxd56_cancelalarm
                0x000000000d01d842       0x12 ../../spresense-exported-sdk/nuttx/libs/libnuttx.a(arch-cxd56_rtc_lowerhalf.o)
 .text.cxd56_setalarm
                0x000000000d01d854       0x44 ../../spresense-exported-sdk/nuttx/libs/libnuttx.a(arch-cxd56_rtc_lowerhalf.o)
 .text.cxd56_setrelative
                0x000000000d01d898       0x5a ../../spresense-exported-sdk/nuttx/libs/libnuttx.a(arch-cxd56_rtc_lowerhalf.o)
 .text.cxd56_settime
                0x000000000d01d8f2       0x1a ../../spresense-exported-sdk/nuttx/libs/libnuttx.a(arch-cxd56_rtc_lowerhalf.o)
 .text.cxd56_rdtime
                0x000000000d01d90c       0x2c ../../spresense-exported-sdk/nuttx/libs/libnuttx.a(arch-cxd56_rtc_lowerhalf.o)
 .text.cxd56_rtc_lowerhalf
                0x000000000d01d938        0x8 ../../spresense-exported-sdk/nuttx/libs/libnuttx.a(arch-cxd56_rtc_lowerhalf.o)
                0x000000000d01d938                cxd56_rtc_lowerhalf
 .text          0x000000000d01d940        0x0 ../../spresense-exported-sdk/nuttx/libs/libnuttx.a(arch-cxd56_scu.o)
 .text.findzeroandset
                0x000000000d01d940       0x3c ../../spresense-exported-sdk/nuttx/libs/libnuttx.a(arch-cxd56_scu.o)
 .text.bitmapclear
                0x000000000d01d97c       0x20 ../../spresense-exported-sdk/nuttx/libs/libnuttx.a(arch-cxd56_scu.o)
 .text.seq_setdecimation
                0x000000000d01d99c       0x48 ../../spresense-exported-sdk/nuttx/libs/libnuttx.a(arch-cxd56_scu.o)
 .text.seq_setbus
                0x000000000d01d9e4       0x3c ../../spresense-exported-sdk/nuttx/libs/libnuttx.a(arch-cxd56_scu.o)
 .text.seq_setsignconversion
                0x000000000d01da20       0x24 ../../spresense-exported-sdk/nuttx/libs/libnuttx.a(arch-cxd56_scu.o)
 .text.seq_setstartmode
                0x000000000d01da44       0x20 ../../spresense-exported-sdk/nuttx/libs/libnuttx.a(arch-cxd56_scu.o)
 .text.seq_setstartinterval
                0x000000000d01da64       0x24 ../../spresense-exported-sdk/nuttx/libs/libnuttx.a(arch-cxd56_scu.o)
 .text.seq_stopseq
                0x000000000d01da88       0x18 ../../spresense-exported-sdk/nuttx/libs/libnuttx.a(arch-cxd56_scu.o)
 .text.seq_offsetgainenable
                0x000000000d01daa0       0x28 ../../spresense-exported-sdk/nuttx/libs/libnuttx.a(arch-cxd56_scu.o)
 .text.mathf_set_coeff
                0x000000000d01dac8        0xc ../../spresense-exported-sdk/nuttx/libs/libnuttx.a(arch-cxd56_scu.o)
 .text.mathf_setiirfilter
                0x000000000d01dad4       0x60 ../../spresense-exported-sdk/nuttx/libs/libnuttx.a(arch-cxd56_scu.o)
 .text.seq_semtake
                0x000000000d01db34       0x16 ../../spresense-exported-sdk/nuttx/libs/libnuttx.a(arch-cxd56_scu.o)
 .text.seq_fifodmadone
                0x000000000d01db4a        0xa ../../spresense-exported-sdk/nuttx/libs/libnuttx.a(arch-cxd56_scu.o)
 .text.seq_scuirqhandler
                0x000000000d01db54      0x2f8 ../../spresense-exported-sdk/nuttx/libs/libnuttx.a(arch-cxd56_scu.o)
 .text.seq_fifoisactive.isra.0
                0x000000000d01de4c       0x1e ../../spresense-exported-sdk/nuttx/libs/libnuttx.a(arch-cxd56_scu.o)
 .text.seq_isactive.isra.0
                0x000000000d01de6a       0x16 ../../spresense-exported-sdk/nuttx/libs/libnuttx.a(arch-cxd56_scu.o)
 .text.seq_free
                0x000000000d01de80       0x28 ../../spresense-exported-sdk/nuttx/libs/libnuttx.a(arch-cxd56_scu.o)
 .text.seq_fifofree.part.0
                0x000000000d01dea8       0xb8 ../../spresense-exported-sdk/nuttx/libs/libnuttx.a(arch-cxd56_scu.o)
 .text.deci_free
                0x000000000d01df60       0x28 ../../spresense-exported-sdk/nuttx/libs/libnuttx.a(arch-cxd56_scu.o)
 .text.seq_alloc
                0x000000000d01df88       0x2c ../../spresense-exported-sdk/nuttx/libs/libnuttx.a(arch-cxd56_scu.o)
 .text.seq_sync.isra.0
                0x000000000d01dfb4       0x64 ../../spresense-exported-sdk/nuttx/libs/libnuttx.a(arch-cxd56_scu.o)
 .text.seq_oneshot
                0x000000000d01e018      0x1c0 ../../spresense-exported-sdk/nuttx/libs/libnuttx.a(arch-cxd56_scu.o)
 .text.scu_spitransfer
                0x000000000d01e1d8       0x18 ../../spresense-exported-sdk/nuttx/libs/libnuttx.a(arch-cxd56_scu.o)
                0x000000000d01e1d8                scu_spitransfer
 .text.scu_i2ctransfer
                0x000000000d01e1f0       0x24 ../../spresense-exported-sdk/nuttx/libs/libnuttx.a(arch-cxd56_scu.o)
                0x000000000d01e1f0                scu_i2ctransfer
 .text.seq_open
                0x000000000d01e214       0xc8 ../../spresense-exported-sdk/nuttx/libs/libnuttx.a(arch-cxd56_scu.o)
                0x000000000d01e214                seq_open
 .text.seq_setinstruction
                0x000000000d01e2dc       0x98 ../../spresense-exported-sdk/nuttx/libs/libnuttx.a(arch-cxd56_scu.o)
                0x000000000d01e2dc                seq_setinstruction
 .text.seq_setsample
                0x000000000d01e374       0x38 ../../spresense-exported-sdk/nuttx/libs/libnuttx.a(arch-cxd56_scu.o)
                0x000000000d01e374                seq_setsample
 .text.seq_setaddress
                0x000000000d01e3ac       0x16 ../../spresense-exported-sdk/nuttx/libs/libnuttx.a(arch-cxd56_scu.o)
                0x000000000d01e3ac                seq_setaddress
 *fill*         0x000000000d01e3c2        0x2 
 .text.seq_read
                0x000000000d01e3c4      0x104 ../../spresense-exported-sdk/nuttx/libs/libnuttx.a(arch-cxd56_scu.o)
                0x000000000d01e3c4                seq_read
 .text.seq_ioctl
                0x000000000d01e4c8      0x758 ../../spresense-exported-sdk/nuttx/libs/libnuttx.a(arch-cxd56_scu.o)
                0x000000000d01e4c8                seq_ioctl
 .text.seq_close
                0x000000000d01ec20       0x6c ../../spresense-exported-sdk/nuttx/libs/libnuttx.a(arch-cxd56_scu.o)
                0x000000000d01ec20                seq_close
 .text.scu_initialize
                0x000000000d01ec8c      0x1ec ../../spresense-exported-sdk/nuttx/libs/libnuttx.a(arch-cxd56_scu.o)
                0x000000000d01ec8c                scu_initialize
 .text.scu_uninitialize
                0x000000000d01ee78       0x48 ../../spresense-exported-sdk/nuttx/libs/libnuttx.a(arch-cxd56_scu.o)
                0x000000000d01ee78                scu_uninitialize
 .text          0x000000000d01eec0        0x0 ../../spresense-exported-sdk/nuttx/libs/libnuttx.a(arch-cxd56_sfc.o)
 .text.cxd56_write
                0x000000000d01eec0       0x22 ../../spresense-exported-sdk/nuttx/libs/libnuttx.a(arch-cxd56_sfc.o)
 .text.cxd56_bwrite
                0x000000000d01eee2       0x26 ../../spresense-exported-sdk/nuttx/libs/libnuttx.a(arch-cxd56_sfc.o)
 .text.cxd56_erase
                0x000000000d01ef08       0x2a ../../spresense-exported-sdk/nuttx/libs/libnuttx.a(arch-cxd56_sfc.o)
 .text.cxd56_read
                0x000000000d01ef32       0x22 ../../spresense-exported-sdk/nuttx/libs/libnuttx.a(arch-cxd56_sfc.o)
 .text.cxd56_bread
                0x000000000d01ef54       0x26 ../../spresense-exported-sdk/nuttx/libs/libnuttx.a(arch-cxd56_sfc.o)
 .text.cxd56_ioctl
                0x000000000d01ef7a       0x42 ../../spresense-exported-sdk/nuttx/libs/libnuttx.a(arch-cxd56_sfc.o)
 .text.cxd56_sfc_initialize
                0x000000000d01efbc       0x40 ../../spresense-exported-sdk/nuttx/libs/libnuttx.a(arch-cxd56_sfc.o)
                0x000000000d01efbc                cxd56_sfc_initialize
 .text          0x000000000d01effc        0x0 ../../spresense-exported-sdk/nuttx/libs/libnuttx.a(arch-cxd56_sysctl.o)
 .text.sysctl_rxhandler
                0x000000000d01effc       0x18 ../../spresense-exported-sdk/nuttx/libs/libnuttx.a(arch-cxd56_sysctl.o)
 .text.cxd56_sysctlcmd
                0x000000000d01f014       0x60 ../../spresense-exported-sdk/nuttx/libs/libnuttx.a(arch-cxd56_sysctl.o)
                0x000000000d01f014                cxd56_sysctlcmd
 .text.sysctl_ioctl
                0x000000000d01f074       0x1a ../../spresense-exported-sdk/nuttx/libs/libnuttx.a(arch-cxd56_sysctl.o)
 *fill*         0x000000000d01f08e        0x2 
 .text.cxd56_sysctlinitialize
                0x000000000d01f090       0x58 ../../spresense-exported-sdk/nuttx/libs/libnuttx.a(arch-cxd56_sysctl.o)
                0x000000000d01f090                cxd56_sysctlinitialize
 .text          0x000000000d01f0e8        0x0 ../../spresense-exported-sdk/nuttx/libs/libnuttx.a(arch-cxd56_timer.o)
 .text.cxd56_start
                0x000000000d01f0e8       0x20 ../../spresense-exported-sdk/nuttx/libs/libnuttx.a(arch-cxd56_timer.o)
 .text.cxd56_stop
                0x000000000d01f108       0x1c ../../spresense-exported-sdk/nuttx/libs/libnuttx.a(arch-cxd56_timer.o)
 .text.cxd56_timer_interrupt
                0x000000000d01f124       0x48 ../../spresense-exported-sdk/nuttx/libs/libnuttx.a(arch-cxd56_timer.o)
 .text.cxd56_getstatus
                0x000000000d01f16c       0x3c ../../spresense-exported-sdk/nuttx/libs/libnuttx.a(arch-cxd56_timer.o)
 .text.cxd56_setcallback
                0x000000000d01f1a8       0x18 ../../spresense-exported-sdk/nuttx/libs/libnuttx.a(arch-cxd56_timer.o)
 .text.cxd56_ioctl
                0x000000000d01f1c0       0x22 ../../spresense-exported-sdk/nuttx/libs/libnuttx.a(arch-cxd56_timer.o)
 *fill*         0x000000000d01f1e2        0x2 
 .text.cxd56_settimeout
                0x000000000d01f1e4       0x50 ../../spresense-exported-sdk/nuttx/libs/libnuttx.a(arch-cxd56_timer.o)
 .text.cxd56_timer_initialize
                0x000000000d01f234       0x68 ../../spresense-exported-sdk/nuttx/libs/libnuttx.a(arch-cxd56_timer.o)
                0x000000000d01f234                cxd56_timer_initialize
 .text          0x000000000d01f29c        0x0 ../../spresense-exported-sdk/nuttx/libs/libnuttx.a(arch-cxd56_udmac.o)
 .text.cxd56_udmainitialize
                0x000000000d01f29c       0x4c ../../spresense-exported-sdk/nuttx/libs/libnuttx.a(arch-cxd56_udmac.o)
                0x000000000d01f29c                cxd56_udmainitialize
 .text.cxd56_udmachannel
                0x000000000d01f2e8       0x78 ../../spresense-exported-sdk/nuttx/libs/libnuttx.a(arch-cxd56_udmac.o)
                0x000000000d01f2e8                cxd56_udmachannel
 .text.cxd56_udmafree
                0x000000000d01f360       0x1c ../../spresense-exported-sdk/nuttx/libs/libnuttx.a(arch-cxd56_udmac.o)
                0x000000000d01f360                cxd56_udmafree
 .text.cxd56_rxudmasetup
                0x000000000d01f37c       0x78 ../../spresense-exported-sdk/nuttx/libs/libnuttx.a(arch-cxd56_udmac.o)
                0x000000000d01f37c                cxd56_rxudmasetup
 .text.cxd56_txudmasetup
                0x000000000d01f3f4       0x74 ../../spresense-exported-sdk/nuttx/libs/libnuttx.a(arch-cxd56_udmac.o)
                0x000000000d01f3f4                cxd56_txudmasetup
 .text.cxd56_udmastart
                0x000000000d01f468       0x4c ../../spresense-exported-sdk/nuttx/libs/libnuttx.a(arch-cxd56_udmac.o)
                0x000000000d01f468                cxd56_udmastart
 .text.cxd56_udmastop
                0x000000000d01f4b4       0x20 ../../spresense-exported-sdk/nuttx/libs/libnuttx.a(arch-cxd56_udmac.o)
                0x000000000d01f4b4                cxd56_udmastop
 .text.cxd56_dmac_interrupt
                0x000000000d01f4d4       0x50 ../../spresense-exported-sdk/nuttx/libs/libnuttx.a(arch-cxd56_udmac.o)
 .text          0x000000000d01f524        0x0 ../../spresense-exported-sdk/nuttx/libs/libnuttx.a(arch-cxd56_uid.o)
 .text.cxd56_get_uniqueid
                0x000000000d01f524       0x24 ../../spresense-exported-sdk/nuttx/libs/libnuttx.a(arch-cxd56_uid.o)
                0x000000000d01f524                cxd56_get_uniqueid
 .text          0x000000000d01f548        0x0 ../../spresense-exported-sdk/nuttx/libs/libnuttx.a(arch-cxd56_wdt.o)
 .text.cxd56_wdtinterrupt
                0x000000000d01f548        0xe ../../spresense-exported-sdk/nuttx/libs/libnuttx.a(arch-cxd56_wdt.o)
 *fill*         0x000000000d01f556        0x2 
 .text.cxd56_start
                0x000000000d01f558       0x24 ../../spresense-exported-sdk/nuttx/libs/libnuttx.a(arch-cxd56_wdt.o)
 .text.cxd56_stop
                0x000000000d01f57c       0x1c ../../spresense-exported-sdk/nuttx/libs/libnuttx.a(arch-cxd56_wdt.o)
 .text.cxd56_keepalive
                0x000000000d01f598       0x1c ../../spresense-exported-sdk/nuttx/libs/libnuttx.a(arch-cxd56_wdt.o)
 .text.cxd56_ioctl
                0x000000000d01f5b4        0x6 ../../spresense-exported-sdk/nuttx/libs/libnuttx.a(arch-cxd56_wdt.o)
 *fill*         0x000000000d01f5ba        0x2 
 .text.cxd56_settimeout
                0x000000000d01f5bc       0x98 ../../spresense-exported-sdk/nuttx/libs/libnuttx.a(arch-cxd56_wdt.o)
 .text.cxd56_getstatus
                0x000000000d01f654       0x58 ../../spresense-exported-sdk/nuttx/libs/libnuttx.a(arch-cxd56_wdt.o)
 .text.cxd56_capture
                0x000000000d01f6ac       0x28 ../../spresense-exported-sdk/nuttx/libs/libnuttx.a(arch-cxd56_wdt.o)
 .text.cxd56_pm_event
                0x000000000d01f6d4       0x20 ../../spresense-exported-sdk/nuttx/libs/libnuttx.a(arch-cxd56_wdt.o)
 .text.cxd56_wdt_initialize
                0x000000000d01f6f4       0x50 ../../spresense-exported-sdk/nuttx/libs/libnuttx.a(arch-cxd56_wdt.o)
                0x000000000d01f6f4                cxd56_wdt_initialize
 .text          0x000000000d01f744        0x0 ../../spresense-exported-sdk/nuttx/libs/libnuttx.a(net-netdev_ioctl.o)
 .text.netdev_ifr_dev
                0x000000000d01f744        0x8 ../../spresense-exported-sdk/nuttx/libs/libnuttx.a(net-netdev_ioctl.o)
 .text.net_ioctl_arglen
                0x000000000d01f74c       0x6e ../../spresense-exported-sdk/nuttx/libs/libnuttx.a(net-netdev_ioctl.o)
                0x000000000d01f74c                net_ioctl_arglen
 .text.netdev_ifup
                0x000000000d01f7ba       0x1c ../../spresense-exported-sdk/nuttx/libs/libnuttx.a(net-netdev_ioctl.o)
                0x000000000d01f7ba                netdev_ifup
 .text.netdev_ifdown
                0x000000000d01f7d6       0x2c ../../spresense-exported-sdk/nuttx/libs/libnuttx.a(net-netdev_ioctl.o)
                0x000000000d01f7d6                netdev_ifdown
 .text.psock_ioctl
                0x000000000d01f802      0x106 ../../spresense-exported-sdk/nuttx/libs/libnuttx.a(net-netdev_ioctl.o)
                0x000000000d01f802                psock_ioctl
 .text.netdev_ioctl
                0x000000000d01f908       0x18 ../../spresense-exported-sdk/nuttx/libs/libnuttx.a(net-netdev_ioctl.o)
                0x000000000d01f908                netdev_ioctl
 .text          0x000000000d01f920        0x0 ../../spresense-exported-sdk/nuttx/libs/libnuttx.a(net-net_dupsd2.o)
 .text.net_dupsd2
                0x000000000d01f920       0x4c ../../spresense-exported-sdk/nuttx/libs/libnuttx.a(net-net_dupsd2.o)
                0x000000000d01f920                net_dupsd2
 .text          0x000000000d01f96c        0x0 ../../spresense-exported-sdk/nuttx/libs/libnuttx.a(net-net_sockif.o)
 .text.net_sockif
                0x000000000d01f96c        0x4 ../../spresense-exported-sdk/nuttx/libs/libnuttx.a(net-net_sockif.o)
                0x000000000d01f96c                net_sockif
 .text          0x000000000d01f970        0x0 ../../spresense-exported-sdk/nuttx/libs/libnuttx.a(net-recvfrom.o)
 .text.psock_recvfrom
                0x000000000d01f970       0x4c ../../spresense-exported-sdk/nuttx/libs/libnuttx.a(net-recvfrom.o)
                0x000000000d01f970                psock_recvfrom
 .text.nx_recvfrom
                0x000000000d01f9bc       0x26 ../../spresense-exported-sdk/nuttx/libs/libnuttx.a(net-recvfrom.o)
                0x000000000d01f9bc                nx_recvfrom
 .text.recvfrom
                0x000000000d01f9e2       0x24 ../../spresense-exported-sdk/nuttx/libs/libnuttx.a(net-recvfrom.o)
                0x000000000d01f9e2                recvfrom
 .text          0x000000000d01fa06        0x0 ../../spresense-exported-sdk/nuttx/libs/libnuttx.a(net-usrsock_accept.o)
 .text.accept_event
                0x000000000d01fa06       0x7c ../../spresense-exported-sdk/nuttx/libs/libnuttx.a(net-usrsock_accept.o)
 *fill*         0x000000000d01fa82        0x2 
 .text.usrsock_accept
                0x000000000d01fa84      0x218 ../../spresense-exported-sdk/nuttx/libs/libnuttx.a(net-usrsock_accept.o)
                0x000000000d01fa84                usrsock_accept
 .text          0x000000000d01fc9c        0x0 ../../spresense-exported-sdk/nuttx/libs/libnuttx.a(net-usrsock_bind.o)
 .text.bind_event
                0x000000000d01fc9c       0x36 ../../spresense-exported-sdk/nuttx/libs/libnuttx.a(net-usrsock_bind.o)
 *fill*         0x000000000d01fcd2        0x2 
 .text.usrsock_bind
                0x000000000d01fcd4       0x8c ../../spresense-exported-sdk/nuttx/libs/libnuttx.a(net-usrsock_bind.o)
                0x000000000d01fcd4                usrsock_bind
 .text          0x000000000d01fd60        0x0 ../../spresense-exported-sdk/nuttx/libs/libnuttx.a(net-usrsock_close.o)
 .text.close_event
                0x000000000d01fd60       0x3a ../../spresense-exported-sdk/nuttx/libs/libnuttx.a(net-usrsock_close.o)
 *fill*         0x000000000d01fd9a        0x2 
 .text.usrsock_close
                0x000000000d01fd9c       0x84 ../../spresense-exported-sdk/nuttx/libs/libnuttx.a(net-usrsock_close.o)
                0x000000000d01fd9c                usrsock_close
 .text          0x000000000d01fe20        0x0 ../../spresense-exported-sdk/nuttx/libs/libnuttx.a(net-usrsock_connect.o)
 .text.connect_event
                0x000000000d01fe20       0x36 ../../spresense-exported-sdk/nuttx/libs/libnuttx.a(net-usrsock_connect.o)
 *fill*         0x000000000d01fe56        0x2 
 .text.usrsock_connect
                0x000000000d01fe58       0xd4 ../../spresense-exported-sdk/nuttx/libs/libnuttx.a(net-usrsock_connect.o)
                0x000000000d01fe58                usrsock_connect
 .text          0x000000000d01ff2c        0x0 ../../spresense-exported-sdk/nuttx/libs/libnuttx.a(net-usrsock_getpeername.o)
 .text.getpeername_event
                0x000000000d01ff2c       0x4a ../../spresense-exported-sdk/nuttx/libs/libnuttx.a(net-usrsock_getpeername.o)
 *fill*         0x000000000d01ff76        0x2 
 .text.usrsock_getpeername
                0x000000000d01ff78       0xc0 ../../spresense-exported-sdk/nuttx/libs/libnuttx.a(net-usrsock_getpeername.o)
                0x000000000d01ff78                usrsock_getpeername
 .text          0x000000000d020038        0x0 ../../spresense-exported-sdk/nuttx/libs/libnuttx.a(net-usrsock_getsockname.o)
 .text.getsockname_event
                0x000000000d020038       0x4a ../../spresense-exported-sdk/nuttx/libs/libnuttx.a(net-usrsock_getsockname.o)
 *fill*         0x000000000d020082        0x2 
 .text.usrsock_getsockname
                0x000000000d020084       0xc0 ../../spresense-exported-sdk/nuttx/libs/libnuttx.a(net-usrsock_getsockname.o)
                0x000000000d020084                usrsock_getsockname
 .text          0x000000000d020144        0x0 ../../spresense-exported-sdk/nuttx/libs/libnuttx.a(net-usrsock_ioctl.o)
 .text.ioctl_event
                0x000000000d020144       0x4a ../../spresense-exported-sdk/nuttx/libs/libnuttx.a(net-usrsock_ioctl.o)
 *fill*         0x000000000d02018e        0x2 
 .text.usrsock_ioctl
                0x000000000d020190       0xb8 ../../spresense-exported-sdk/nuttx/libs/libnuttx.a(net-usrsock_ioctl.o)
                0x000000000d020190                usrsock_ioctl
 .text          0x000000000d020248        0x0 ../../spresense-exported-sdk/nuttx/libs/libnuttx.a(net-usrsock_listen.o)
 .text.listen_event
                0x000000000d020248       0x36 ../../spresense-exported-sdk/nuttx/libs/libnuttx.a(net-usrsock_listen.o)
 *fill*         0x000000000d02027e        0x2 
 .text.usrsock_listen
                0x000000000d020280       0xb0 ../../spresense-exported-sdk/nuttx/libs/libnuttx.a(net-usrsock_listen.o)
                0x000000000d020280                usrsock_listen
 .text          0x000000000d020330        0x0 ../../spresense-exported-sdk/nuttx/libs/libnuttx.a(net-usrsock_poll.o)
 .text.poll_event
                0x000000000d020330       0x58 ../../spresense-exported-sdk/nuttx/libs/libnuttx.a(net-usrsock_poll.o)
 .text.usrsock_poll
                0x000000000d020388      0x100 ../../spresense-exported-sdk/nuttx/libs/libnuttx.a(net-usrsock_poll.o)
                0x000000000d020388                usrsock_poll
 .text          0x000000000d020488        0x0 ../../spresense-exported-sdk/nuttx/libs/libnuttx.a(net-usrsock_recvfrom.o)
 .text.recvfrom_event
                0x000000000d020488       0x7c ../../spresense-exported-sdk/nuttx/libs/libnuttx.a(net-usrsock_recvfrom.o)
 .text.usrsock_recvfrom
                0x000000000d020504      0x214 ../../spresense-exported-sdk/nuttx/libs/libnuttx.a(net-usrsock_recvfrom.o)
                0x000000000d020504                usrsock_recvfrom
 .text          0x000000000d020718        0x0 ../../spresense-exported-sdk/nuttx/libs/libnuttx.a(net-usrsock_sendto.o)
 .text.sendto_event
                0x000000000d020718       0x6c ../../spresense-exported-sdk/nuttx/libs/libnuttx.a(net-usrsock_sendto.o)
 .text.usrsock_sendto
                0x000000000d020784      0x1a4 ../../spresense-exported-sdk/nuttx/libs/libnuttx.a(net-usrsock_sendto.o)
                0x000000000d020784                usrsock_sendto
 .text          0x000000000d020928        0x0 ../../spresense-exported-sdk/nuttx/libs/libnuttx.a(net-usrsock_socket.o)
 .text.socket_event
                0x000000000d020928       0x3e ../../spresense-exported-sdk/nuttx/libs/libnuttx.a(net-usrsock_socket.o)
 *fill*         0x000000000d020966        0x2 
 .text.usrsock_socket
                0x000000000d020968       0xcc ../../spresense-exported-sdk/nuttx/libs/libnuttx.a(net-usrsock_socket.o)
                0x000000000d020968                usrsock_socket
 .text          0x000000000d020a34        0x0 ../../spresense-exported-sdk/nuttx/libs/libnuttx.a(fs-fs_fat32.o)
 .text.fat_ioctl
                0x000000000d020a34       0x38 ../../spresense-exported-sdk/nuttx/libs/libnuttx.a(fs-fs_fat32.o)
 .text.fat_stat_file
                0x000000000d020a6c       0x82 ../../spresense-exported-sdk/nuttx/libs/libnuttx.a(fs-fs_fat32.o)
 .text.fat_rename
                0x000000000d020aee       0xcc ../../spresense-exported-sdk/nuttx/libs/libnuttx.a(fs-fs_fat32.o)
 .text.fat_rmdir
                0x000000000d020bba       0x2e ../../spresense-exported-sdk/nuttx/libs/libnuttx.a(fs-fs_fat32.o)
 .text.fat_unlink
                0x000000000d020be8       0x2e ../../spresense-exported-sdk/nuttx/libs/libnuttx.a(fs-fs_fat32.o)
 .text.fat_rewinddir
                0x000000000d020c16       0x64 ../../spresense-exported-sdk/nuttx/libs/libnuttx.a(fs-fs_fat32.o)
 .text.fat_opendir
                0x000000000d020c7a       0x7a ../../spresense-exported-sdk/nuttx/libs/libnuttx.a(fs-fs_fat32.o)
 .text.fat_fstat
                0x000000000d020cf4       0x4c ../../spresense-exported-sdk/nuttx/libs/libnuttx.a(fs-fs_fat32.o)
 .text.fat_mkdir
                0x000000000d020d40      0x16a ../../spresense-exported-sdk/nuttx/libs/libnuttx.a(fs-fs_fat32.o)
 .text.fat_statfs
                0x000000000d020eaa       0x54 ../../spresense-exported-sdk/nuttx/libs/libnuttx.a(fs-fs_fat32.o)
 .text.fat_unbind
                0x000000000d020efe       0x6c ../../spresense-exported-sdk/nuttx/libs/libnuttx.a(fs-fs_fat32.o)
 .text.fat_bind
                0x000000000d020f6a       0x66 ../../spresense-exported-sdk/nuttx/libs/libnuttx.a(fs-fs_fat32.o)
 .text.fat_readdir
                0x000000000d020fd0       0xae ../../spresense-exported-sdk/nuttx/libs/libnuttx.a(fs-fs_fat32.o)
 .text.fat_truncate
                0x000000000d02107e       0x8a ../../spresense-exported-sdk/nuttx/libs/libnuttx.a(fs-fs_fat32.o)
 .text.fat_dup  0x000000000d021108       0x82 ../../spresense-exported-sdk/nuttx/libs/libnuttx.a(fs-fs_fat32.o)
 .text.fat_sync
                0x000000000d02118a       0x94 ../../spresense-exported-sdk/nuttx/libs/libnuttx.a(fs-fs_fat32.o)
 .text.fat_close
                0x000000000d02121e       0x54 ../../spresense-exported-sdk/nuttx/libs/libnuttx.a(fs-fs_fat32.o)
 .text.fat_seek
                0x000000000d021272      0x14c ../../spresense-exported-sdk/nuttx/libs/libnuttx.a(fs-fs_fat32.o)
 .text.fat_write
                0x000000000d0213be      0x1a2 ../../spresense-exported-sdk/nuttx/libs/libnuttx.a(fs-fs_fat32.o)
 .text.fat_read
                0x000000000d021560      0x148 ../../spresense-exported-sdk/nuttx/libs/libnuttx.a(fs-fs_fat32.o)
 .text.fat_open
                0x000000000d0216a8      0x144 ../../spresense-exported-sdk/nuttx/libs/libnuttx.a(fs-fs_fat32.o)
 .text.fat_stat
                0x000000000d0217ec       0x5e ../../spresense-exported-sdk/nuttx/libs/libnuttx.a(fs-fs_fat32.o)
 .text          0x000000000d02184a        0x0 ../../spresense-exported-sdk/nuttx/libs/libnuttx.a(fs-fs_fat32util.o)
 .text.fat_checkbootrecord
                0x000000000d02184a      0x116 ../../spresense-exported-sdk/nuttx/libs/libnuttx.a(fs-fs_fat32util.o)
 .text.fat_getuint16
                0x000000000d021960        0xa ../../spresense-exported-sdk/nuttx/libs/libnuttx.a(fs-fs_fat32util.o)
                0x000000000d021960                fat_getuint16
 .text.fat_getuint32
                0x000000000d02196a       0x16 ../../spresense-exported-sdk/nuttx/libs/libnuttx.a(fs-fs_fat32util.o)
                0x000000000d02196a                fat_getuint32
 .text.fat_putuint16
                0x000000000d021980        0xa ../../spresense-exported-sdk/nuttx/libs/libnuttx.a(fs-fs_fat32util.o)
                0x000000000d021980                fat_putuint16
 .text.fat_putuint32
                0x000000000d02198a       0x16 ../../spresense-exported-sdk/nuttx/libs/libnuttx.a(fs-fs_fat32util.o)
                0x000000000d02198a                fat_putuint32
 .text.fat_semtake
                0x000000000d0219a0       0x16 ../../spresense-exported-sdk/nuttx/libs/libnuttx.a(fs-fs_fat32util.o)
                0x000000000d0219a0                fat_semtake
 .text.fat_semgive
                0x000000000d0219b6        0x6 ../../spresense-exported-sdk/nuttx/libs/libnuttx.a(fs-fs_fat32util.o)
                0x000000000d0219b6                fat_semgive
 .text.fat_systime2fattime
                0x000000000d0219bc       0x5e ../../spresense-exported-sdk/nuttx/libs/libnuttx.a(fs-fs_fat32util.o)
                0x000000000d0219bc                fat_systime2fattime
 .text.fat_fattime2systime
                0x000000000d021a1a       0x40 ../../spresense-exported-sdk/nuttx/libs/libnuttx.a(fs-fs_fat32util.o)
                0x000000000d021a1a                fat_fattime2systime
 .text.fat_checkmount
                0x000000000d021a5a       0x38 ../../spresense-exported-sdk/nuttx/libs/libnuttx.a(fs-fs_fat32util.o)
                0x000000000d021a5a                fat_checkmount
 .text.fat_hwread
                0x000000000d021a92       0x26 ../../spresense-exported-sdk/nuttx/libs/libnuttx.a(fs-fs_fat32util.o)
                0x000000000d021a92                fat_hwread
 .text.fat_hwwrite
                0x000000000d021ab8       0x26 ../../spresense-exported-sdk/nuttx/libs/libnuttx.a(fs-fs_fat32util.o)
                0x000000000d021ab8                fat_hwwrite
 .text.fat_cluster2sector
                0x000000000d021ade       0x1a ../../spresense-exported-sdk/nuttx/libs/libnuttx.a(fs-fs_fat32util.o)
                0x000000000d021ade                fat_cluster2sector
 .text.fat_fscacheflush
                0x000000000d021af8       0x56 ../../spresense-exported-sdk/nuttx/libs/libnuttx.a(fs-fs_fat32util.o)
                0x000000000d021af8                fat_fscacheflush
 .text.fat_fscacheread
                0x000000000d021b4e       0x2a ../../spresense-exported-sdk/nuttx/libs/libnuttx.a(fs-fs_fat32util.o)
                0x000000000d021b4e                fat_fscacheread
 .text.fat_mount
                0x000000000d021b78      0x134 ../../spresense-exported-sdk/nuttx/libs/libnuttx.a(fs-fs_fat32util.o)
                0x000000000d021b78                fat_mount
 .text.fat_getcluster
                0x000000000d021cac       0xc0 ../../spresense-exported-sdk/nuttx/libs/libnuttx.a(fs-fs_fat32util.o)
                0x000000000d021cac                fat_getcluster
 .text.fat_nextdirentry
                0x000000000d021d6c       0x5e ../../spresense-exported-sdk/nuttx/libs/libnuttx.a(fs-fs_fat32util.o)
                0x000000000d021d6c                fat_nextdirentry
 .text.fat_putcluster
                0x000000000d021dca       0xfa ../../spresense-exported-sdk/nuttx/libs/libnuttx.a(fs-fs_fat32util.o)
                0x000000000d021dca                fat_putcluster
 .text.fat_removechain
                0x000000000d021ec4       0x48 ../../spresense-exported-sdk/nuttx/libs/libnuttx.a(fs-fs_fat32util.o)
                0x000000000d021ec4                fat_removechain
 .text.fat_extendchain
                0x000000000d021f0c       0x90 ../../spresense-exported-sdk/nuttx/libs/libnuttx.a(fs-fs_fat32util.o)
                0x000000000d021f0c                fat_extendchain
 .text.fat_dirshrink
                0x000000000d021f9c       0x7e ../../spresense-exported-sdk/nuttx/libs/libnuttx.a(fs-fs_fat32util.o)
                0x000000000d021f9c                fat_dirshrink
 .text.fat_dirtruncate
                0x000000000d02201a       0x4a ../../spresense-exported-sdk/nuttx/libs/libnuttx.a(fs-fs_fat32util.o)
                0x000000000d02201a                fat_dirtruncate
 .text.fat_ffcacheflush
                0x000000000d022064       0x2c ../../spresense-exported-sdk/nuttx/libs/libnuttx.a(fs-fs_fat32util.o)
                0x000000000d022064                fat_ffcacheflush
 .text.fat_ffcacheread
                0x000000000d022090       0x3e ../../spresense-exported-sdk/nuttx/libs/libnuttx.a(fs-fs_fat32util.o)
                0x000000000d022090                fat_ffcacheread
 .text.fat_ffcacheinvalidate
                0x000000000d0220ce       0x26 ../../spresense-exported-sdk/nuttx/libs/libnuttx.a(fs-fs_fat32util.o)
                0x000000000d0220ce                fat_ffcacheinvalidate
 .text.fat_updatefsinfo
                0x000000000d0220f4       0x70 ../../spresense-exported-sdk/nuttx/libs/libnuttx.a(fs-fs_fat32util.o)
                0x000000000d0220f4                fat_updatefsinfo
 .text.fat_nfreeclusters
                0x000000000d022164       0x90 ../../spresense-exported-sdk/nuttx/libs/libnuttx.a(fs-fs_fat32util.o)
                0x000000000d022164                fat_nfreeclusters
 .text.fat_currentsector
                0x000000000d0221f4       0x36 ../../spresense-exported-sdk/nuttx/libs/libnuttx.a(fs-fs_fat32util.o)
                0x000000000d0221f4                fat_currentsector
 .text.fat_dirextend
                0x000000000d02222a       0xf4 ../../spresense-exported-sdk/nuttx/libs/libnuttx.a(fs-fs_fat32util.o)
                0x000000000d02222a                fat_dirextend
 .text          0x000000000d02231e        0x0 ../../spresense-exported-sdk/nuttx/libs/libnuttx.a(fs-fs_unregisterblockdriver.o)
 .text.unregister_blockdriver
                0x000000000d02231e       0x1c ../../spresense-exported-sdk/nuttx/libs/libnuttx.a(fs-fs_unregisterblockdriver.o)
                0x000000000d02231e                unregister_blockdriver
 .text          0x000000000d02233a        0x0 ../../spresense-exported-sdk/nuttx/libs/libnuttx.a(fs-fs_unregisterdriver.o)
 .text.unregister_driver
                0x000000000d02233a       0x1c ../../spresense-exported-sdk/nuttx/libs/libnuttx.a(fs-fs_unregisterdriver.o)
                0x000000000d02233a                unregister_driver
 .text          0x000000000d022356        0x0 ../../spresense-exported-sdk/nuttx/libs/libnuttx.a(drivers-cdcacm_desc.o)
 *fill*         0x000000000d022356        0x2 
 .text.cdcacm_mkstrdesc
                0x000000000d022358       0x80 ../../spresense-exported-sdk/nuttx/libs/libnuttx.a(drivers-cdcacm_desc.o)
                0x000000000d022358                cdcacm_mkstrdesc
 .text.cdcacm_getdevdesc
                0x000000000d0223d8        0x8 ../../spresense-exported-sdk/nuttx/libs/libnuttx.a(drivers-cdcacm_desc.o)
                0x000000000d0223d8                cdcacm_getdevdesc
 .text.cdcacm_copy_epdesc
                0x000000000d0223e0       0x6e ../../spresense-exported-sdk/nuttx/libs/libnuttx.a(drivers-cdcacm_desc.o)
                0x000000000d0223e0                cdcacm_copy_epdesc
 .text.cdcacm_mkcfgdesc
                0x000000000d02244e      0x112 ../../spresense-exported-sdk/nuttx/libs/libnuttx.a(drivers-cdcacm_desc.o)
                0x000000000d02244e                cdcacm_mkcfgdesc
 .text.cdcacm_getqualdesc
                0x000000000d022560        0x8 ../../spresense-exported-sdk/nuttx/libs/libnuttx.a(drivers-cdcacm_desc.o)
                0x000000000d022560                cdcacm_getqualdesc
 .text          0x000000000d022568        0x0 ../../spresense-exported-sdk/nuttx/libs/libnuttx.a(drivers-timer.o)
 .text.timer_read
                0x000000000d022568        0x4 ../../spresense-exported-sdk/nuttx/libs/libnuttx.a(drivers-timer.o)
 .text.timer_close
                0x000000000d02256c       0x22 ../../spresense-exported-sdk/nuttx/libs/libnuttx.a(drivers-timer.o)
 .text.timer_open
                0x000000000d02258e       0x2e ../../spresense-exported-sdk/nuttx/libs/libnuttx.a(drivers-timer.o)
 .text.timer_notifier
                0x000000000d0225bc       0x18 ../../spresense-exported-sdk/nuttx/libs/libnuttx.a(drivers-timer.o)
 .text.timer_write
                0x000000000d0225d4        0x4 ../../spresense-exported-sdk/nuttx/libs/libnuttx.a(drivers-timer.o)
 .text.timer_register
                0x000000000d0225d8       0x54 ../../spresense-exported-sdk/nuttx/libs/libnuttx.a(drivers-timer.o)
                0x000000000d0225d8                timer_register
 .text.timer_unregister
                0x000000000d02262c       0x28 ../../spresense-exported-sdk/nuttx/libs/libnuttx.a(drivers-timer.o)
                0x000000000d02262c                timer_unregister
 .text.timer_setcallback
                0x000000000d022654       0x16 ../../spresense-exported-sdk/nuttx/libs/libnuttx.a(drivers-timer.o)
                0x000000000d022654                timer_setcallback
 *fill*         0x000000000d02266a        0x2 
 .text.timer_ioctl
                0x000000000d02266c       0xa0 ../../spresense-exported-sdk/nuttx/libs/libnuttx.a(drivers-timer.o)
 .text          0x000000000d02270c        0x0 ../../spresense-exported-sdk/nuttx/libs/libnuttx.a(drivers-usbmsc_desc.o)
 .text.usbmsc_mkstrdesc
                0x000000000d02270c       0x80 ../../spresense-exported-sdk/nuttx/libs/libnuttx.a(drivers-usbmsc_desc.o)
                0x000000000d02270c                usbmsc_mkstrdesc
 .text.usbmsc_getdevdesc
                0x000000000d02278c        0x8 ../../spresense-exported-sdk/nuttx/libs/libnuttx.a(drivers-usbmsc_desc.o)
                0x000000000d02278c                usbmsc_getdevdesc
 .text.usbmsc_copy_epdesc
                0x000000000d022794       0x44 ../../spresense-exported-sdk/nuttx/libs/libnuttx.a(drivers-usbmsc_desc.o)
                0x000000000d022794                usbmsc_copy_epdesc
 .text.usbmsc_mkcfgdesc
                0x000000000d0227d8       0x88 ../../spresense-exported-sdk/nuttx/libs/libnuttx.a(drivers-usbmsc_desc.o)
                0x000000000d0227d8                usbmsc_mkcfgdesc
 .text.usbmsc_getqualdesc
                0x000000000d022860        0x8 ../../spresense-exported-sdk/nuttx/libs/libnuttx.a(drivers-usbmsc_desc.o)
                0x000000000d022860                usbmsc_getqualdesc
 .text          0x000000000d022868        0x0 ../../spresense-exported-sdk/nuttx/libs/libnuttx.a(drivers-watchdog.o)
 .text.wdog_read
                0x000000000d022868        0x4 ../../spresense-exported-sdk/nuttx/libs/libnuttx.a(drivers-watchdog.o)
 .text.wdog_ioctl
                0x000000000d02286c       0x94 ../../spresense-exported-sdk/nuttx/libs/libnuttx.a(drivers-watchdog.o)
 .text.wdog_close
                0x000000000d022900       0x24 ../../spresense-exported-sdk/nuttx/libs/libnuttx.a(drivers-watchdog.o)
 .text.wdog_open
                0x000000000d022924       0x30 ../../spresense-exported-sdk/nuttx/libs/libnuttx.a(drivers-watchdog.o)
 .text.wdog_write
                0x000000000d022954        0x4 ../../spresense-exported-sdk/nuttx/libs/libnuttx.a(drivers-watchdog.o)
 .text.watchdog_register
                0x000000000d022958       0x58 ../../spresense-exported-sdk/nuttx/libs/libnuttx.a(drivers-watchdog.o)
                0x000000000d022958                watchdog_register
 .text.watchdog_unregister
                0x000000000d0229b0       0x28 ../../spresense-exported-sdk/nuttx/libs/libnuttx.a(drivers-watchdog.o)
                0x000000000d0229b0                watchdog_unregister
 .text          0x000000000d0229d8        0x0 ../../spresense-exported-sdk/nuttx/libs/libnuttx.a(arch-cxd56_scufifo.o)
 .text.scufifo_memalloc
                0x000000000d0229d8       0x60 ../../spresense-exported-sdk/nuttx/libs/libnuttx.a(arch-cxd56_scufifo.o)
                0x000000000d0229d8                scufifo_memalloc
 .text.scufifo_memfree
                0x000000000d022a38       0x30 ../../spresense-exported-sdk/nuttx/libs/libnuttx.a(arch-cxd56_scufifo.o)
                0x000000000d022a38                scufifo_memfree
 .text.scufifo_initialize
                0x000000000d022a68       0x28 ../../spresense-exported-sdk/nuttx/libs/libnuttx.a(arch-cxd56_scufifo.o)
                0x000000000d022a68                scufifo_initialize
 .text          0x000000000d022a90        0x0 ../../spresense-exported-sdk/nuttx/libs/libnuttx.a(net-net_clone.o)
 .text.net_clone
                0x000000000d022a90       0x46 ../../spresense-exported-sdk/nuttx/libs/libnuttx.a(net-net_clone.o)
                0x000000000d022a90                net_clone
 .text          0x000000000d022ad6        0x0 ../../spresense-exported-sdk/nuttx/libs/libnuttx.a(fs-fs_fat32dirent.o)
 .text.fat_lfnchecksum
                0x000000000d022ad6       0x1e ../../spresense-exported-sdk/nuttx/libs/libnuttx.a(fs-fs_fat32dirent.o)
 .text.fat_cmplfnchunk
                0x000000000d022af4       0x2c ../../spresense-exported-sdk/nuttx/libs/libnuttx.a(fs-fs_fat32dirent.o)
 .text.fat_getlfnchunk
                0x000000000d022b20       0x1c ../../spresense-exported-sdk/nuttx/libs/libnuttx.a(fs-fs_fat32dirent.o)
 .text.fat_findsfnentry
                0x000000000d022b3c       0x7c ../../spresense-exported-sdk/nuttx/libs/libnuttx.a(fs-fs_fat32dirent.o)
 .text.fat_initlfname
                0x000000000d022bb8       0x1a ../../spresense-exported-sdk/nuttx/libs/libnuttx.a(fs-fs_fat32dirent.o)
 .text.fat_putlfnchunk
                0x000000000d022bd2       0x1c ../../spresense-exported-sdk/nuttx/libs/libnuttx.a(fs-fs_fat32dirent.o)
 *fill*         0x000000000d022bee        0x2 
 .text.fat_putlfname
                0x000000000d022bf0      0x37c ../../spresense-exported-sdk/nuttx/libs/libnuttx.a(fs-fs_fat32dirent.o)
 .text.fat_finddirentry
                0x000000000d022f6c      0x350 ../../spresense-exported-sdk/nuttx/libs/libnuttx.a(fs-fs_fat32dirent.o)
                0x000000000d022f6c                fat_finddirentry
 .text.fat_allocatedirentry
                0x000000000d0232bc      0x180 ../../spresense-exported-sdk/nuttx/libs/libnuttx.a(fs-fs_fat32dirent.o)
                0x000000000d0232bc                fat_allocatedirentry
 .text.fat_freedirentry
                0x000000000d02343c       0x76 ../../spresense-exported-sdk/nuttx/libs/libnuttx.a(fs-fs_fat32dirent.o)
                0x000000000d02343c                fat_freedirentry
 .text.fat_dirname2path
                0x000000000d0234b2      0x1a4 ../../spresense-exported-sdk/nuttx/libs/libnuttx.a(fs-fs_fat32dirent.o)
                0x000000000d0234b2                fat_dirname2path
 .text.fat_dirnamewrite
                0x000000000d023656       0x38 ../../spresense-exported-sdk/nuttx/libs/libnuttx.a(fs-fs_fat32dirent.o)
                0x000000000d023656                fat_dirnamewrite
 .text.fat_dirwrite
                0x000000000d02368e       0x64 ../../spresense-exported-sdk/nuttx/libs/libnuttx.a(fs-fs_fat32dirent.o)
                0x000000000d02368e                fat_dirwrite
 .text.fat_dircreate
                0x000000000d0236f2       0x22 ../../spresense-exported-sdk/nuttx/libs/libnuttx.a(fs-fs_fat32dirent.o)
                0x000000000d0236f2                fat_dircreate
 .text.fat_remove
                0x000000000d023714       0xd4 ../../spresense-exported-sdk/nuttx/libs/libnuttx.a(fs-fs_fat32dirent.o)
                0x000000000d023714                fat_remove
 .text          0x000000000d0237e8        0x0 ../../spresense-exported-sdk/nuttx/libs/libapps.a(builtin_list.o)
 .text          0x000000000d0237e8        0x0 ../../spresense-exported-sdk/nuttx/libs/libapps.a(hello_main.o)
 .text.hello_main
                0x000000000d0237e8       0x24 ../../spresense-exported-sdk/nuttx/libs/libapps.a(hello_main.o)
                0x000000000d0237e8                hello_main
 .text          0x000000000d02380c        0x0 ../../spresense-exported-sdk/nuttx/libs/libnuttx.a(c-lib_sin.o)
 *fill*         0x000000000d02380c        0x4 
 .text.sin      0x000000000d023810      0x12c ../../spresense-exported-sdk/nuttx/libs/libnuttx.a(c-lib_sin.o)
                0x000000000d023810                sin
 .text          0x000000000d02393c        0x0 ../../spresense-exported-sdk/nuttx/libs/libnuttx.a(c-lib_fmod.o)
 .text.fmod     0x000000000d02393c       0x32 ../../spresense-exported-sdk/nuttx/libs/libnuttx.a(c-lib_fmod.o)
                0x000000000d02393c                fmod
 .text          0x000000000d02396e        0x0 ../../spresense-exported-sdk/nuttx/libs/libnuttx.a(c-lib_modf.o)
 *fill*         0x000000000d02396e        0x2 
 .text.modf     0x000000000d023970       0x7c ../../spresense-exported-sdk/nuttx/libs/libnuttx.a(c-lib_modf.o)
                0x000000000d023970                modf
 .text          0x000000000d0239ec        0x0 ../../spresense-exported-sdk/nuttx/libs/libnuttx.a(c-lib_fabs.o)
 .text.fabs     0x000000000d0239ec       0x22 ../../spresense-exported-sdk/nuttx/libs/libnuttx.a(c-lib_fabs.o)
                0x000000000d0239ec                fabs
 *(.fixup)
 *(.gnu.warning)
 *(.rodata .rodata.*)
 .rodata.str1.1
                0x000000000d023a0e        0xe CMakeFiles/hellocpp.dir/main.cpp.obj
 .rodata        0x000000000d023a1c       0x30 ../../spresense-exported-sdk/nuttx/libs/libnuttx.a(arch-cxd56_uart.o)
 .rodata.g_uartdevs
                0x000000000d023a4c        0xc ../../spresense-exported-sdk/nuttx/libs/libnuttx.a(arch-cxd56_uart.o)
 .rodata.g_idlename
                0x000000000d023a58        0xa ../../spresense-exported-sdk/nuttx/libs/libnuttx.a(sched-nx_start.o)
 *fill*         0x000000000d023a62        0x2 
 .rodata.g_tasklisttable
                0x000000000d023a64       0x48 ../../spresense-exported-sdk/nuttx/libs/libnuttx.a(sched-nx_start.o)
                0x000000000d023a64                g_tasklisttable
 .rodata.lib_vsprintf.str1.1
                0x000000000d023aac        0x8 ../../spresense-exported-sdk/nuttx/libs/libnuttx.a(c-lib_libvsprintf.o)
 .rodata.g_nullstring
                0x000000000d023ab4        0x7 ../../spresense-exported-sdk/nuttx/libs/libnuttx.a(c-lib_libvsprintf.o)
 *fill*         0x000000000d023abb        0x1 
 .rodata.g_idle_topstack
                0x000000000d023abc        0x4 ../../spresense-exported-sdk/nuttx/libs/libnuttx.a(arch-cxd56_allocateheap.o)
                0x000000000d023abc                g_idle_topstack
 .rodata.CSWTCH.47
                0x000000000d023ac0        0x3 ../../spresense-exported-sdk/nuttx/libs/libnuttx.a(arch-cxd56_clock.o)
 .rodata.g_scui2c0
                0x000000000d023ac3        0x4 ../../spresense-exported-sdk/nuttx/libs/libnuttx.a(arch-cxd56_clock.o)
                0x000000000d023ac3                g_scui2c0
 .rodata.g_scuspi
                0x000000000d023ac7        0x4 ../../spresense-exported-sdk/nuttx/libs/libnuttx.a(arch-cxd56_clock.o)
                0x000000000d023ac7                g_scuspi
 .rodata.cxd56_pm_maintask.str1.1
                0x000000000d023acb       0x11 ../../spresense-exported-sdk/nuttx/libs/libnuttx.a(arch-cxd56_powermgr.o)
 .rodata.cxd56_pm_initialize.str1.1
                0x000000000d023adc        0xe ../../spresense-exported-sdk/nuttx/libs/libnuttx.a(arch-cxd56_powermgr.o)
 .rodata.up_serialinit.str1.1
                0x000000000d023aea       0x23 ../../spresense-exported-sdk/nuttx/libs/libnuttx.a(arch-cxd56_serial.o)
 *fill*         0x000000000d023b0d        0x3 
 .rodata.g_uart2_ops
                0x000000000d023b10       0x34 ../../spresense-exported-sdk/nuttx/libs/libnuttx.a(arch-cxd56_serial.o)
 .rodata.g_uart_ops
                0x000000000d023b44       0x34 ../../spresense-exported-sdk/nuttx/libs/libnuttx.a(arch-cxd56_serial.o)
 .rodata.usrsockdev_register.str1.1
                0x000000000d023b78        0xd ../../spresense-exported-sdk/nuttx/libs/libnuttx.a(net-usrsock_dev.o)
 *fill*         0x000000000d023b85        0x3 
 .rodata.g_usrsockdevops
                0x000000000d023b88       0x20 ../../spresense-exported-sdk/nuttx/libs/libnuttx.a(net-usrsock_dev.o)
 .rodata.mq_open.str1.1
                0x000000000d023ba8        0xf ../../spresense-exported-sdk/nuttx/libs/libnuttx.a(fs-mq_open.o)
 .rodata.group_setupidlefiles.str1.1
                0x000000000d023bb7        0xd ../../spresense-exported-sdk/nuttx/libs/libnuttx.a(sched-group_setupidlefiles.o)
 .rodata.irq_unexpected_isr.str1.1
                0x000000000d023bb7       0x18 ../../spresense-exported-sdk/nuttx/libs/libnuttx.a(sched-irq_unexpectedisr.o)
 .rodata.nx_start_task.str1.1
                0x000000000d023bcf        0x5 ../../spresense-exported-sdk/nuttx/libs/libnuttx.a(sched-nx_bringup.o)
 .rodata.nx_bringup.str1.1
                0x000000000d023bd4        0xb ../../spresense-exported-sdk/nuttx/libs/libnuttx.a(sched-nx_bringup.o)
 .rodata.g_noname
                0x000000000d023bdf        0x9 ../../spresense-exported-sdk/nuttx/libs/libnuttx.a(sched-task_setup.o)
 .rodata.devnull_register.str1.1
                0x000000000d023be8        0xa ../../spresense-exported-sdk/nuttx/libs/libnuttx.a(drivers-dev_null.o)
 *fill*         0x000000000d023bf2        0x2 
 .rodata.devnull_fops
                0x000000000d023bf4       0x20 ../../spresense-exported-sdk/nuttx/libs/libnuttx.a(drivers-dev_null.o)
 .rodata.g_serialops
                0x000000000d023c14       0x20 ../../spresense-exported-sdk/nuttx/libs/libnuttx.a(drivers-serial.o)
 .rodata.syslog_console_channel.str1.1
                0x000000000d023c34        0xd ../../spresense-exported-sdk/nuttx/libs/libnuttx.a(drivers-syslog_consolechannel.o)
 .rodata.g_syslog_console_channel
                0x000000000d023c34       0x10 ../../spresense-exported-sdk/nuttx/libs/libnuttx.a(drivers-syslog_consolechannel.o)
 .rodata.g_syscrlf
                0x000000000d023c44        0x2 ../../spresense-exported-sdk/nuttx/libs/libnuttx.a(drivers-syslog_device.o)
 .rodata.icc_irqhandler.str1.1
                0x000000000d023c46       0x11 ../../spresense-exported-sdk/nuttx/libs/libnuttx.a(arch-cxd56_icc.o)
 .rodata.cxd56_rtc_setalarm.str1.1
                0x000000000d023c57       0x11 ../../spresense-exported-sdk/nuttx/libs/libnuttx.a(arch-cxd56_rtc.o)
 .rodata.cxd56_usbdev_read.str1.1
                0x000000000d023c68       0x13 ../../spresense-exported-sdk/nuttx/libs/libnuttx.a(arch-cxd56_usbdev.o)
 .rodata.cxd56_usbinterrupt.str1.1
                0x000000000d023c7b       0x14 ../../spresense-exported-sdk/nuttx/libs/libnuttx.a(arch-cxd56_usbdev.o)
 .rodata.str1.1
                0x000000000d023c8f        0x7 ../../spresense-exported-sdk/nuttx/libs/libnuttx.a(arch-cxd56_usbdev.o)
 *fill*         0x000000000d023c96        0x2 
 .rodata.cxd56_usbdev_operations
                0x000000000d023c98       0x28 ../../spresense-exported-sdk/nuttx/libs/libnuttx.a(arch-cxd56_usbdev.o)
                0x000000000d023c98                cxd56_usbdev_operations
 .rodata.g_devops
                0x000000000d023cc0       0x1c ../../spresense-exported-sdk/nuttx/libs/libnuttx.a(arch-cxd56_usbdev.o)
 .rodata.g_epinfo
                0x000000000d023cdc       0x2a ../../spresense-exported-sdk/nuttx/libs/libnuttx.a(arch-cxd56_usbdev.o)
 *fill*         0x000000000d023d06        0x2 
 .rodata.g_epops
                0x000000000d023d08       0x24 ../../spresense-exported-sdk/nuttx/libs/libnuttx.a(arch-cxd56_usbdev.o)
 .rodata.g_procfs_usbdev
                0x000000000d023d2c        0xc ../../spresense-exported-sdk/nuttx/libs/libnuttx.a(arch-cxd56_usbdev.o)
 .rodata.up_stackdump.str1.1
                0x000000000d023d38       0x33 ../../spresense-exported-sdk/nuttx/libs/libnuttx.a(arch-up_assert.o)
 .rodata.up_taskdump.str1.1
                0x000000000d023d6b       0x26 ../../spresense-exported-sdk/nuttx/libs/libnuttx.a(arch-up_assert.o)
 .rodata.up_assert.str1.1
                0x000000000d023d91      0x1b8 ../../spresense-exported-sdk/nuttx/libs/libnuttx.a(arch-up_assert.o)
 .rodata.__FUNCTION__.8198
                0x000000000d023f49        0xd ../../spresense-exported-sdk/nuttx/libs/libnuttx.a(arch-up_assert.o)
 .rodata.__FUNCTION__.8206
                0x000000000d023f56        0xc ../../spresense-exported-sdk/nuttx/libs/libnuttx.a(arch-up_assert.o)
 .rodata.__FUNCTION__.8214
                0x000000000d023f62       0x10 ../../spresense-exported-sdk/nuttx/libs/libnuttx.a(arch-up_assert.o)
 .rodata.__FUNCTION__.8224
                0x000000000d023f72        0xd ../../spresense-exported-sdk/nuttx/libs/libnuttx.a(arch-up_assert.o)
 .rodata.__FUNCTION__.8236
                0x000000000d023f7f        0xa ../../spresense-exported-sdk/nuttx/libs/libnuttx.a(arch-up_assert.o)
 .rodata.up_hardfault.str1.1
                0x000000000d023f89       0x36 ../../spresense-exported-sdk/nuttx/libs/libnuttx.a(arch-up_hardfault.o)
 .rodata.__FUNCTION__.7300
                0x000000000d023fbf        0xd ../../spresense-exported-sdk/nuttx/libs/libnuttx.a(arch-up_hardfault.o)
 .rodata.procfs_readdir.str1.1
                0x000000000d023fcc        0x2 ../../spresense-exported-sdk/nuttx/libs/libnuttx.a(fs-fs_procfs.o)
                                          0x5 (size before relaxing)
 .rodata.procfs_opendir.str1.1
                0x000000000d023fce        0x2 ../../spresense-exported-sdk/nuttx/libs/libnuttx.a(fs-fs_procfs.o)
                                          0x1 (size before relaxing)
 .rodata.str1.1
                0x000000000d023fce       0x39 ../../spresense-exported-sdk/nuttx/libs/libnuttx.a(fs-fs_procfs.o)
                                         0x61 (size before relaxing)
 *fill*         0x000000000d024007        0x1 
 .rodata.g_base_entries
                0x000000000d024008       0x90 ../../spresense-exported-sdk/nuttx/libs/libnuttx.a(fs-fs_procfs.o)
 .rodata.procfs_operations
                0x000000000d024098       0x58 ../../spresense-exported-sdk/nuttx/libs/libnuttx.a(fs-fs_procfs.o)
                0x000000000d024098                procfs_operations
 .rodata.proc_stat.str1.1
                0x000000000d0240f0        0x7 ../../spresense-exported-sdk/nuttx/libs/libnuttx.a(fs-fs_procfsproc.o)
 .rodata.proc_read.str1.1
                0x000000000d0240f0      0x147 ../../spresense-exported-sdk/nuttx/libs/libnuttx.a(fs-fs_procfsproc.o)
                                        0x153 (size before relaxing)
 .rodata.str1.1
                0x000000000d024237       0xd0 ../../spresense-exported-sdk/nuttx/libs/libnuttx.a(fs-fs_procfsproc.o)
                                         0xe9 (size before relaxing)
 *fill*         0x000000000d024307        0x1 
 .rodata.g_cmdline
                0x000000000d024308        0xc ../../spresense-exported-sdk/nuttx/libs/libnuttx.a(fs-fs_procfsproc.o)
 .rodata.g_group
                0x000000000d024314        0xc ../../spresense-exported-sdk/nuttx/libs/libnuttx.a(fs-fs_procfsproc.o)
 .rodata.g_groupfd
                0x000000000d024320        0xc ../../spresense-exported-sdk/nuttx/libs/libnuttx.a(fs-fs_procfsproc.o)
 .rodata.g_groupinfo
                0x000000000d02432c        0x8 ../../spresense-exported-sdk/nuttx/libs/libnuttx.a(fs-fs_procfsproc.o)
 .rodata.g_groupstatus
                0x000000000d024334        0xc ../../spresense-exported-sdk/nuttx/libs/libnuttx.a(fs-fs_procfsproc.o)
 .rodata.g_level0info
                0x000000000d024340       0x10 ../../spresense-exported-sdk/nuttx/libs/libnuttx.a(fs-fs_procfsproc.o)
 .rodata.g_level0node
                0x000000000d024350        0xc ../../spresense-exported-sdk/nuttx/libs/libnuttx.a(fs-fs_procfsproc.o)
 .rodata.g_nodeinfo
                0x000000000d02435c       0x18 ../../spresense-exported-sdk/nuttx/libs/libnuttx.a(fs-fs_procfsproc.o)
 .rodata.g_policy
                0x000000000d024374       0x10 ../../spresense-exported-sdk/nuttx/libs/libnuttx.a(fs-fs_procfsproc.o)
 .rodata.g_stack
                0x000000000d024384        0xc ../../spresense-exported-sdk/nuttx/libs/libnuttx.a(fs-fs_procfsproc.o)
 .rodata.g_statenames
                0x000000000d024390       0x24 ../../spresense-exported-sdk/nuttx/libs/libnuttx.a(fs-fs_procfsproc.o)
 .rodata.g_status
                0x000000000d0243b4        0xc ../../spresense-exported-sdk/nuttx/libs/libnuttx.a(fs-fs_procfsproc.o)
 .rodata.g_ttypenames
                0x000000000d0243c0       0x10 ../../spresense-exported-sdk/nuttx/libs/libnuttx.a(fs-fs_procfsproc.o)
 .rodata.proc_operations
                0x000000000d0243d0       0x28 ../../spresense-exported-sdk/nuttx/libs/libnuttx.a(fs-fs_procfsproc.o)
                0x000000000d0243d0                proc_operations
 .rodata.uptime_stat.str1.1
                0x000000000d0243f8        0x7 ../../spresense-exported-sdk/nuttx/libs/libnuttx.a(fs-fs_procfsuptime.o)
 .rodata.uptime_read.str1.1
                0x000000000d0243f8        0x8 ../../spresense-exported-sdk/nuttx/libs/libnuttx.a(fs-fs_procfsuptime.o)
 .rodata.uptime_operations
                0x000000000d024400       0x28 ../../spresense-exported-sdk/nuttx/libs/libnuttx.a(fs-fs_procfsuptime.o)
                0x000000000d024400                uptime_operations
 .rodata.smartfs_status_read.str1.1
                0x000000000d024428      0x10b ../../spresense-exported-sdk/nuttx/libs/libnuttx.a(fs-smartfs_procfs.o)
 .rodata.smartfs_find_dirref.str1.1
                0x000000000d024533        0xb ../../spresense-exported-sdk/nuttx/libs/libnuttx.a(fs-smartfs_procfs.o)
 .rodata.str1.1
                0x000000000d02453e        0xb ../../spresense-exported-sdk/nuttx/libs/libnuttx.a(fs-smartfs_procfs.o)
                                         0x12 (size before relaxing)
 *fill*         0x000000000d024549        0x3 
 .rodata.g_direntry
                0x000000000d02454c       0x20 ../../spresense-exported-sdk/nuttx/libs/libnuttx.a(fs-smartfs_procfs.o)
 .rodata.smartfs_procfsoperations
                0x000000000d02456c       0x28 ../../spresense-exported-sdk/nuttx/libs/libnuttx.a(fs-smartfs_procfs.o)
                0x000000000d02456c                smartfs_procfsoperations
 .rodata.smartfs_finddirentry.str1.1
                0x000000000d024594        0x3 ../../spresense-exported-sdk/nuttx/libs/libnuttx.a(fs-smartfs_utils.o)
                                          0x5 (size before relaxing)
 .rodata.board_crashdump.str1.1
                0x000000000d024597        0x6 ../../spresense-exported-sdk/nuttx/libs/libnuttx.a(board-cxd56_crashdump.o)
 .rodata.work_hpstart.str1.1
                0x000000000d02459d        0x7 ../../spresense-exported-sdk/nuttx/libs/libnuttx.a(sched-kwork_hpthread.o)
 .rodata.work_lpstart.str1.1
                0x000000000d0245a4        0x7 ../../spresense-exported-sdk/nuttx/libs/libnuttx.a(sched-kwork_lpthread.o)
 *fill*         0x000000000d0245ab        0x1 
 .rodata.g_default_channel
                0x000000000d0245ac       0x10 ../../spresense-exported-sdk/nuttx/libs/libnuttx.a(drivers-syslog_channel.o)
                0x000000000d0245ac                g_default_channel
 *fill*         0x000000000d0245bc        0x4 
 .rodata.g_dtoa_round
                0x000000000d0245c0       0x80 ../../spresense-exported-sdk/nuttx/libs/libnuttx.a(c-lib_dtoa_data.o)
                0x000000000d0245c0                g_dtoa_round
 .rodata.g_dtoa_scale_down
                0x000000000d024640       0x48 ../../spresense-exported-sdk/nuttx/libs/libnuttx.a(c-lib_dtoa_data.o)
                0x000000000d024640                g_dtoa_scale_down
 .rodata.g_dtoa_scale_up
                0x000000000d024688       0x48 ../../spresense-exported-sdk/nuttx/libs/libnuttx.a(c-lib_dtoa_data.o)
                0x000000000d024688                g_dtoa_scale_up
 .rodata.match_one.str1.1
                0x000000000d0246d0        0x2 ../../spresense-exported-sdk/nuttx/libs/libnuttx.a(c-lib_match.o)
 .rodata.cxd56_farapiinitialize.str1.1
                0x000000000d0246d0       0x61 ../../spresense-exported-sdk/nuttx/libs/libnuttx.a(arch-cxd56_farapi.o)
 .rodata.__FUNCTION__.7372
                0x000000000d024731       0x17 ../../spresense-exported-sdk/nuttx/libs/libnuttx.a(arch-cxd56_farapi.o)
 .rodata.netdev_register.str1.1
                0x000000000d024748        0x6 ../../spresense-exported-sdk/nuttx/libs/libnuttx.a(net-netdev_register.o)
 .rodata.netprocfs_stat.str1.1
                0x000000000d02474e        0x4 ../../spresense-exported-sdk/nuttx/libs/libnuttx.a(net-net_procfs.o)
 *fill*         0x000000000d02474e        0x2 
 .rodata.net_procfsoperations
                0x000000000d024750       0x28 ../../spresense-exported-sdk/nuttx/libs/libnuttx.a(net-net_procfs.o)
                0x000000000d024750                net_procfsoperations
 .rodata.block_proxy.str1.1
                0x000000000d024778        0xf ../../spresense-exported-sdk/nuttx/libs/libnuttx.a(fs-fs_blockproxy.o)
 .rodata.meminfo_stat.str1.1
                0x000000000d024787        0x8 ../../spresense-exported-sdk/nuttx/libs/libnuttx.a(fs-fs_procfsmeminfo.o)
 .rodata.meminfo_read.str1.1
                0x000000000d024787       0x52 ../../spresense-exported-sdk/nuttx/libs/libnuttx.a(fs-fs_procfsmeminfo.o)
 *fill*         0x000000000d0247d9        0x3 
 .rodata.meminfo_operations
                0x000000000d0247dc       0x28 ../../spresense-exported-sdk/nuttx/libs/libnuttx.a(fs-fs_procfsmeminfo.o)
                0x000000000d0247dc                meminfo_operations
 .rodata.usage_entry.str1.1
                0x000000000d024804       0x5b ../../spresense-exported-sdk/nuttx/libs/libnuttx.a(fs-fs_procfs_mount.o)
 .rodata.blocks_entry.str1.1
                0x000000000d02485f       0x59 ../../spresense-exported-sdk/nuttx/libs/libnuttx.a(fs-fs_procfs_mount.o)
 .rodata.mount_entry.str1.1
                0x000000000d0248b8        0xe ../../spresense-exported-sdk/nuttx/libs/libnuttx.a(fs-fs_procfs_mount.o)
 .rodata.mount_open.str1.1
                0x000000000d0248c6       0x1c ../../spresense-exported-sdk/nuttx/libs/libnuttx.a(fs-fs_procfs_mount.o)
 *fill*         0x000000000d0248c6        0x2 
 .rodata.CSWTCH.4
                0x000000000d0248c8        0xc ../../spresense-exported-sdk/nuttx/libs/libnuttx.a(fs-fs_procfs_mount.o)
 .rodata.labels.7822
                0x000000000d0248d4        0x5 ../../spresense-exported-sdk/nuttx/libs/libnuttx.a(fs-fs_procfs_mount.o)
 *fill*         0x000000000d0248d9        0x3 
 .rodata.mount_procfsoperations
                0x000000000d0248dc       0x28 ../../spresense-exported-sdk/nuttx/libs/libnuttx.a(fs-fs_procfs_mount.o)
                0x000000000d0248dc                mount_procfsoperations
 .rodata.stat.str1.1
                0x000000000d024904        0x2 ../../spresense-exported-sdk/nuttx/libs/libnuttx.a(fs-fs_stat.o)
 .rodata.netprocfs_linklayer.str1.1
                0x000000000d024904       0x4b ../../spresense-exported-sdk/nuttx/libs/libnuttx.a(net-netdev_statistics.o)
                                         0x4e (size before relaxing)
 *fill*         0x000000000d02494f        0x1 
 .rodata.g_netstat_linegen
                0x000000000d024950        0x8 ../../spresense-exported-sdk/nuttx/libs/libnuttx.a(net-netdev_statistics.o)
 .rodata.mountpoint_filter.str1.1
                0x000000000d024958       0x4b ../../spresense-exported-sdk/nuttx/libs/libnuttx.a(fs-fs_foreachmountpoint.o)
                                          0x4 (size before relaxing)
 .rodata.fs_gettype.str1.1
                0x000000000d024958       0x1f ../../spresense-exported-sdk/nuttx/libs/libnuttx.a(fs-fs_gettype.o)
                                         0x27 (size before relaxing)
 *fill*         0x000000000d024977        0x1 
 .rodata.bch_fops
                0x000000000d024978       0x20 ../../spresense-exported-sdk/nuttx/libs/libnuttx.a(drivers-bchdev_driver.o)
                0x000000000d024978                bch_fops
 .rodata.ether_ntoa.str1.1
                0x000000000d024998       0x1e ../../spresense-exported-sdk/nuttx/libs/libnuttx.a(c-lib_etherntoa.o)
 .rodata.foreach_inodelevel.str1.1
                0x000000000d0249b6        0x4 ../../spresense-exported-sdk/nuttx/libs/libnuttx.a(fs-fs_foreachinode.o)
 .rodata.mtd_proxy.str1.1
                0x000000000d0249b6        0xf ../../spresense-exported-sdk/nuttx/libs/libnuttx.a(fs-fs_mtdproxy.o)
 .rodata.ftl_initialize.str1.1
                0x000000000d0249c5       0x10 ../../spresense-exported-sdk/nuttx/libs/libnuttx.a(drivers-ftl.o)
 *fill*         0x000000000d0249d5        0x3 
 .rodata.g_bops
                0x000000000d0249d8       0x1c ../../spresense-exported-sdk/nuttx/libs/libnuttx.a(drivers-ftl.o)
 .rodata.nsh_main.str1.1
                0x000000000d0249f4       0x27 ../../spresense-exported-sdk/nuttx/libs/libapps.a(nsh_main.o)
 *fill*         0x000000000d024a1b        0x1 
 .rodata.g_nsh_extmatch
                0x000000000d024a1c        0x8 ../../spresense-exported-sdk/nuttx/libs/libapps.a(nsh_init.o)
 .rodata.nsh_execute.str1.1
                0x000000000d024a24       0x29 ../../spresense-exported-sdk/nuttx/libs/libapps.a(nsh_parse.o)
                                         0x2e (size before relaxing)
 .rodata.nsh_strcat.str1.1
                0x000000000d024a4d        0x2 ../../spresense-exported-sdk/nuttx/libs/libapps.a(nsh_parse.o)
 .rodata.nsh_argument.str1.1
                0x000000000d024a4f       0x34 ../../spresense-exported-sdk/nuttx/libs/libapps.a(nsh_parse.o)
                                         0x3d (size before relaxing)
 .rodata.nsh_parse_command.str1.1
                0x000000000d024a83       0x33 ../../spresense-exported-sdk/nuttx/libs/libapps.a(nsh_parse.o)
                                         0x36 (size before relaxing)
 .rodata.g_arg_separator
                0x000000000d024ab6        0x3 ../../spresense-exported-sdk/nuttx/libs/libapps.a(nsh_parse.o)
 .rodata.g_exitstatus
                0x000000000d024ab9        0x2 ../../spresense-exported-sdk/nuttx/libs/libapps.a(nsh_parse.o)
 .rodata.g_failure
                0x000000000d024abb        0x2 ../../spresense-exported-sdk/nuttx/libs/libapps.a(nsh_parse.o)
 .rodata.g_fmtarginvalid
                0x000000000d024abd       0x1b ../../spresense-exported-sdk/nuttx/libs/libapps.a(nsh_parse.o)
                0x000000000d024abd                g_fmtarginvalid
 .rodata.g_fmtargrange
                0x000000000d024ad8       0x1d ../../spresense-exported-sdk/nuttx/libs/libapps.a(nsh_parse.o)
                0x000000000d024ad8                g_fmtargrange
 .rodata.g_fmtargrequired
                0x000000000d024af5       0x27 ../../spresense-exported-sdk/nuttx/libs/libapps.a(nsh_parse.o)
                0x000000000d024af5                g_fmtargrequired
 .rodata.g_fmtcmdfailed
                0x000000000d024b1c       0x18 ../../spresense-exported-sdk/nuttx/libs/libapps.a(nsh_parse.o)
                0x000000000d024b1c                g_fmtcmdfailed
 .rodata.g_fmtcmdnotfound
                0x000000000d024b34       0x1c ../../spresense-exported-sdk/nuttx/libs/libapps.a(nsh_parse.o)
                0x000000000d024b34                g_fmtcmdnotfound
 .rodata.g_fmtcmdoutofmemory
                0x000000000d024b50       0x18 ../../spresense-exported-sdk/nuttx/libs/libapps.a(nsh_parse.o)
                0x000000000d024b50                g_fmtcmdoutofmemory
 .rodata.g_fmtcontext
                0x000000000d024b68       0x24 ../../spresense-exported-sdk/nuttx/libs/libapps.a(nsh_parse.o)
                0x000000000d024b68                g_fmtcontext
 .rodata.g_fmtdeepnesting
                0x000000000d024b8c       0x1b ../../spresense-exported-sdk/nuttx/libs/libapps.a(nsh_parse.o)
                0x000000000d024b8c                g_fmtdeepnesting
 .rodata.g_fmtinternalerror
                0x000000000d024ba7       0x19 ../../spresense-exported-sdk/nuttx/libs/libapps.a(nsh_parse.o)
                0x000000000d024ba7                g_fmtinternalerror
 .rodata.g_fmtnomatching
                0x000000000d024bc0       0x19 ../../spresense-exported-sdk/nuttx/libs/libapps.a(nsh_parse.o)
                0x000000000d024bc0                g_fmtnomatching
 .rodata.g_fmtnosuch
                0x000000000d024bd9       0x19 ../../spresense-exported-sdk/nuttx/libs/libapps.a(nsh_parse.o)
                0x000000000d024bd9                g_fmtnosuch
 .rodata.g_fmtsignalrecvd
                0x000000000d024bf2       0x20 ../../spresense-exported-sdk/nuttx/libs/libapps.a(nsh_parse.o)
                0x000000000d024bf2                g_fmtsignalrecvd
 .rodata.g_fmtsyntax
                0x000000000d024c12       0x17 ../../spresense-exported-sdk/nuttx/libs/libapps.a(nsh_parse.o)
                0x000000000d024c12                g_fmtsyntax
 .rodata.g_fmttoomanyargs
                0x000000000d024c29       0x1d ../../spresense-exported-sdk/nuttx/libs/libapps.a(nsh_parse.o)
                0x000000000d024c29                g_fmttoomanyargs
 .rodata.g_line_separator
                0x000000000d024c46        0x5 ../../spresense-exported-sdk/nuttx/libs/libapps.a(nsh_parse.o)
 .rodata.g_nshgreeting
                0x000000000d024c4b       0x1c ../../spresense-exported-sdk/nuttx/libs/libapps.a(nsh_parse.o)
                0x000000000d024c4b                g_nshgreeting
 .rodata.g_nshprompt
                0x000000000d024c67        0x6 ../../spresense-exported-sdk/nuttx/libs/libapps.a(nsh_parse.o)
                0x000000000d024c67                g_nshprompt
 .rodata.g_nullstring
                0x000000000d024c6d        0x1 ../../spresense-exported-sdk/nuttx/libs/libapps.a(nsh_parse.o)
 .rodata.g_redirect1
                0x000000000d024c6e        0x2 ../../spresense-exported-sdk/nuttx/libs/libapps.a(nsh_parse.o)
 .rodata.g_redirect2
                0x000000000d024c70        0x3 ../../spresense-exported-sdk/nuttx/libs/libapps.a(nsh_parse.o)
 .rodata.g_success
                0x000000000d024c73        0x2 ../../spresense-exported-sdk/nuttx/libs/libapps.a(nsh_parse.o)
 .rodata.g_token_separator
                0x000000000d024c75        0x4 ../../spresense-exported-sdk/nuttx/libs/libapps.a(nsh_parse.o)
 .rodata.help_showcmd.str1.1
                0x000000000d024c79        0xf ../../spresense-exported-sdk/nuttx/libs/libapps.a(nsh_command.o)
 .rodata.help_cmd.str1.1
                0x000000000d024c88        0xa ../../spresense-exported-sdk/nuttx/libs/libapps.a(nsh_command.o)
 .rodata.cmd_help.str1.1
                0x000000000d024c92       0xec ../../spresense-exported-sdk/nuttx/libs/libapps.a(nsh_command.o)
                                         0xf6 (size before relaxing)
 .rodata.str1.1
                0x000000000d024d7e      0x498 ../../spresense-exported-sdk/nuttx/libs/libapps.a(nsh_command.o)
                                        0x4c3 (size before relaxing)
 *fill*         0x000000000d025216        0x2 
 .rodata.g_cmdmap
                0x000000000d025218      0x340 ../../spresense-exported-sdk/nuttx/libs/libapps.a(nsh_command.o)
 .rodata.nsh_getdirpath.str1.1
                0x000000000d025558        0x6 ../../spresense-exported-sdk/nuttx/libs/libapps.a(nsh_fscmds.o)
                                          0xc (size before relaxing)
 .rodata.ls_specialdir.str1.1
                0x000000000d02555e        0x5 ../../spresense-exported-sdk/nuttx/libs/libapps.a(nsh_fscmds.o)
 .rodata.ls_handler.str1.1
                0x000000000d02555e       0x12 ../../spresense-exported-sdk/nuttx/libs/libapps.a(nsh_fscmds.o)
                                         0x25 (size before relaxing)
 .rodata.ls_recursive.str1.1
                0x000000000d025570        0x5 ../../spresense-exported-sdk/nuttx/libs/libapps.a(nsh_fscmds.o)
 .rodata.cmd_basename.str1.1
                0x000000000d025575        0x5 ../../spresense-exported-sdk/nuttx/libs/libapps.a(nsh_fscmds.o)
                                          0x4 (size before relaxing)
 .rodata.cmd_cp.str1.1
                0x000000000d025575        0x6 ../../spresense-exported-sdk/nuttx/libs/libapps.a(nsh_fscmds.o)
                                         0x10 (size before relaxing)
 .rodata.cmd_ls.str1.1
                0x000000000d02557b        0x4 ../../spresense-exported-sdk/nuttx/libs/libapps.a(nsh_fscmds.o)
 .rodata.cmd_mkdir.str1.1
                0x000000000d02557f        0x6 ../../spresense-exported-sdk/nuttx/libs/libapps.a(nsh_fscmds.o)
 .rodata.cmd_mkfatfs.str1.1
                0x000000000d02557f        0x6 ../../spresense-exported-sdk/nuttx/libs/libapps.a(nsh_fscmds.o)
                                          0xe (size before relaxing)
 .rodata.cmd_mkfifo.str1.1
                0x000000000d025585        0x7 ../../spresense-exported-sdk/nuttx/libs/libapps.a(nsh_fscmds.o)
 .rodata.cmd_mkrd.str1.1
                0x000000000d025585       0x1d ../../spresense-exported-sdk/nuttx/libs/libapps.a(nsh_fscmds.o)
 .rodata.cmd_mksmartfs.str1.1
                0x000000000d0255a2       0x71 ../../spresense-exported-sdk/nuttx/libs/libapps.a(nsh_fscmds.o)
                                         0x7b (size before relaxing)
 .rodata.cmd_mv.str1.1
                0x000000000d025613        0x7 ../../spresense-exported-sdk/nuttx/libs/libapps.a(nsh_fscmds.o)
 .rodata.cmd_rm.str1.1
                0x000000000d02561a        0x7 ../../spresense-exported-sdk/nuttx/libs/libapps.a(nsh_fscmds.o)
 .rodata.cmd_rmdir.str1.1
                0x000000000d02561a        0x6 ../../spresense-exported-sdk/nuttx/libs/libapps.a(nsh_fscmds.o)
 .rodata.cmd_cmp.str1.1
                0x000000000d02561a       0x17 ../../spresense-exported-sdk/nuttx/libs/libapps.a(nsh_fscmds.o)
 *fill*         0x000000000d025631        0x3 
 .rodata        0x000000000d025634       0x20 ../../spresense-exported-sdk/nuttx/libs/libapps.a(nsh_fscmds.o)
 .rodata.cmd_dd.str1.1
                0x000000000d025654       0x19 ../../spresense-exported-sdk/nuttx/libs/libapps.a(nsh_ddcmd.o)
                                         0x29 (size before relaxing)
 .rodata.g_dd   0x000000000d02566d        0x3 ../../spresense-exported-sdk/nuttx/libs/libapps.a(nsh_ddcmd.o)
 .rodata.ps_callback.str1.1
                0x000000000d025670       0x6b ../../spresense-exported-sdk/nuttx/libs/libapps.a(nsh_proccmds.o)
                                         0x73 (size before relaxing)
 .rodata.cmd_exec.str1.1
                0x000000000d0256db        0xc ../../spresense-exported-sdk/nuttx/libs/libapps.a(nsh_proccmds.o)
 .rodata.cmd_ps.str1.1
                0x000000000d0256e7       0x5c ../../spresense-exported-sdk/nuttx/libs/libapps.a(nsh_proccmds.o)
 .rodata.cmd_kill.str1.1
                0x000000000d025743       0x5c ../../spresense-exported-sdk/nuttx/libs/libapps.a(nsh_proccmds.o)
                                          0xa (size before relaxing)
 .rodata.g_flags
                0x000000000d025743        0x7 ../../spresense-exported-sdk/nuttx/libs/libapps.a(nsh_proccmds.o)
 .rodata.g_groupid
                0x000000000d02574a        0x7 ../../spresense-exported-sdk/nuttx/libs/libapps.a(nsh_proccmds.o)
 .rodata.g_priority
                0x000000000d025751        0xa ../../spresense-exported-sdk/nuttx/libs/libapps.a(nsh_proccmds.o)
 .rodata.g_scheduler
                0x000000000d02575b        0xb ../../spresense-exported-sdk/nuttx/libs/libapps.a(nsh_proccmds.o)
 .rodata.g_sigmask
                0x000000000d025766        0x9 ../../spresense-exported-sdk/nuttx/libs/libapps.a(nsh_proccmds.o)
 .rodata.g_stacksize
                0x000000000d02576f        0xb ../../spresense-exported-sdk/nuttx/libs/libapps.a(nsh_proccmds.o)
 .rodata.g_stackused
                0x000000000d02577a        0xb ../../spresense-exported-sdk/nuttx/libs/libapps.a(nsh_proccmds.o)
 .rodata.g_state
                0x000000000d025785        0x7 ../../spresense-exported-sdk/nuttx/libs/libapps.a(nsh_proccmds.o)
 .rodata.g_type
                0x000000000d02578c        0x6 ../../spresense-exported-sdk/nuttx/libs/libapps.a(nsh_proccmds.o)
 .rodata.cmd_free.str1.1
                0x000000000d025792        0xe ../../spresense-exported-sdk/nuttx/libs/libapps.a(nsh_mmcmds.o)
 .rodata.cmd_time.str1.1
                0x000000000d0257a0       0x1e ../../spresense-exported-sdk/nuttx/libs/libapps.a(nsh_timcmds.o)
 .rodata.cmd_date.str1.1
                0x000000000d0257be       0x27 ../../spresense-exported-sdk/nuttx/libs/libapps.a(nsh_timcmds.o)
                                         0x2e (size before relaxing)
 .rodata.str1.1
                0x000000000d0257e5       0x30 ../../spresense-exported-sdk/nuttx/libs/libapps.a(nsh_timcmds.o)
 .rodata.format.7756
                0x000000000d025815       0x12 ../../spresense-exported-sdk/nuttx/libs/libapps.a(nsh_timcmds.o)
 *fill*         0x000000000d025827        0x1 
 .rodata.g_datemontab
                0x000000000d025828       0x30 ../../spresense-exported-sdk/nuttx/libs/libapps.a(nsh_timcmds.o)
 .rodata.nsh_getfullpath.str1.1
                0x000000000d025858        0xf ../../spresense-exported-sdk/nuttx/libs/libapps.a(nsh_envcmds.o)
                                         0x1d (size before relaxing)
 .rodata.cmd_cd.str1.1
                0x000000000d025867        0x8 ../../spresense-exported-sdk/nuttx/libs/libapps.a(nsh_envcmds.o)
                                          0xd (size before relaxing)
 .rodata.cmd_echo.str1.1
                0x000000000d02586f        0x3 ../../spresense-exported-sdk/nuttx/libs/libapps.a(nsh_envcmds.o)
                                          0xa (size before relaxing)
 .rodata.cmd_pwd.str1.1
                0x000000000d025872        0x4 ../../spresense-exported-sdk/nuttx/libs/libapps.a(nsh_envcmds.o)
 .rodata.cmd_set.str1.1
                0x000000000d025872        0x3 ../../spresense-exported-sdk/nuttx/libs/libapps.a(nsh_envcmds.o)
                                          0xe (size before relaxing)
 .rodata.cmd_unset.str1.1
                0x000000000d025875        0x9 ../../spresense-exported-sdk/nuttx/libs/libapps.a(nsh_envcmds.o)
 .rodata.g_home
                0x000000000d02587e        0x2 ../../spresense-exported-sdk/nuttx/libs/libapps.a(nsh_envcmds.o)
 .rodata.g_oldpwd
                0x000000000d025880        0x7 ../../spresense-exported-sdk/nuttx/libs/libapps.a(nsh_envcmds.o)
 .rodata.g_pwd  0x000000000d025887        0x4 ../../spresense-exported-sdk/nuttx/libs/libapps.a(nsh_envcmds.o)
 .rodata.cmd_poweroff.str1.1
                0x000000000d02588b        0x9 ../../spresense-exported-sdk/nuttx/libs/libapps.a(nsh_syscmds.o)
 .rodata.cmd_uname.str1.1
                0x000000000d025894       0x14 ../../spresense-exported-sdk/nuttx/libs/libapps.a(nsh_syscmds.o)
                                         0x1e (size before relaxing)
 .rodata.g_unknown
                0x000000000d0258a8        0x8 ../../spresense-exported-sdk/nuttx/libs/libapps.a(nsh_syscmds.o)
 .rodata.cmd_mb.str1.1
                0x000000000d0258b0       0x19 ../../spresense-exported-sdk/nuttx/libs/libapps.a(nsh_dbgcmds.o)
                                         0x1b (size before relaxing)
 .rodata.cmd_mh.str1.1
                0x000000000d0258c9       0x19 ../../spresense-exported-sdk/nuttx/libs/libapps.a(nsh_dbgcmds.o)
 .rodata.cmd_mw.str1.1
                0x000000000d0258e2       0x19 ../../spresense-exported-sdk/nuttx/libs/libapps.a(nsh_dbgcmds.o)
 .rodata.nsh_dumpbuffer.str1.1
                0x000000000d0258fb       0x10 ../../spresense-exported-sdk/nuttx/libs/libapps.a(nsh_dbgcmds.o)
                                         0x1d (size before relaxing)
 .rodata.cmd_xd.str1.1
                0x000000000d02590b        0x9 ../../spresense-exported-sdk/nuttx/libs/libapps.a(nsh_dbgcmds.o)
 .rodata.cmd_hexdump.str1.1
                0x000000000d025914       0x12 ../../spresense-exported-sdk/nuttx/libs/libapps.a(nsh_dbgcmds.o)
                                         0x31 (size before relaxing)
 .rodata.nsh_catfile.str1.1
                0x000000000d025926       0x17 ../../spresense-exported-sdk/nuttx/libs/libapps.a(nsh_fsutils.o)
 .rodata.nsh_foreach_direntry.str1.1
                0x000000000d025926        0xa ../../spresense-exported-sdk/nuttx/libs/libapps.a(nsh_fsutils.o)
 .rodata.nsh_builtin.str1.1
                0x000000000d025930        0x8 ../../spresense-exported-sdk/nuttx/libs/libapps.a(nsh_builtin.o)
                                         0x14 (size before relaxing)
 .rodata.ifconfig_callback.str1.1
                0x000000000d025938        0xd ../../spresense-exported-sdk/nuttx/libs/libapps.a(nsh_netcmds.o)
                                         0x16 (size before relaxing)
 .rodata.nsh_foreach_netdev.constprop.0.str1.1
                0x000000000d025945       0x12 ../../spresense-exported-sdk/nuttx/libs/libapps.a(nsh_netcmds.o)
                                         0x17 (size before relaxing)
 .rodata.tftpc_parseargs.str1.1
                0x000000000d025957        0x8 ../../spresense-exported-sdk/nuttx/libs/libapps.a(nsh_netcmds.o)
 .rodata.cmd_ifup.str1.1
                0x000000000d02595f       0x2f ../../spresense-exported-sdk/nuttx/libs/libapps.a(nsh_netcmds.o)
                                         0x34 (size before relaxing)
 .rodata.cmd_ifdown.str1.1
                0x000000000d02598e       0x10 ../../spresense-exported-sdk/nuttx/libs/libapps.a(nsh_netcmds.o)
                                         0x17 (size before relaxing)
 .rodata.cmd_ifconfig.str1.1
                0x000000000d02599e       0x24 ../../spresense-exported-sdk/nuttx/libs/libapps.a(nsh_netcmds.o)
 .rodata.cmd_df.str1.1
                0x000000000d0259c2       0x22 ../../spresense-exported-sdk/nuttx/libs/libapps.a(nsh_mntcmds.o)
 .rodata.cmd_mount.str1.1
                0x000000000d0259e4       0x15 ../../spresense-exported-sdk/nuttx/libs/libapps.a(nsh_mntcmds.o)
                                         0x1b (size before relaxing)
 .rodata.cmd_umount.str1.1
                0x000000000d0259f9        0x7 ../../spresense-exported-sdk/nuttx/libs/libapps.a(nsh_mntcmds.o)
 .rodata.expression.str1.1
                0x000000000d0259f9       0x3c ../../spresense-exported-sdk/nuttx/libs/libapps.a(nsh_test.o)
                                         0x4b (size before relaxing)
 .rodata.cmd_lbracket.str1.1
                0x000000000d025a35       0x3c ../../spresense-exported-sdk/nuttx/libs/libapps.a(nsh_test.o)
                                          0x2 (size before relaxing)
 .rodata.g_erasetoeol
                0x000000000d025a35        0x3 ../../spresense-exported-sdk/nuttx/libs/libapps.a(readline_common.o)
 .rodata.netinit_bringup.str1.1
                0x000000000d025a38        0x5 ../../spresense-exported-sdk/nuttx/libs/libapps.a(netinit.o)
 .rodata.mkfatfs_initmbr.str1.1
                0x000000000d025a3d       0x24 ../../spresense-exported-sdk/nuttx/libs/libapps.a(writefat.o)
 .rodata.mkfatfs_writefatfs.str1.1
                0x000000000d025a61        0xc ../../spresense-exported-sdk/nuttx/libs/libapps.a(writefat.o)
 .rodata.nsh_openifnotopen.part.0.str1.1
                0x000000000d025a6d        0xc ../../spresense-exported-sdk/nuttx/libs/libapps.a(nsh_console.o)
                                          0x2 (size before relaxing)
 .rodata.nsh_script.str1.1
                0x000000000d025a6d       0x11 ../../spresense-exported-sdk/nuttx/libs/libapps.a(nsh_script.o)
                                         0x16 (size before relaxing)
 .rodata.nsh_session.str1.1
                0x000000000d025a7e       0x15 ../../spresense-exported-sdk/nuttx/libs/libapps.a(nsh_session.o)
 .rodata.setenv.str1.1
                0x000000000d025a93        0x6 ../../spresense-exported-sdk/nuttx/libs/libnuttx.a(sched-env_setenv.o)
 *fill*         0x000000000d025a99        0x3 
 .rodata.g_default_pthread_attr
                0x000000000d025a9c        0xc ../../spresense-exported-sdk/nuttx/libs/libnuttx.a(sched-pthread_create.o)
                0x000000000d025a9c                g_default_pthread_attr
 .rodata.g_pthreadname
                0x000000000d025aa8        0xa ../../spresense-exported-sdk/nuttx/libs/libnuttx.a(sched-pthread_create.o)
 .rodata.task_spawn.str1.1
                0x000000000d025ab2       0x13 ../../spresense-exported-sdk/nuttx/libs/libnuttx.a(sched-task_spawn.o)
 .rodata.chdir.str1.1
                0x000000000d025ac5        0x7 ../../spresense-exported-sdk/nuttx/libs/libnuttx.a(c-lib_chdir.o)
                                          0xd (size before relaxing)
 .rodata.strftime.str1.1
                0x000000000d025acc       0x23 ../../spresense-exported-sdk/nuttx/libs/libnuttx.a(c-lib_strftime.o)
                                         0x29 (size before relaxing)
 .rodata.str1.1
                0x000000000d025aef       0x82 ../../spresense-exported-sdk/nuttx/libs/libnuttx.a(c-lib_strftime.o)
 *fill*         0x000000000d025b71        0x3 
 .rodata.g_abbrev_monthname
                0x000000000d025b74       0x30 ../../spresense-exported-sdk/nuttx/libs/libnuttx.a(c-lib_strftime.o)
 .rodata.g_monthname
                0x000000000d025ba4       0x30 ../../spresense-exported-sdk/nuttx/libs/libnuttx.a(c-lib_strftime.o)
 .rodata.uname.str1.1
                0x000000000d025bd4       0x3f ../../spresense-exported-sdk/nuttx/libs/libnuttx.a(c-lib_utsname.o)
                                         0x43 (size before relaxing)
 *fill*         0x000000000d025c13        0x1 
 .rodata.g_usrsock_sockif
                0x000000000d025c14       0x3c ../../spresense-exported-sdk/nuttx/libs/libnuttx.a(net-usrsock_sockif.o)
                0x000000000d025c14                g_usrsock_sockif
 .rodata.str1.1
                0x000000000d025c50       0x1a ../../spresense-exported-sdk/nuttx/libs/libnuttx.a(fs-fs_mount.o)
 .rodata.g_bdfsmap
                0x000000000d025c50       0x20 ../../spresense-exported-sdk/nuttx/libs/libnuttx.a(fs-fs_mount.o)
 .rodata.g_nonbdfsmap
                0x000000000d025c70       0x10 ../../spresense-exported-sdk/nuttx/libs/libnuttx.a(fs-fs_mount.o)
 .rodata.opendir.str1.1
                0x000000000d025c80        0x2 ../../spresense-exported-sdk/nuttx/libs/libnuttx.a(fs-fs_opendir.o)
 .rodata.rename.str1.1
                0x000000000d025c80        0xa ../../spresense-exported-sdk/nuttx/libs/libnuttx.a(fs-fs_rename.o)
 .rodata.romfs_operations
                0x000000000d025c80       0x58 ../../spresense-exported-sdk/nuttx/libs/libnuttx.a(fs-fs_romfs.o)
                0x000000000d025c80                romfs_operations
 .rodata.romfs_fsconfigure.str1.1
                0x000000000d025cd8        0x9 ../../spresense-exported-sdk/nuttx/libs/libnuttx.a(fs-fs_romfsutil.o)
 *fill*         0x000000000d025ce1        0x3 
 .rodata.smartfs_operations
                0x000000000d025ce4       0x58 ../../spresense-exported-sdk/nuttx/libs/libnuttx.a(fs-smartfs_smart.o)
                0x000000000d025ce4                smartfs_operations
 .rodata.cxd56_bringup.str1.1
                0x000000000d025d3c        0xd ../../spresense-exported-sdk/nuttx/libs/libnuttx.a(board-cxd56_bringup.o)
                                         0x1a (size before relaxing)
 .rodata.board_flash_initialize.str1.1
                0x000000000d025d49       0x18 ../../spresense-exported-sdk/nuttx/libs/libnuttx.a(board-cxd56_flash.o)
                                         0x20 (size before relaxing)
 *fill*         0x000000000d025d61        0x3 
 .rodata        0x000000000d025d64       0x30 ../../spresense-exported-sdk/nuttx/libs/libnuttx.a(board-cxd56_power.o)
 .rodata.cdcacm_initialize.str1.1
                0x000000000d025d94        0xe ../../spresense-exported-sdk/nuttx/libs/libnuttx.a(drivers-cdcacm.o)
 *fill*         0x000000000d025da2        0x2 
 .rodata.g_driverops
                0x000000000d025da4       0x18 ../../spresense-exported-sdk/nuttx/libs/libnuttx.a(drivers-cdcacm.o)
 .rodata.g_uartops
                0x000000000d025dbc       0x34 ../../spresense-exported-sdk/nuttx/libs/libnuttx.a(drivers-cdcacm.o)
 .rodata.fifo_fops
                0x000000000d025df0       0x20 ../../spresense-exported-sdk/nuttx/libs/libnuttx.a(drivers-fifo.o)
 .rodata.i2c_register.str1.1
                0x000000000d025e10        0xb ../../spresense-exported-sdk/nuttx/libs/libnuttx.a(drivers-i2c_driver.o)
 *fill*         0x000000000d025e1b        0x1 
 .rodata.i2cdrvr_fops
                0x000000000d025e1c       0x20 ../../spresense-exported-sdk/nuttx/libs/libnuttx.a(drivers-i2c_driver.o)
 .rodata.ramdisk_register.str1.1
                0x000000000d025e3c        0xb ../../spresense-exported-sdk/nuttx/libs/libnuttx.a(drivers-ramdisk.o)
 *fill*         0x000000000d025e47        0x1 
 .rodata.g_bops
                0x000000000d025e48       0x1c ../../spresense-exported-sdk/nuttx/libs/libnuttx.a(drivers-ramdisk.o)
 .rodata.rtc_initialize.str1.1
                0x000000000d025e64        0xb ../../spresense-exported-sdk/nuttx/libs/libnuttx.a(drivers-rtc.o)
 *fill*         0x000000000d025e6f        0x1 
 .rodata.rtc_fops
                0x000000000d025e70       0x20 ../../spresense-exported-sdk/nuttx/libs/libnuttx.a(drivers-rtc.o)
 .rodata.smart_findfreephyssector.isra.0.str1.1
                0x000000000d025e90        0x5 ../../spresense-exported-sdk/nuttx/libs/libnuttx.a(drivers-smart.o)
 .rodata.smart_scan.str1.1
                0x000000000d025e95       0x22 ../../spresense-exported-sdk/nuttx/libs/libnuttx.a(drivers-smart.o)
 .rodata.smart_initialize.str1.1
                0x000000000d025eb7       0x20 ../../spresense-exported-sdk/nuttx/libs/libnuttx.a(drivers-smart.o)
 *fill*         0x000000000d025ed7        0x1 
 .rodata.g_bops
                0x000000000d025ed8       0x1c ../../spresense-exported-sdk/nuttx/libs/libnuttx.a(drivers-smart.o)
 .rodata.sizetbl.7969
                0x000000000d025ef4       0x10 ../../spresense-exported-sdk/nuttx/libs/libnuttx.a(drivers-smart.o)
 .rodata.usbmsc_exportluns.str1.1
                0x000000000d025f04        0x6 ../../spresense-exported-sdk/nuttx/libs/libnuttx.a(drivers-usbmsc.o)
 .rodata.crc8_tab
                0x000000000d025f0a      0x100 ../../spresense-exported-sdk/nuttx/libs/libnuttx.a(c-lib_crc8.o)
 .rodata.g_daysbeforemonth
                0x000000000d02600a       0x1a ../../spresense-exported-sdk/nuttx/libs/libnuttx.a(c-lib_daysbeforemonth.o)
 .rodata.cxd56_i2c_setfrequency.str1.1
                0x000000000d026024       0x11 ../../spresense-exported-sdk/nuttx/libs/libnuttx.a(arch-cxd56_i2c.o)
 *fill*         0x000000000d026035        0x3 
 .rodata        0x000000000d026038       0x10 ../../spresense-exported-sdk/nuttx/libs/libnuttx.a(arch-cxd56_i2c.o)
 .rodata.g_rtc_ops
                0x000000000d026048       0x20 ../../spresense-exported-sdk/nuttx/libs/libnuttx.a(arch-cxd56_rtc_lowerhalf.o)
 .rodata.g_caddrs
                0x000000000d026068       0x90 ../../spresense-exported-sdk/nuttx/libs/libnuttx.a(arch-cxd56_scu.o)
 .rodata.scu_isopprog_array
                0x000000000d0260f8     0x1c88 ../../spresense-exported-sdk/nuttx/libs/libnuttx.a(arch-cxd56_scu.o)
                0x000000000d0260f8                scu_isopprog_array
 .rodata.sizeof_scu_isopprog_array
                0x000000000d027d80        0x4 ../../spresense-exported-sdk/nuttx/libs/libnuttx.a(arch-cxd56_scu.o)
                0x000000000d027d80                sizeof_scu_isopprog_array
 .rodata.cxd56_sysctlinitialize.str1.1
                0x000000000d027d84        0xc ../../spresense-exported-sdk/nuttx/libs/libnuttx.a(arch-cxd56_sysctl.o)
 .rodata.g_sysctlfops
                0x000000000d027d90       0x20 ../../spresense-exported-sdk/nuttx/libs/libnuttx.a(arch-cxd56_sysctl.o)
 .rodata.cxd56_timer_initialize.str1.1
                0x000000000d027db0       0x13 ../../spresense-exported-sdk/nuttx/libs/libnuttx.a(arch-cxd56_timer.o)
 *fill*         0x000000000d027dc3        0x1 
 .rodata.g_tmrops
                0x000000000d027dc4       0x1c ../../spresense-exported-sdk/nuttx/libs/libnuttx.a(arch-cxd56_timer.o)
 .rodata.cxd56_wdt_initialize.str1.1
                0x000000000d027de0        0xf ../../spresense-exported-sdk/nuttx/libs/libnuttx.a(arch-cxd56_wdt.o)
 *fill*         0x000000000d027def        0x1 
 .rodata.g_wdgops
                0x000000000d027df0       0x1c ../../spresense-exported-sdk/nuttx/libs/libnuttx.a(arch-cxd56_wdt.o)
 .rodata.fat_operations
                0x000000000d027e0c       0x58 ../../spresense-exported-sdk/nuttx/libs/libnuttx.a(fs-fs_fat32.o)
                0x000000000d027e0c                fat_operations
 .rodata.cdcacm_mkstrdesc.str1.1
                0x000000000d027e64       0x19 ../../spresense-exported-sdk/nuttx/libs/libnuttx.a(drivers-cdcacm_desc.o)
                                         0x1b (size before relaxing)
 .rodata.g_devdesc
                0x000000000d027e7d       0x12 ../../spresense-exported-sdk/nuttx/libs/libnuttx.a(drivers-cdcacm_desc.o)
 .rodata.g_qualdesc
                0x000000000d027e8f        0xa ../../spresense-exported-sdk/nuttx/libs/libnuttx.a(drivers-cdcacm_desc.o)
 *fill*         0x000000000d027e99        0x3 
 .rodata.g_timerops
                0x000000000d027e9c       0x20 ../../spresense-exported-sdk/nuttx/libs/libnuttx.a(drivers-timer.o)
 .rodata.usbmsc_mkstrdesc.str1.1
                0x000000000d027ebc        0x5 ../../spresense-exported-sdk/nuttx/libs/libnuttx.a(drivers-usbmsc_desc.o)
 .rodata.g_devdesc
                0x000000000d027ebc       0x12 ../../spresense-exported-sdk/nuttx/libs/libnuttx.a(drivers-usbmsc_desc.o)
 .rodata.g_mscproductstr
                0x000000000d027ece        0xd ../../spresense-exported-sdk/nuttx/libs/libnuttx.a(drivers-usbmsc_desc.o)
                0x000000000d027ece                g_mscproductstr
 .rodata.g_mscserialstr
                0x000000000d027edb        0x5 ../../spresense-exported-sdk/nuttx/libs/libnuttx.a(drivers-usbmsc_desc.o)
                0x000000000d027edb                g_mscserialstr
 .rodata.g_mscvendorstr
                0x000000000d027ee0        0x5 ../../spresense-exported-sdk/nuttx/libs/libnuttx.a(drivers-usbmsc_desc.o)
                0x000000000d027ee0                g_mscvendorstr
 .rodata.g_qualdesc
                0x000000000d027ee5        0xa ../../spresense-exported-sdk/nuttx/libs/libnuttx.a(drivers-usbmsc_desc.o)
 *fill*         0x000000000d027eef        0x1 
 .rodata.g_wdogops
                0x000000000d027ef0       0x20 ../../spresense-exported-sdk/nuttx/libs/libnuttx.a(drivers-watchdog.o)
 .rodata.str1.1
                0x000000000d027f10        0xa ../../spresense-exported-sdk/nuttx/libs/libapps.a(builtin_list.o)
 *fill*         0x000000000d027f1a        0x2 
 .rodata.g_builtin_count
                0x000000000d027f1c        0x4 ../../spresense-exported-sdk/nuttx/libs/libapps.a(builtin_list.o)
                0x000000000d027f1c                g_builtin_count
 .rodata.g_builtins
                0x000000000d027f20       0x30 ../../spresense-exported-sdk/nuttx/libs/libapps.a(builtin_list.o)
                0x000000000d027f20                g_builtins
 .rodata.hello_main.str1.1
                0x000000000d027f50       0x13 ../../spresense-exported-sdk/nuttx/libs/libapps.a(hello_main.o)
 *fill*         0x000000000d027f63        0x5 
 .rodata._dbl_inv_fact
                0x000000000d027f68       0x50 ../../spresense-exported-sdk/nuttx/libs/libnuttx.a(c-lib_sin.o)
 *(.gnu.linkonce.t.*)
 *(.glue_7)
 .glue_7        0x000000000d027fb8        0x0 linker stubs
 *(.glue_7t)
 .glue_7t       0x000000000d027fb8        0x0 linker stubs
 *(.got)
 *(.gcc_except_table)
 *(.gnu.linkonce.r.*)
                0x000000000d027fb8                Image$$MODLIST$$Base = .
 *(.modulelist)
 .modulelist    0x000000000d027fb8       0xb0 ../../spresense-exported-sdk/nuttx/libs/libnuttx.a(arch-cxd56_farapistub.o)
                0x000000000d027fb8                _modulelist_power_mgr
                0x000000000d027fc8                _modulelist_flash_mgr
                0x000000000d027fd8                _modulelist_rtc_mgr
                0x000000000d027fe8                _modulelist_gnss_pwr
                0x000000000d027ff8                _modulelist_aca
                0x000000000d028008                _modulelist_pinconfig
                0x000000000d028018                _modulelist_uart
                0x000000000d028028                _modulelist_update_mgr
                0x000000000d028038                _modulelist_gnss
                0x000000000d028048                _modulelist_gnss_geofence
                0x000000000d028058                _modulelist_gnss_pvtlog
                0x000000000d028068                Image$$MODLIST$$Limit = .
                0x000000000d028068                _etext = ABSOLUTE (.)

.vfp11_veneer   0x000000000d028068        0x0
 .vfp11_veneer  0x000000000d028068        0x0 linker stubs

.v4_bx          0x000000000d028068        0x0
 .v4_bx         0x000000000d028068        0x0 linker stubs

.iplt           0x000000000d028068        0x0
 .iplt          0x000000000d028068        0x0 CMakeFiles/hellocpp.dir/HelloWorld.cpp.obj

.rel.dyn        0x000000000d028068        0x0
 .rel.iplt      0x000000000d028068        0x0 CMakeFiles/hellocpp.dir/HelloWorld.cpp.obj

.init_section   0x000000000d028068        0x0
                0x000000000d028068                _sinit = ABSOLUTE (.)
 *(.init_array .init_array.*)
                0x000000000d028068                _einit = ABSOLUTE (.)

.ARM.extab
 *(.ARM.extab*)
                0x000000000d028068                __exidx_start = ABSOLUTE (.)

.ARM.exidx
 *(.ARM.exidx*)
                0x000000000d028068                __exidx_end = ABSOLUTE (.)
                0x000000000d028068                _eronly = ABSOLUTE (.)

.data           0x000000000d028068      0x208
                0x000000000d028068                _sdata = ABSOLUTE (.)
 *(.data .data.*)
 .data          0x000000000d028068        0x0 CMakeFiles/hellocpp.dir/HelloWorld.cpp.obj
 .data          0x000000000d028068        0x0 CMakeFiles/hellocpp.dir/main.cpp.obj
 .data          0x000000000d028068        0x0 ../../spresense-exported-sdk/nuttx/libs/libnuttx.a(c-lib_printf.o)
 .data          0x000000000d028068        0x0 ../../spresense-exported-sdk/nuttx/libs/libnuttx.a(c-lib_vfprintf.o)
 .data          0x000000000d028068        0x0 ../../spresense-exported-sdk/nuttx/libs/libnuttx.a(arch-cxd56_start.o)
 .data          0x000000000d028068        0x0 ../../spresense-exported-sdk/nuttx/libs/libnuttx.a(arch-cxd56_uart.o)
 .data          0x000000000d028068        0x0 ../../spresense-exported-sdk/nuttx/libs/libnuttx.a(arch-up_vectors.o)
 .data          0x000000000d028068        0x0 ../../spresense-exported-sdk/nuttx/libs/libnuttx.a(board-cxd56_boot.o)
 .data          0x000000000d028068        0x0 ../../spresense-exported-sdk/nuttx/libs/libnuttx.a(board-cxd56_main.o)
 .data          0x000000000d028068        0x0 ../../spresense-exported-sdk/nuttx/libs/libnuttx.a(sched-nx_start.o)
 .data          0x000000000d028068        0x0 ../../spresense-exported-sdk/nuttx/libs/libnuttx.a(sched-sched_getstreams.o)
 .data          0x000000000d028068        0x0 ../../spresense-exported-sdk/nuttx/libs/libnuttx.a(drivers-syslog_initialize.o)
 .data          0x000000000d028068        0x0 ../../spresense-exported-sdk/nuttx/libs/libnuttx.a(c-dq_addfirst.o)
 .data          0x000000000d028068        0x0 ../../spresense-exported-sdk/nuttx/libs/libnuttx.a(c-lib_filesem.o)
 .data          0x000000000d028068        0x0 ../../spresense-exported-sdk/nuttx/libs/libnuttx.a(c-lib_libvsprintf.o)
 .data          0x000000000d028068        0x0 ../../spresense-exported-sdk/nuttx/libs/libnuttx.a(c-lib_memset.o)
 .data          0x000000000d028068        0x0 ../../spresense-exported-sdk/nuttx/libs/libnuttx.a(c-lib_stdoutstream.o)
 .data          0x000000000d028068        0x0 ../../spresense-exported-sdk/nuttx/libs/libnuttx.a(c-lib_strncpy.o)
 .data          0x000000000d028068        0x0 ../../spresense-exported-sdk/nuttx/libs/libnuttx.a(c-lib_strnlen.o)
 .data          0x000000000d028068        0x0 ../../spresense-exported-sdk/nuttx/libs/libnuttx.a(c-lib_ultoa_invert.o)
 .data          0x000000000d028068        0x0 ../../spresense-exported-sdk/nuttx/libs/libnuttx.a(c-sem_init.o)
 .data          0x000000000d028068        0x0 ../../spresense-exported-sdk/nuttx/libs/libnuttx.a(mm-umm_initialize.o)
 .data          0x000000000d028068        0x0 ../../spresense-exported-sdk/nuttx/libs/libnuttx.a(arch-cxd56_allocateheap.o)
 .data          0x000000000d028068        0x0 ../../spresense-exported-sdk/nuttx/libs/libnuttx.a(arch-cxd56_clock.o)
 .data.g_clockexc
                0x000000000d028068        0x2 ../../spresense-exported-sdk/nuttx/libs/libnuttx.a(arch-cxd56_clock.o)
 .data          0x000000000d02806a        0x0 ../../spresense-exported-sdk/nuttx/libs/libnuttx.a(arch-cxd56_delay.o)
 .data          0x000000000d02806a        0x0 ../../spresense-exported-sdk/nuttx/libs/libnuttx.a(arch-cxd56_idle.o)
 .data          0x000000000d02806a        0x0 ../../spresense-exported-sdk/nuttx/libs/libnuttx.a(arch-cxd56_pinconfig.o)
 .data          0x000000000d02806a        0x0 ../../spresense-exported-sdk/nuttx/libs/libnuttx.a(arch-cxd56_powermgr.o)
 *fill*         0x000000000d02806a        0x2 
 .data.g_wlock  0x000000000d02806c        0xc ../../spresense-exported-sdk/nuttx/libs/libnuttx.a(arch-cxd56_powermgr.o)
 .data          0x000000000d028078        0x0 ../../spresense-exported-sdk/nuttx/libs/libnuttx.a(arch-cxd56_serial.o)
 .data.g_uart1port
                0x000000000d028078       0x3c ../../spresense-exported-sdk/nuttx/libs/libnuttx.a(arch-cxd56_serial.o)
 .data.g_uart1priv
                0x000000000d0280b4       0x1c ../../spresense-exported-sdk/nuttx/libs/libnuttx.a(arch-cxd56_serial.o)
 .data.g_uart2port
                0x000000000d0280d0       0x3c ../../spresense-exported-sdk/nuttx/libs/libnuttx.a(arch-cxd56_serial.o)
 .data.g_uart2priv
                0x000000000d02810c       0x1c ../../spresense-exported-sdk/nuttx/libs/libnuttx.a(arch-cxd56_serial.o)
 .data          0x000000000d028128        0x0 ../../spresense-exported-sdk/nuttx/libs/libnuttx.a(arch-up_exception.o)
 .data          0x000000000d028128        0x0 ../../spresense-exported-sdk/nuttx/libs/libnuttx.a(arch-up_initialize.o)
 .data          0x000000000d028128        0x0 ../../spresense-exported-sdk/nuttx/libs/libnuttx.a(arch-up_initialstate.o)
 .data          0x000000000d028128        0x0 ../../spresense-exported-sdk/nuttx/libs/libnuttx.a(arch-up_interruptcontext.o)
 .data          0x000000000d028128        0x0 ../../spresense-exported-sdk/nuttx/libs/libnuttx.a(arch-up_modifyreg32.o)
 .data          0x000000000d028128        0x0 ../../spresense-exported-sdk/nuttx/libs/libnuttx.a(net-net_initialize.o)
 .data          0x000000000d028128        0x0 ../../spresense-exported-sdk/nuttx/libs/libnuttx.a(net-net_lock.o)
 .data.g_holder
                0x000000000d028128        0x2 ../../spresense-exported-sdk/nuttx/libs/libnuttx.a(net-net_lock.o)
 .data          0x000000000d02812a        0x0 ../../spresense-exported-sdk/nuttx/libs/libnuttx.a(net-usrsock_conn.o)
 .data          0x000000000d02812a        0x0 ../../spresense-exported-sdk/nuttx/libs/libnuttx.a(net-usrsock_dev.o)
 .data          0x000000000d02812a        0x0 ../../spresense-exported-sdk/nuttx/libs/libnuttx.a(net-usrsock_event.o)
 .data          0x000000000d02812a        0x0 ../../spresense-exported-sdk/nuttx/libs/libnuttx.a(fs-fs_initialize.o)
 .data          0x000000000d02812a        0x0 ../../spresense-exported-sdk/nuttx/libs/libnuttx.a(fs-fs_inode.o)
 .data          0x000000000d02812a        0x0 ../../spresense-exported-sdk/nuttx/libs/libnuttx.a(fs-fs_registerdriver.o)
 .data          0x000000000d02812a        0x0 ../../spresense-exported-sdk/nuttx/libs/libnuttx.a(fs-mq_open.o)
 .data          0x000000000d02812a        0x0 ../../spresense-exported-sdk/nuttx/libs/libnuttx.a(binfmt-binfmt_initialize.o)
 .data          0x000000000d02812a        0x0 ../../spresense-exported-sdk/nuttx/libs/libnuttx.a(sched-clock_gettime.o)
 .data          0x000000000d02812a        0x0 ../../spresense-exported-sdk/nuttx/libs/libnuttx.a(sched-clock_initialize.o)
 .data          0x000000000d02812a        0x0 ../../spresense-exported-sdk/nuttx/libs/libnuttx.a(sched-clock_systimespec.o)
 .data          0x000000000d02812a        0x0 ../../spresense-exported-sdk/nuttx/libs/libnuttx.a(sched-clock_ticks2time.o)
 .data          0x000000000d02812a        0x0 ../../spresense-exported-sdk/nuttx/libs/libnuttx.a(sched-errno_getptr.o)
 .data          0x000000000d02812a        0x0 ../../spresense-exported-sdk/nuttx/libs/libnuttx.a(sched-group_create.o)
 .data          0x000000000d02812a        0x0 ../../spresense-exported-sdk/nuttx/libs/libnuttx.a(sched-group_find.o)
 .data          0x000000000d02812a        0x0 ../../spresense-exported-sdk/nuttx/libs/libnuttx.a(sched-group_setupidlefiles.o)
 .data          0x000000000d02812a        0x0 ../../spresense-exported-sdk/nuttx/libs/libnuttx.a(sched-group_setupstreams.o)
 .data          0x000000000d02812a        0x0 ../../spresense-exported-sdk/nuttx/libs/libnuttx.a(sched-irq_attach.o)
 .data          0x000000000d02812a        0x0 ../../spresense-exported-sdk/nuttx/libs/libnuttx.a(sched-irq_initialize.o)
 .data          0x000000000d02812a        0x0 ../../spresense-exported-sdk/nuttx/libs/libnuttx.a(sched-irq_unexpectedisr.o)
 .data          0x000000000d02812a        0x0 ../../spresense-exported-sdk/nuttx/libs/libnuttx.a(sched-mq_descreate.o)
 .data          0x000000000d02812a        0x0 ../../spresense-exported-sdk/nuttx/libs/libnuttx.a(sched-mq_initialize.o)
 .data          0x000000000d02812a        0x0 ../../spresense-exported-sdk/nuttx/libs/libnuttx.a(sched-mq_msgqalloc.o)
 .data          0x000000000d02812a        0x0 ../../spresense-exported-sdk/nuttx/libs/libnuttx.a(sched-mq_msgqfree.o)
 .data          0x000000000d02812a        0x0 ../../spresense-exported-sdk/nuttx/libs/libnuttx.a(sched-mq_receive.o)
 .data          0x000000000d02812a        0x0 ../../spresense-exported-sdk/nuttx/libs/libnuttx.a(sched-mq_send.o)
 .data          0x000000000d02812a        0x0 ../../spresense-exported-sdk/nuttx/libs/libnuttx.a(sched-mq_sndinternal.o)
 .data          0x000000000d02812a        0x0 ../../spresense-exported-sdk/nuttx/libs/libnuttx.a(sched-nx_bringup.o)
 .data          0x000000000d02812a        0x0 ../../spresense-exported-sdk/nuttx/libs/libnuttx.a(sched-sched_free.o)
 .data          0x000000000d02812a        0x0 ../../spresense-exported-sdk/nuttx/libs/libnuttx.a(sched-sched_lock.o)
 .data          0x000000000d02812a        0x0 ../../spresense-exported-sdk/nuttx/libs/libnuttx.a(sched-sched_self.o)
 .data          0x000000000d02812a        0x0 ../../spresense-exported-sdk/nuttx/libs/libnuttx.a(sched-sched_unlock.o)
 .data          0x000000000d02812a        0x0 ../../spresense-exported-sdk/nuttx/libs/libnuttx.a(sched-sem_destroy.o)
 .data          0x000000000d02812a        0x0 ../../spresense-exported-sdk/nuttx/libs/libnuttx.a(sched-sem_post.o)
 .data          0x000000000d02812a        0x0 ../../spresense-exported-sdk/nuttx/libs/libnuttx.a(sched-sem_timedwait.o)
 .data          0x000000000d02812a        0x0 ../../spresense-exported-sdk/nuttx/libs/libnuttx.a(sched-sem_timeout.o)
 .data          0x000000000d02812a        0x0 ../../spresense-exported-sdk/nuttx/libs/libnuttx.a(sched-sem_trywait.o)
 .data          0x000000000d02812a        0x0 ../../spresense-exported-sdk/nuttx/libs/libnuttx.a(sched-sem_waitirq.o)
 .data          0x000000000d02812a        0x0 ../../spresense-exported-sdk/nuttx/libs/libnuttx.a(sched-sem_wait.o)
 .data          0x000000000d02812a        0x0 ../../spresense-exported-sdk/nuttx/libs/libnuttx.a(sched-sig_notification.o)
 .data          0x000000000d02812a        0x0 ../../spresense-exported-sdk/nuttx/libs/libnuttx.a(sched-task_create.o)
 .data          0x000000000d02812a        0x0 ../../spresense-exported-sdk/nuttx/libs/libnuttx.a(sched-task_getpid.o)
 .data          0x000000000d02812a        0x0 ../../spresense-exported-sdk/nuttx/libs/libnuttx.a(sched-task_setup.o)
 .data          0x000000000d02812a        0x0 ../../spresense-exported-sdk/nuttx/libs/libnuttx.a(sched-task_start.o)
 .data          0x000000000d02812a        0x0 ../../spresense-exported-sdk/nuttx/libs/libnuttx.a(sched-wd_cancel.o)
 .data          0x000000000d02812a        0x0 ../../spresense-exported-sdk/nuttx/libs/libnuttx.a(sched-wd_create.o)
 .data          0x000000000d02812a        0x0 ../../spresense-exported-sdk/nuttx/libs/libnuttx.a(sched-wd_delete.o)
 .data          0x000000000d02812a        0x0 ../../spresense-exported-sdk/nuttx/libs/libnuttx.a(sched-wd_initialize.o)
 .data          0x000000000d02812a        0x0 ../../spresense-exported-sdk/nuttx/libs/libnuttx.a(sched-wd_start.o)
 .data          0x000000000d02812a        0x0 ../../spresense-exported-sdk/nuttx/libs/libnuttx.a(drivers-dev_null.o)
 .data          0x000000000d02812a        0x0 ../../spresense-exported-sdk/nuttx/libs/libnuttx.a(drivers-serial_io.o)
 .data          0x000000000d02812a        0x0 ../../spresense-exported-sdk/nuttx/libs/libnuttx.a(drivers-serial.o)
 .data          0x000000000d02812a        0x0 ../../spresense-exported-sdk/nuttx/libs/libnuttx.a(drivers-syslog_consolechannel.o)
 .data          0x000000000d02812a        0x0 ../../spresense-exported-sdk/nuttx/libs/libnuttx.a(drivers-syslog_device.o)
 .data          0x000000000d02812a        0x0 ../../spresense-exported-sdk/nuttx/libs/libnuttx.a(c-dq_addlast.o)
 .data          0x000000000d02812a        0x0 ../../spresense-exported-sdk/nuttx/libs/libnuttx.a(c-dq_remfirst.o)
 .data          0x000000000d02812a        0x0 ../../spresense-exported-sdk/nuttx/libs/libnuttx.a(c-dq_rem.o)
 .data          0x000000000d02812a        0x0 ../../spresense-exported-sdk/nuttx/libs/libnuttx.a(c-lib_cfgetspeed.o)
 .data          0x000000000d02812a        0x0 ../../spresense-exported-sdk/nuttx/libs/libnuttx.a(c-lib_cfsetspeed.o)
 .data          0x000000000d02812a        0x0 ../../spresense-exported-sdk/nuttx/libs/libnuttx.a(c-lib_dtoa_engine.o)
 .data          0x000000000d02812a        0x0 ../../spresense-exported-sdk/nuttx/libs/libnuttx.a(c-lib_fputc.o)
 .data          0x000000000d02812a        0x0 ../../spresense-exported-sdk/nuttx/libs/libnuttx.a(c-lib_libfflush.o)
 .data          0x000000000d02812a        0x0 ../../spresense-exported-sdk/nuttx/libs/libnuttx.a(c-lib_libfwrite.o)
 .data          0x000000000d02812a        0x0 ../../spresense-exported-sdk/nuttx/libs/libnuttx.a(c-lib_libnoflush.o)
 .data          0x000000000d02812a        0x0 ../../spresense-exported-sdk/nuttx/libs/libnuttx.a(c-lib_memcpy.o)
 .data          0x000000000d02812a        0x0 ../../spresense-exported-sdk/nuttx/libs/libnuttx.a(c-lib_memmove.o)
 .data          0x000000000d02812a        0x0 ../../spresense-exported-sdk/nuttx/libs/libnuttx.a(c-lib_rdflush.o)
 .data          0x000000000d02812a        0x0 ../../spresense-exported-sdk/nuttx/libs/libnuttx.a(c-lib_snprintf.o)
 .data          0x000000000d02812a        0x0 ../../spresense-exported-sdk/nuttx/libs/libnuttx.a(c-lib_strcpy.o)
 .data          0x000000000d02812a        0x0 ../../spresense-exported-sdk/nuttx/libs/libnuttx.a(c-lib_strdup.o)
 .data          0x000000000d02812a        0x0 ../../spresense-exported-sdk/nuttx/libs/libnuttx.a(c-lib_stream.o)
 .data          0x000000000d02812a        0x0 ../../spresense-exported-sdk/nuttx/libs/libnuttx.a(c-lib_strlen.o)
 .data          0x000000000d02812a        0x0 ../../spresense-exported-sdk/nuttx/libs/libnuttx.a(c-sem_getvalue.o)
 .data          0x000000000d02812a        0x0 ../../spresense-exported-sdk/nuttx/libs/libnuttx.a(c-sem_setprotocol.o)
 .data          0x000000000d02812a        0x0 ../../spresense-exported-sdk/nuttx/libs/libnuttx.a(c-sq_addafter.o)
 .data          0x000000000d02812a        0x0 ../../spresense-exported-sdk/nuttx/libs/libnuttx.a(c-sq_addfirst.o)
 .data          0x000000000d02812a        0x0 ../../spresense-exported-sdk/nuttx/libs/libnuttx.a(c-sq_addlast.o)
 .data          0x000000000d02812a        0x0 ../../spresense-exported-sdk/nuttx/libs/libnuttx.a(c-sq_count.o)
 .data          0x000000000d02812a        0x0 ../../spresense-exported-sdk/nuttx/libs/libnuttx.a(c-sq_remafter.o)
 .data          0x000000000d02812a        0x0 ../../spresense-exported-sdk/nuttx/libs/libnuttx.a(c-sq_remfirst.o)
 .data          0x000000000d02812a        0x0 ../../spresense-exported-sdk/nuttx/libs/libnuttx.a(c-sq_rem.o)
 .data          0x000000000d02812a        0x0 ../../spresense-exported-sdk/nuttx/libs/libnuttx.a(mm-mm_initialize.o)
 .data          0x000000000d02812a        0x0 ../../spresense-exported-sdk/nuttx/libs/libnuttx.a(mm-mm_sem.o)
 .data          0x000000000d02812a        0x0 ../../spresense-exported-sdk/nuttx/libs/libnuttx.a(mm-umm_free.o)
 .data          0x000000000d02812a        0x0 ../../spresense-exported-sdk/nuttx/libs/libnuttx.a(mm-umm_globals.o)
 .data          0x000000000d02812a        0x0 ../../spresense-exported-sdk/nuttx/libs/libnuttx.a(mm-umm_malloc.o)
 .data          0x000000000d02812a        0x0 ../../spresense-exported-sdk/nuttx/libs/libnuttx.a(mm-umm_sem.o)
 .data          0x000000000d02812a        0x0 ../../spresense-exported-sdk/nuttx/libs/libnuttx.a(mm-umm_zalloc.o)
 .data          0x000000000d02812a        0x0 ../../spresense-exported-sdk/nuttx/libs/libnuttx.a(arch-cxd56_farapistub.o)
 .data          0x000000000d02812a        0x0 ../../spresense-exported-sdk/nuttx/libs/libnuttx.a(arch-cxd56_icc.o)
 .data          0x000000000d02812a        0x0 ../../spresense-exported-sdk/nuttx/libs/libnuttx.a(arch-cxd56_irq.o)
 .data          0x000000000d02812a        0x0 ../../spresense-exported-sdk/nuttx/libs/libnuttx.a(arch-cxd56_pmic.o)
 .data          0x000000000d02812a        0x0 ../../spresense-exported-sdk/nuttx/libs/libnuttx.a(arch-cxd56_rtc.o)
 .data          0x000000000d02812a        0x0 ../../spresense-exported-sdk/nuttx/libs/libnuttx.a(arch-cxd56_timerisr.o)
 .data          0x000000000d02812a        0x0 ../../spresense-exported-sdk/nuttx/libs/libnuttx.a(arch-cxd56_usbdev.o)
 *fill*         0x000000000d02812a        0x2 
 .data.g_hv_lock
                0x000000000d02812c       0x10 ../../spresense-exported-sdk/nuttx/libs/libnuttx.a(arch-cxd56_usbdev.o)
 .data.g_wake_lock
                0x000000000d02813c        0xc ../../spresense-exported-sdk/nuttx/libs/libnuttx.a(arch-cxd56_usbdev.o)
 .data          0x000000000d028148        0x0 ../../spresense-exported-sdk/nuttx/libs/libnuttx.a(arch-up_assert.o)
 .data          0x000000000d028148        0x0 ../../spresense-exported-sdk/nuttx/libs/libnuttx.a(arch-up_blocktask.o)
 .data          0x000000000d028148        0x0 ../../spresense-exported-sdk/nuttx/libs/libnuttx.a(arch-up_checkstack.o)
 .data          0x000000000d028148        0x0 ../../spresense-exported-sdk/nuttx/libs/libnuttx.a(arch-up_copyfullstate.o)
 .data          0x000000000d028148        0x0 ../../spresense-exported-sdk/nuttx/libs/libnuttx.a(arch-up_createstack.o)
 .data          0x000000000d028148        0x0 ../../spresense-exported-sdk/nuttx/libs/libnuttx.a(arch-up_doirq.o)
 .data          0x000000000d028148        0x0 ../../spresense-exported-sdk/nuttx/libs/libnuttx.a(arch-up_hardfault.o)
 .data          0x000000000d028148        0x0 ../../spresense-exported-sdk/nuttx/libs/libnuttx.a(arch-up_releasepending.o)
 .data          0x000000000d028148        0x0 ../../spresense-exported-sdk/nuttx/libs/libnuttx.a(arch-up_releasestack.o)
 .data          0x000000000d028148        0x0 ../../spresense-exported-sdk/nuttx/libs/libnuttx.a(arch-up_saveusercontext.o)
 .data          0x000000000d028148        0x0 ../../spresense-exported-sdk/nuttx/libs/libnuttx.a(arch-up_stackframe.o)
 .data          0x000000000d028148        0x0 ../../spresense-exported-sdk/nuttx/libs/libnuttx.a(arch-up_svcall.o)
 .data          0x000000000d028148        0x0 ../../spresense-exported-sdk/nuttx/libs/libnuttx.a(arch-up_switchcontext.o)
 .data          0x000000000d028148        0x0 ../../spresense-exported-sdk/nuttx/libs/libnuttx.a(arch-up_unblocktask.o)
 .data          0x000000000d028148        0x0 ../../spresense-exported-sdk/nuttx/libs/libnuttx.a(net-devif_callback.o)
 .data          0x000000000d028148        0x0 ../../spresense-exported-sdk/nuttx/libs/libnuttx.a(net-devif_initialize.o)
 .data          0x000000000d028148        0x0 ../../spresense-exported-sdk/nuttx/libs/libnuttx.a(net-netdev_verify.o)
 .data          0x000000000d028148        0x0 ../../spresense-exported-sdk/nuttx/libs/libnuttx.a(net-net_sockets.o)
 .data          0x000000000d028148        0x0 ../../spresense-exported-sdk/nuttx/libs/libnuttx.a(fs-fs_close.o)
 .data          0x000000000d028148        0x0 ../../spresense-exported-sdk/nuttx/libs/libnuttx.a(fs-fs_dupfd2.o)
 .data          0x000000000d028148        0x0 ../../spresense-exported-sdk/nuttx/libs/libnuttx.a(fs-fs_fdopen.o)
 .data          0x000000000d028148        0x0 ../../spresense-exported-sdk/nuttx/libs/libnuttx.a(fs-fs_fileopen.o)
 .data          0x000000000d028148        0x0 ../../spresense-exported-sdk/nuttx/libs/libnuttx.a(fs-fs_files.o)
 .data          0x000000000d028148        0x0 ../../spresense-exported-sdk/nuttx/libs/libnuttx.a(fs-fs_getfilep.o)
 .data          0x000000000d028148        0x0 ../../spresense-exported-sdk/nuttx/libs/libnuttx.a(fs-fs_inodeaddref.o)
 .data          0x000000000d028148        0x0 ../../spresense-exported-sdk/nuttx/libs/libnuttx.a(fs-fs_inodefind.o)
 .data          0x000000000d028148        0x0 ../../spresense-exported-sdk/nuttx/libs/libnuttx.a(fs-fs_inoderelease.o)
 .data          0x000000000d028148        0x0 ../../spresense-exported-sdk/nuttx/libs/libnuttx.a(fs-fs_inodereserve.o)
 .data          0x000000000d028148        0x0 ../../spresense-exported-sdk/nuttx/libs/libnuttx.a(fs-fs_inodesearch.o)
 .data          0x000000000d028148        0x0 ../../spresense-exported-sdk/nuttx/libs/libnuttx.a(fs-fs_open.o)
 .data          0x000000000d028148        0x0 ../../spresense-exported-sdk/nuttx/libs/libnuttx.a(fs-fs_procfs.o)
 .data          0x000000000d028148        0x0 ../../spresense-exported-sdk/nuttx/libs/libnuttx.a(fs-fs_procfsproc.o)
 .data          0x000000000d028148        0x0 ../../spresense-exported-sdk/nuttx/libs/libnuttx.a(fs-fs_procfsuptime.o)
 .data          0x000000000d028148        0x0 ../../spresense-exported-sdk/nuttx/libs/libnuttx.a(fs-fs_procfsutil.o)
 .data          0x000000000d028148        0x0 ../../spresense-exported-sdk/nuttx/libs/libnuttx.a(fs-fs_write.o)
 .data          0x000000000d028148        0x0 ../../spresense-exported-sdk/nuttx/libs/libnuttx.a(fs-smartfs_procfs.o)
 .data          0x000000000d028148        0x0 ../../spresense-exported-sdk/nuttx/libs/libnuttx.a(fs-smartfs_utils.o)
 .data          0x000000000d028148        0x0 ../../spresense-exported-sdk/nuttx/libs/libnuttx.a(board-cxd56_crashdump.o)
 .data          0x000000000d028148        0x0 ../../spresense-exported-sdk/nuttx/libs/libnuttx.a(sched-clock_abstime2ticks.o)
 .data          0x000000000d028148        0x0 ../../spresense-exported-sdk/nuttx/libs/libnuttx.a(sched-clock_time2ticks.o)
 .data          0x000000000d028148        0x0 ../../spresense-exported-sdk/nuttx/libs/libnuttx.a(sched-env_dup.o)
 .data          0x000000000d028148        0x0 ../../spresense-exported-sdk/nuttx/libs/libnuttx.a(sched-exit.o)
 .data          0x000000000d028148        0x0 ../../spresense-exported-sdk/nuttx/libs/libnuttx.a(sched-group_childstatus.o)
 .data          0x000000000d028148        0x0 ../../spresense-exported-sdk/nuttx/libs/libnuttx.a(sched-group_setuptaskfiles.o)
 .data          0x000000000d028148        0x0 ../../spresense-exported-sdk/nuttx/libs/libnuttx.a(sched-irq_dispatch.o)
 .data          0x000000000d028148        0x0 ../../spresense-exported-sdk/nuttx/libs/libnuttx.a(sched-kwork_hpthread.o)
 .data          0x000000000d028148        0x0 ../../spresense-exported-sdk/nuttx/libs/libnuttx.a(sched-kwork_lpthread.o)
 .data          0x000000000d028148        0x0 ../../spresense-exported-sdk/nuttx/libs/libnuttx.a(sched-kwork_process.o)
 .data          0x000000000d028148        0x0 ../../spresense-exported-sdk/nuttx/libs/libnuttx.a(sched-kwork_signal.o)
 .data          0x000000000d028148        0x0 ../../spresense-exported-sdk/nuttx/libs/libnuttx.a(sched-mq_msgfree.o)
 .data          0x000000000d028148        0x0 ../../spresense-exported-sdk/nuttx/libs/libnuttx.a(sched-mq_rcvinternal.o)
 .data          0x000000000d028148        0x0 ../../spresense-exported-sdk/nuttx/libs/libnuttx.a(sched-sched_addblocked.o)
 .data          0x000000000d028148        0x0 ../../spresense-exported-sdk/nuttx/libs/libnuttx.a(sched-sched_addprioritized.o)
 .data          0x000000000d028148        0x0 ../../spresense-exported-sdk/nuttx/libs/libnuttx.a(sched-sched_addreadytorun.o)
 .data          0x000000000d028148        0x0 ../../spresense-exported-sdk/nuttx/libs/libnuttx.a(sched-sched_foreach.o)
 .data          0x000000000d028148        0x0 ../../spresense-exported-sdk/nuttx/libs/libnuttx.a(sched-sched_garbage.o)
 .data          0x000000000d028148        0x0 ../../spresense-exported-sdk/nuttx/libs/libnuttx.a(sched-sched_getfiles.o)
 .data          0x000000000d028148        0x0 ../../spresense-exported-sdk/nuttx/libs/libnuttx.a(sched-sched_getsockets.o)
 .data          0x000000000d028148        0x0 ../../spresense-exported-sdk/nuttx/libs/libnuttx.a(sched-sched_gettcb.o)
 .data          0x000000000d028148        0x0 ../../spresense-exported-sdk/nuttx/libs/libnuttx.a(sched-sched_idletask.o)
 .data          0x000000000d028148        0x0 ../../spresense-exported-sdk/nuttx/libs/libnuttx.a(sched-sched_mergepending.o)
 .data          0x000000000d028148        0x0 ../../spresense-exported-sdk/nuttx/libs/libnuttx.a(sched-sched_processtimer.o)
 .data          0x000000000d028148        0x0 ../../spresense-exported-sdk/nuttx/libs/libnuttx.a(sched-sched_releasetcb.o)
 .data          0x000000000d028148        0x0 ../../spresense-exported-sdk/nuttx/libs/libnuttx.a(sched-sched_removeblocked.o)
 .data          0x000000000d028148        0x0 ../../spresense-exported-sdk/nuttx/libs/libnuttx.a(sched-sched_removereadytorun.o)
 .data          0x000000000d028148        0x0 ../../spresense-exported-sdk/nuttx/libs/libnuttx.a(sched-sched_resumescheduler.o)
 .data          0x000000000d028148        0x0 ../../spresense-exported-sdk/nuttx/libs/libnuttx.a(sched-sched_roundrobin.o)
 .data          0x000000000d028148        0x0 ../../spresense-exported-sdk/nuttx/libs/libnuttx.a(sched-sem_reset.o)
 .data          0x000000000d028148        0x0 ../../spresense-exported-sdk/nuttx/libs/libnuttx.a(sched-sig_dispatch.o)
 .data          0x000000000d028148        0x0 ../../spresense-exported-sdk/nuttx/libs/libnuttx.a(sched-sig_findaction.o)
 .data          0x000000000d028148        0x0 ../../spresense-exported-sdk/nuttx/libs/libnuttx.a(sched-sig_initialize.o)
 .data          0x000000000d028148        0x0 ../../spresense-exported-sdk/nuttx/libs/libnuttx.a(sched-sig_kill.o)
 .data          0x000000000d028148        0x0 ../../spresense-exported-sdk/nuttx/libs/libnuttx.a(sched-sig_procmask.o)
 .data          0x000000000d028148        0x0 ../../spresense-exported-sdk/nuttx/libs/libnuttx.a(sched-sig_queue.o)
 .data          0x000000000d028148        0x0 ../../spresense-exported-sdk/nuttx/libs/libnuttx.a(sched-sig_timedwait.o)
 .data          0x000000000d028148        0x0 ../../spresense-exported-sdk/nuttx/libs/libnuttx.a(sched-sig_unmaskpendingsignal.o)
 .data          0x000000000d028148        0x0 ../../spresense-exported-sdk/nuttx/libs/libnuttx.a(sched-sig_usleep.o)
 .data          0x000000000d028148        0x0 ../../spresense-exported-sdk/nuttx/libs/libnuttx.a(sched-task_activate.o)
 .data          0x000000000d028148        0x0 ../../spresense-exported-sdk/nuttx/libs/libnuttx.a(sched-task_exithook.o)
 .data          0x000000000d028148        0x0 ../../spresense-exported-sdk/nuttx/libs/libnuttx.a(sched-task_recover.o)
 .data          0x000000000d028148        0x0 ../../spresense-exported-sdk/nuttx/libs/libnuttx.a(sched-wd_recover.o)
 .data          0x000000000d028148        0x0 ../../spresense-exported-sdk/nuttx/libs/libnuttx.a(drivers-syslog_channel.o)
 .data.g_syslog_channel
                0x000000000d028148        0x4 ../../spresense-exported-sdk/nuttx/libs/libnuttx.a(drivers-syslog_channel.o)
                0x000000000d028148                g_syslog_channel
 .data          0x000000000d02814c        0x0 ../../spresense-exported-sdk/nuttx/libs/libnuttx.a(drivers-syslog_flush.o)
 .data          0x000000000d02814c        0x0 ../../spresense-exported-sdk/nuttx/libs/libnuttx.a(c-lib_dtoa_data.o)
 .data          0x000000000d02814c        0x0 ../../spresense-exported-sdk/nuttx/libs/libnuttx.a(c-lib_fseek.o)
 .data          0x000000000d02814c        0x0 ../../spresense-exported-sdk/nuttx/libs/libnuttx.a(c-lib_libflushall.o)
 .data          0x000000000d02814c        0x0 ../../spresense-exported-sdk/nuttx/libs/libnuttx.a(c-lib_match.o)
 .data          0x000000000d02814c        0x0 ../../spresense-exported-sdk/nuttx/libs/libnuttx.a(c-lib_memoutstream.o)
 .data          0x000000000d02814c        0x0 ../../spresense-exported-sdk/nuttx/libs/libnuttx.a(c-lib_nulloutstream.o)
 .data          0x000000000d02814c        0x0 ../../spresense-exported-sdk/nuttx/libs/libnuttx.a(c-lib_strchr.o)
 .data          0x000000000d02814c        0x0 ../../spresense-exported-sdk/nuttx/libs/libnuttx.a(c-lib_strcmp.o)
 .data          0x000000000d02814c        0x0 ../../spresense-exported-sdk/nuttx/libs/libnuttx.a(c-lib_strcspn.o)
 .data          0x000000000d02814c        0x0 ../../spresense-exported-sdk/nuttx/libs/libnuttx.a(c-lib_streamsem.o)
 .data          0x000000000d02814c        0x0 ../../spresense-exported-sdk/nuttx/libs/libnuttx.a(c-lib_strncmp.o)
 .data          0x000000000d02814c        0x0 ../../spresense-exported-sdk/nuttx/libs/libnuttx.a(c-lib_strtol.o)
 .data          0x000000000d02814c        0x0 ../../spresense-exported-sdk/nuttx/libs/libnuttx.a(c-lib_strtoul.o)
 .data          0x000000000d02814c        0x0 ../../spresense-exported-sdk/nuttx/libs/libnuttx.a(c-lib_syslog.o)
 .data          0x000000000d02814c        0x0 ../../spresense-exported-sdk/nuttx/libs/libnuttx.a(c-lib_time.o)
 .data          0x000000000d02814c        0x0 ../../spresense-exported-sdk/nuttx/libs/libnuttx.a(c-lib_wrflush.o)
 .data          0x000000000d02814c        0x0 ../../spresense-exported-sdk/nuttx/libs/libnuttx.a(c-sig_addset.o)
 .data          0x000000000d02814c        0x0 ../../spresense-exported-sdk/nuttx/libs/libnuttx.a(c-sig_delset.o)
 .data          0x000000000d02814c        0x0 ../../spresense-exported-sdk/nuttx/libs/libnuttx.a(c-sig_emptyset.o)
 .data          0x000000000d02814c        0x0 ../../spresense-exported-sdk/nuttx/libs/libnuttx.a(c-sig_ismember.o)
 .data          0x000000000d02814c        0x0 ../../spresense-exported-sdk/nuttx/libs/libnuttx.a(mm-mm_addfreechunk.o)
 .data          0x000000000d02814c        0x0 ../../spresense-exported-sdk/nuttx/libs/libnuttx.a(mm-mm_free.o)
 .data          0x000000000d02814c        0x0 ../../spresense-exported-sdk/nuttx/libs/libnuttx.a(mm-mm_malloc.o)
 .data          0x000000000d02814c        0x0 ../../spresense-exported-sdk/nuttx/libs/libnuttx.a(mm-mm_size2ndx.o)
 .data          0x000000000d02814c        0x0 ../../spresense-exported-sdk/nuttx/libs/libnuttx.a(mm-mm_zalloc.o)
 .data          0x000000000d02814c        0x0 ../../spresense-exported-sdk/nuttx/libs/libnuttx.a(mm-umm_heapmember.o)
 .data          0x000000000d02814c        0x0 ../../spresense-exported-sdk/nuttx/libs/libnuttx.a(mm-umm_realloc.o)
 .data          0x000000000d02814c        0x0 ../../spresense-exported-sdk/nuttx/libs/libnuttx.a(arch-cxd56_backuplog.o)
 .data          0x000000000d02814c        0x0 ../../spresense-exported-sdk/nuttx/libs/libnuttx.a(arch-cxd56_cpufifo.o)
 .data          0x000000000d02814c        0x0 ../../spresense-exported-sdk/nuttx/libs/libnuttx.a(arch-cxd56_farapi.o)
 .data.g_wlock  0x000000000d02814c        0xc ../../spresense-exported-sdk/nuttx/libs/libnuttx.a(arch-cxd56_farapi.o)
 .data          0x000000000d028158        0x0 ../../spresense-exported-sdk/nuttx/libs/libnuttx.a(arch-up_exit.o)
 .data          0x000000000d028158        0x0 ../../spresense-exported-sdk/nuttx/libs/libnuttx.a(arch-up_fullcontextrestore.o)
 .data          0x000000000d028158        0x0 ../../spresense-exported-sdk/nuttx/libs/libnuttx.a(arch-up_reprioritizertr.o)
 .data          0x000000000d028158        0x0 ../../spresense-exported-sdk/nuttx/libs/libnuttx.a(arch-up_schedulesigaction.o)
 .data          0x000000000d028158        0x0 ../../spresense-exported-sdk/nuttx/libs/libnuttx.a(arch-up_sigdeliver.o)
 .data          0x000000000d028158        0x0 ../../spresense-exported-sdk/nuttx/libs/libnuttx.a(net-net_checksd.o)
 .data          0x000000000d028158        0x0 ../../spresense-exported-sdk/nuttx/libs/libnuttx.a(net-net_close.o)
 .data          0x000000000d028158        0x0 ../../spresense-exported-sdk/nuttx/libs/libnuttx.a(net-netdev_register.o)
 .data          0x000000000d028158        0x0 ../../spresense-exported-sdk/nuttx/libs/libnuttx.a(net-net_procfs.o)
 .data          0x000000000d028158        0x0 ../../spresense-exported-sdk/nuttx/libs/libnuttx.a(net-send.o)
 .data          0x000000000d028158        0x0 ../../spresense-exported-sdk/nuttx/libs/libnuttx.a(fs-fs_blockproxy.o)
 .data.g_devno_sem
                0x000000000d028158        0x2 ../../spresense-exported-sdk/nuttx/libs/libnuttx.a(fs-fs_blockproxy.o)
 .data          0x000000000d02815a        0x0 ../../spresense-exported-sdk/nuttx/libs/libnuttx.a(fs-fs_filedetach.o)
 .data          0x000000000d02815a        0x0 ../../spresense-exported-sdk/nuttx/libs/libnuttx.a(fs-fs_inodefree.o)
 .data          0x000000000d02815a        0x0 ../../spresense-exported-sdk/nuttx/libs/libnuttx.a(fs-fs_lseek.o)
 .data          0x000000000d02815a        0x0 ../../spresense-exported-sdk/nuttx/libs/libnuttx.a(fs-fs_procfsmeminfo.o)
 .data          0x000000000d02815a        0x0 ../../spresense-exported-sdk/nuttx/libs/libnuttx.a(fs-fs_procfs_mount.o)
 .data          0x000000000d02815a        0x0 ../../spresense-exported-sdk/nuttx/libs/libnuttx.a(fs-fs_stat.o)
 .data          0x000000000d02815a        0x0 ../../spresense-exported-sdk/nuttx/libs/libnuttx.a(fs-fs_unlink.o)
 .data          0x000000000d02815a        0x0 ../../spresense-exported-sdk/nuttx/libs/libnuttx.a(sched-group_leave.o)
 .data          0x000000000d02815a        0x0 ../../spresense-exported-sdk/nuttx/libs/libnuttx.a(sched-group_signal.o)
 .data          0x000000000d02815a        0x0 ../../spresense-exported-sdk/nuttx/libs/libnuttx.a(sched-mq_recover.o)
 .data          0x000000000d02815a        0x0 ../../spresense-exported-sdk/nuttx/libs/libnuttx.a(sched-mq_release.o)
 .data          0x000000000d02815a        0x0 ../../spresense-exported-sdk/nuttx/libs/libnuttx.a(sched-mq_waitirq.o)
 .data          0x000000000d02815a        0x0 ../../spresense-exported-sdk/nuttx/libs/libnuttx.a(sched-pthread_release.o)
 .data          0x000000000d02815a        0x0 ../../spresense-exported-sdk/nuttx/libs/libnuttx.a(sched-sem_recover.o)
 .data          0x000000000d02815a        0x0 ../../spresense-exported-sdk/nuttx/libs/libnuttx.a(sched-sig_allocpendingsigaction.o)
 .data          0x000000000d02815a        0x0 ../../spresense-exported-sdk/nuttx/libs/libnuttx.a(sched-sig_cleanup.o)
 .data          0x000000000d02815a        0x0 ../../spresense-exported-sdk/nuttx/libs/libnuttx.a(sched-sig_deliver.o)
 .data          0x000000000d02815a        0x0 ../../spresense-exported-sdk/nuttx/libs/libnuttx.a(sched-sig_lowest.o)
 .data          0x000000000d02815a        0x0 ../../spresense-exported-sdk/nuttx/libs/libnuttx.a(sched-sig_nanosleep.o)
 .data          0x000000000d02815a        0x0 ../../spresense-exported-sdk/nuttx/libs/libnuttx.a(sched-sig_pending.o)
 .data          0x000000000d02815a        0x0 ../../spresense-exported-sdk/nuttx/libs/libnuttx.a(sched-sig_releasependingsigaction.o)
 .data          0x000000000d02815a        0x0 ../../spresense-exported-sdk/nuttx/libs/libnuttx.a(sched-sig_releasependingsignal.o)
 .data          0x000000000d02815a        0x0 ../../spresense-exported-sdk/nuttx/libs/libnuttx.a(sched-sig_removependingsignal.o)
 .data          0x000000000d02815a        0x0 ../../spresense-exported-sdk/nuttx/libs/libnuttx.a(sched-task_exit.o)
 .data          0x000000000d02815a        0x0 ../../spresense-exported-sdk/nuttx/libs/libnuttx.a(sched-task_terminate.o)
 .data          0x000000000d02815a        0x0 ../../spresense-exported-sdk/nuttx/libs/libnuttx.a(drivers-bchdev_register.o)
 .data          0x000000000d02815a        0x0 ../../spresense-exported-sdk/nuttx/libs/libnuttx.a(drivers-bchlib_setup.o)
 .data          0x000000000d02815a        0x0 ../../spresense-exported-sdk/nuttx/libs/libnuttx.a(drivers-bchlib_teardown.o)
 .data          0x000000000d02815a        0x0 ../../spresense-exported-sdk/nuttx/libs/libnuttx.a(drivers-vsyslog.o)
 .data          0x000000000d02815a        0x0 ../../spresense-exported-sdk/nuttx/libs/libnuttx.a(c-lib_basename.o)
 .data          0x000000000d02815a        0x0 ../../spresense-exported-sdk/nuttx/libs/libnuttx.a(c-lib_checkbase.o)
 .data          0x000000000d02815a        0x0 ../../spresense-exported-sdk/nuttx/libs/libnuttx.a(c-lib_isbasedigit.o)
 .data          0x000000000d02815a        0x0 ../../spresense-exported-sdk/nuttx/libs/libnuttx.a(c-lib_setlogmask.o)
 .data.g_syslog_mask
                0x000000000d02815a        0x1 ../../spresense-exported-sdk/nuttx/libs/libnuttx.a(c-lib_setlogmask.o)
                0x000000000d02815a                g_syslog_mask
 .data          0x000000000d02815b        0x0 ../../spresense-exported-sdk/nuttx/libs/libnuttx.a(c-lib_skipspace.o)
 .data          0x000000000d02815b        0x0 ../../spresense-exported-sdk/nuttx/libs/libnuttx.a(c-lib_strrchr.o)
 .data          0x000000000d02815b        0x0 ../../spresense-exported-sdk/nuttx/libs/libnuttx.a(c-lib_vsnprintf.o)
 .data          0x000000000d02815b        0x0 ../../spresense-exported-sdk/nuttx/libs/libnuttx.a(mm-mm_heapmember.o)
 .data          0x000000000d02815b        0x0 ../../spresense-exported-sdk/nuttx/libs/libnuttx.a(mm-mm_realloc.o)
 .data          0x000000000d02815b        0x0 ../../spresense-exported-sdk/nuttx/libs/libnuttx.a(mm-mm_shrinkchunk.o)
 .data          0x000000000d02815b        0x0 ../../spresense-exported-sdk/nuttx/libs/libnuttx.a(mm-umm_mallinfo.o)
 .data          0x000000000d02815b        0x0 ../../spresense-exported-sdk/nuttx/libs/libnuttx.a(net-netdev_count.o)
 .data          0x000000000d02815b        0x0 ../../spresense-exported-sdk/nuttx/libs/libnuttx.a(net-netdev_findbyindex.o)
 .data          0x000000000d02815b        0x0 ../../spresense-exported-sdk/nuttx/libs/libnuttx.a(net-netdev_findbyname.o)
 .data          0x000000000d02815b        0x0 ../../spresense-exported-sdk/nuttx/libs/libnuttx.a(net-netdev_statistics.o)
 .data          0x000000000d02815b        0x0 ../../spresense-exported-sdk/nuttx/libs/libnuttx.a(fs-fs_closeblockdriver.o)
 .data          0x000000000d02815b        0x0 ../../spresense-exported-sdk/nuttx/libs/libnuttx.a(fs-fs_foreachmountpoint.o)
 .data          0x000000000d02815b        0x0 ../../spresense-exported-sdk/nuttx/libs/libnuttx.a(fs-fs_gettype.o)
 .data          0x000000000d02815b        0x0 ../../spresense-exported-sdk/nuttx/libs/libnuttx.a(fs-fs_inoderemove.o)
 .data          0x000000000d02815b        0x0 ../../spresense-exported-sdk/nuttx/libs/libnuttx.a(fs-fs_openblockdriver.o)
 .data          0x000000000d02815b        0x0 ../../spresense-exported-sdk/nuttx/libs/libnuttx.a(fs-mq_close.o)
 .data          0x000000000d02815b        0x0 ../../spresense-exported-sdk/nuttx/libs/libnuttx.a(sched-clock_timespec_subtract.o)
 .data          0x000000000d02815b        0x0 ../../spresense-exported-sdk/nuttx/libs/libnuttx.a(sched-env_release.o)
 .data          0x000000000d02815b        0x0 ../../spresense-exported-sdk/nuttx/libs/libnuttx.a(sched-group_foreachchild.o)
 .data          0x000000000d02815b        0x0 ../../spresense-exported-sdk/nuttx/libs/libnuttx.a(sched-mq_desclose.o)
 .data          0x000000000d02815b        0x0 ../../spresense-exported-sdk/nuttx/libs/libnuttx.a(sched-sig_action.o)
 .data          0x000000000d02815b        0x0 ../../spresense-exported-sdk/nuttx/libs/libnuttx.a(drivers-bchdev_driver.o)
 .data          0x000000000d02815b        0x0 ../../spresense-exported-sdk/nuttx/libs/libnuttx.a(drivers-bchlib_cache.o)
 .data          0x000000000d02815b        0x0 ../../spresense-exported-sdk/nuttx/libs/libnuttx.a(drivers-bchlib_read.o)
 .data          0x000000000d02815b        0x0 ../../spresense-exported-sdk/nuttx/libs/libnuttx.a(drivers-bchlib_sem.o)
 .data          0x000000000d02815b        0x0 ../../spresense-exported-sdk/nuttx/libs/libnuttx.a(drivers-bchlib_write.o)
 .data          0x000000000d02815b        0x0 ../../spresense-exported-sdk/nuttx/libs/libnuttx.a(drivers-syslog_emergstream.o)
 .data          0x000000000d02815b        0x0 ../../spresense-exported-sdk/nuttx/libs/libnuttx.a(drivers-syslog_force.o)
 .data          0x000000000d02815b        0x0 ../../spresense-exported-sdk/nuttx/libs/libnuttx.a(drivers-syslog_stream.o)
 .data          0x000000000d02815b        0x0 ../../spresense-exported-sdk/nuttx/libs/libnuttx.a(c-lib_etherntoa.o)
 .data          0x000000000d02815b        0x0 ../../spresense-exported-sdk/nuttx/libs/libnuttx.a(c-lib_sprintf.o)
 .data          0x000000000d02815b        0x0 ../../spresense-exported-sdk/nuttx/libs/libnuttx.a(mm-mm_mallinfo.o)
 .data          0x000000000d02815b        0x0 ../../spresense-exported-sdk/nuttx/libs/libnuttx.a(fs-fs_findblockdriver.o)
 .data          0x000000000d02815b        0x0 ../../spresense-exported-sdk/nuttx/libs/libnuttx.a(fs-fs_foreachinode.o)
 .data          0x000000000d02815b        0x0 ../../spresense-exported-sdk/nuttx/libs/libnuttx.a(fs-fs_mtdproxy.o)
 *fill*         0x000000000d02815b        0x1 
 .data.g_devno_sem
                0x000000000d02815c        0x2 ../../spresense-exported-sdk/nuttx/libs/libnuttx.a(fs-fs_mtdproxy.o)
 .data          0x000000000d02815e        0x0 ../../spresense-exported-sdk/nuttx/libs/libnuttx.a(drivers-ftl.o)
 .data          0x000000000d02815e        0x0 ../../spresense-exported-sdk/nuttx/libs/libnuttx.a(drivers-syslog_putc.o)
 .data          0x000000000d02815e        0x0 ../../spresense-exported-sdk/nuttx/libs/libnuttx.a(fs-fs_findmtddriver.o)
 .data          0x000000000d02815e        0x0 ../../spresense-exported-sdk/nuttx/libs/libnuttx.a(fs-fs_registerblockdriver.o)
 .data          0x000000000d02815e        0x0 ../../spresense-exported-sdk/nuttx/libs/libapps.a(nsh_main.o)
 .data          0x000000000d02815e        0x0 ../../spresense-exported-sdk/nuttx/libs/libapps.a(lateinit.o)
 .data          0x000000000d02815e        0x0 ../../spresense-exported-sdk/nuttx/libs/libapps.a(gnu_cxxinitialize.o)
 .data          0x000000000d02815e        0x0 ../../spresense-exported-sdk/nuttx/libs/libapps.a(nsh_init.o)
 .data          0x000000000d02815e        0x0 ../../spresense-exported-sdk/nuttx/libs/libapps.a(nsh_parse.o)
 .data          0x000000000d02815e        0x0 ../../spresense-exported-sdk/nuttx/libs/libapps.a(nsh_command.o)
 .data          0x000000000d02815e        0x0 ../../spresense-exported-sdk/nuttx/libs/libapps.a(nsh_fscmds.o)
 .data          0x000000000d02815e        0x0 ../../spresense-exported-sdk/nuttx/libs/libapps.a(nsh_ddcmd.o)
 .data          0x000000000d02815e        0x0 ../../spresense-exported-sdk/nuttx/libs/libapps.a(nsh_proccmds.o)
 .data          0x000000000d02815e        0x0 ../../spresense-exported-sdk/nuttx/libs/libapps.a(nsh_mmcmds.o)
 .data          0x000000000d02815e        0x0 ../../spresense-exported-sdk/nuttx/libs/libapps.a(nsh_timcmds.o)
 .data          0x000000000d02815e        0x0 ../../spresense-exported-sdk/nuttx/libs/libapps.a(nsh_envcmds.o)
 .data          0x000000000d02815e        0x0 ../../spresense-exported-sdk/nuttx/libs/libapps.a(nsh_syscmds.o)
 .data          0x000000000d02815e        0x0 ../../spresense-exported-sdk/nuttx/libs/libapps.a(nsh_dbgcmds.o)
 .data          0x000000000d02815e        0x0 ../../spresense-exported-sdk/nuttx/libs/libapps.a(nsh_fsutils.o)
 .data          0x000000000d02815e        0x0 ../../spresense-exported-sdk/nuttx/libs/libapps.a(nsh_builtin.o)
 .data          0x000000000d02815e        0x0 ../../spresense-exported-sdk/nuttx/libs/libapps.a(nsh_netcmds.o)
 .data          0x000000000d02815e        0x0 ../../spresense-exported-sdk/nuttx/libs/libapps.a(nsh_mntcmds.o)
 .data          0x000000000d02815e        0x0 ../../spresense-exported-sdk/nuttx/libs/libapps.a(nsh_consolemain.o)
 .data          0x000000000d02815e        0x0 ../../spresense-exported-sdk/nuttx/libs/libapps.a(nsh_test.o)
 .data          0x000000000d02815e        0x0 ../../spresense-exported-sdk/nuttx/libs/libapps.a(exec_builtin.o)
 .data          0x000000000d02815e        0x0 ../../spresense-exported-sdk/nuttx/libs/libapps.a(readline_common.o)
 *fill*         0x000000000d02815e        0x2 
 .data.g_cmd_history_head
                0x000000000d028160        0x4 ../../spresense-exported-sdk/nuttx/libs/libapps.a(readline_common.o)
 .data.g_cmd_history_steps_from_head
                0x000000000d028164        0x4 ../../spresense-exported-sdk/nuttx/libs/libapps.a(readline_common.o)
 .data          0x000000000d028168        0x0 ../../spresense-exported-sdk/nuttx/libs/libapps.a(netlib_ipv4addrconv.o)
 .data          0x000000000d028168        0x0 ../../spresense-exported-sdk/nuttx/libs/libapps.a(netlib_ethaddrconv.o)
 .data          0x000000000d028168        0x0 ../../spresense-exported-sdk/nuttx/libs/libapps.a(netlib_setifstatus.o)
 .data          0x000000000d028168        0x0 ../../spresense-exported-sdk/nuttx/libs/libapps.a(netlib_setmacaddr.o)
 .data          0x000000000d028168        0x0 ../../spresense-exported-sdk/nuttx/libs/libapps.a(netinit.o)
 .data          0x000000000d028168        0x0 ../../spresense-exported-sdk/nuttx/libs/libapps.a(mksmartfs.o)
 .data          0x000000000d028168        0x0 ../../spresense-exported-sdk/nuttx/libs/libapps.a(mkfatfs.o)
 .data          0x000000000d028168        0x0 ../../spresense-exported-sdk/nuttx/libs/libapps.a(configfat.o)
 .data.g_bootcodeblob
                0x000000000d028168       0x81 ../../spresense-exported-sdk/nuttx/libs/libapps.a(configfat.o)
 .data          0x000000000d0281e9        0x0 ../../spresense-exported-sdk/nuttx/libs/libapps.a(writefat.o)
 .data          0x000000000d0281e9        0x0 ../../spresense-exported-sdk/nuttx/libs/libapps.a(nsh_console.o)
 .data          0x000000000d0281e9        0x0 ../../spresense-exported-sdk/nuttx/libs/libapps.a(nsh_script.o)
 .data          0x000000000d0281e9        0x0 ../../spresense-exported-sdk/nuttx/libs/libapps.a(nsh_session.o)
 .data          0x000000000d0281e9        0x0 ../../spresense-exported-sdk/nuttx/libs/libapps.a(readline.o)
 .data          0x000000000d0281e9        0x0 ../../spresense-exported-sdk/nuttx/libs/libnuttx.a(sched-clock_settime.o)
 .data          0x000000000d0281e9        0x0 ../../spresense-exported-sdk/nuttx/libs/libnuttx.a(sched-env_getenv.o)
 .data          0x000000000d0281e9        0x0 ../../spresense-exported-sdk/nuttx/libs/libnuttx.a(sched-env_setenv.o)
 .data          0x000000000d0281e9        0x0 ../../spresense-exported-sdk/nuttx/libs/libnuttx.a(sched-env_unsetenv.o)
 .data          0x000000000d0281e9        0x0 ../../spresense-exported-sdk/nuttx/libs/libnuttx.a(sched-pthread_create.o)
 .data          0x000000000d0281e9        0x0 ../../spresense-exported-sdk/nuttx/libs/libnuttx.a(sched-pthread_detach.o)
 .data          0x000000000d0281e9        0x0 ../../spresense-exported-sdk/nuttx/libs/libnuttx.a(sched-pthread_exit.o)
 .data          0x000000000d0281e9        0x0 ../../spresense-exported-sdk/nuttx/libs/libnuttx.a(sched-pthread_findjoininfo.o)
 .data          0x000000000d0281e9        0x0 ../../spresense-exported-sdk/nuttx/libs/libnuttx.a(sched-pthread_initialize.o)
 .data          0x000000000d0281e9        0x0 ../../spresense-exported-sdk/nuttx/libs/libnuttx.a(sched-pthread_mutexinconsistent.o)
 .data          0x000000000d0281e9        0x0 ../../spresense-exported-sdk/nuttx/libs/libnuttx.a(sched-sched_getparam.o)
 .data          0x000000000d0281e9        0x0 ../../spresense-exported-sdk/nuttx/libs/libnuttx.a(sched-sched_getscheduler.o)
 .data          0x000000000d0281e9        0x0 ../../spresense-exported-sdk/nuttx/libs/libnuttx.a(sched-sched_setparam.o)
 .data          0x000000000d0281e9        0x0 ../../spresense-exported-sdk/nuttx/libs/libnuttx.a(sched-sched_setpriority.o)
 .data          0x000000000d0281e9        0x0 ../../spresense-exported-sdk/nuttx/libs/libnuttx.a(sched-sched_waitpid.o)
 .data          0x000000000d0281e9        0x0 ../../spresense-exported-sdk/nuttx/libs/libnuttx.a(sched-task_spawn.o)
 .data          0x000000000d0281e9        0x0 ../../spresense-exported-sdk/nuttx/libs/libnuttx.a(sched-task_spawnparms.o)
 *fill*         0x000000000d0281e9        0x1 
 .data.g_spawn_parmsem
                0x000000000d0281ea        0x2 ../../spresense-exported-sdk/nuttx/libs/libnuttx.a(sched-task_spawnparms.o)
                0x000000000d0281ea                g_spawn_parmsem
 .data          0x000000000d0281ec        0x0 ../../spresense-exported-sdk/nuttx/libs/libnuttx.a(boards-boardctl.o)
 .data          0x000000000d0281ec        0x0 ../../spresense-exported-sdk/nuttx/libs/libnuttx.a(c-lib_asprintf.o)
 .data          0x000000000d0281ec        0x0 ../../spresense-exported-sdk/nuttx/libs/libnuttx.a(c-lib_builtin_forindex.o)
 .data          0x000000000d0281ec        0x0 ../../spresense-exported-sdk/nuttx/libs/libnuttx.a(c-lib_builtin_getname.o)
 .data          0x000000000d0281ec        0x0 ../../spresense-exported-sdk/nuttx/libs/libnuttx.a(c-lib_builtin_isavail.o)
 .data          0x000000000d0281ec        0x0 ../../spresense-exported-sdk/nuttx/libs/libnuttx.a(c-lib_chdir.o)
 .data          0x000000000d0281ec        0x0 ../../spresense-exported-sdk/nuttx/libs/libnuttx.a(c-lib_dirname.o)
 .data          0x000000000d0281ec        0x0 ../../spresense-exported-sdk/nuttx/libs/libnuttx.a(c-lib_fclose.o)
 .data          0x000000000d0281ec        0x0 ../../spresense-exported-sdk/nuttx/libs/libnuttx.a(c-lib_fflush.o)
 .data          0x000000000d0281ec        0x0 ../../spresense-exported-sdk/nuttx/libs/libnuttx.a(c-lib_fgets.o)
 .data          0x000000000d0281ec        0x0 ../../spresense-exported-sdk/nuttx/libs/libnuttx.a(c-lib_fopen.o)
 .data          0x000000000d0281ec        0x0 ../../spresense-exported-sdk/nuttx/libs/libnuttx.a(c-lib_fprintf.o)
 .data          0x000000000d0281ec        0x0 ../../spresense-exported-sdk/nuttx/libs/libnuttx.a(c-lib_fputs.o)
 .data          0x000000000d0281ec        0x0 ../../spresense-exported-sdk/nuttx/libs/libnuttx.a(c-lib_ftell.o)
 .data          0x000000000d0281ec        0x0 ../../spresense-exported-sdk/nuttx/libs/libnuttx.a(c-lib_fwrite.o)
 .data          0x000000000d0281ec        0x0 ../../spresense-exported-sdk/nuttx/libs/libnuttx.a(c-lib_getopt.o)
 .data.optind   0x000000000d0281ec        0x4 ../../spresense-exported-sdk/nuttx/libs/libnuttx.a(c-lib_getopt.o)
                0x000000000d0281ec                optind
 .data.optopt   0x000000000d0281f0        0x4 ../../spresense-exported-sdk/nuttx/libs/libnuttx.a(c-lib_getopt.o)
                0x000000000d0281f0                optopt
 .data          0x000000000d0281f4        0x0 ../../spresense-exported-sdk/nuttx/libs/libnuttx.a(c-lib_gmtimer.o)
 .data          0x000000000d0281f4        0x0 ../../spresense-exported-sdk/nuttx/libs/libnuttx.a(c-lib_isleapyear.o)
 .data          0x000000000d0281f4        0x0 ../../spresense-exported-sdk/nuttx/libs/libnuttx.a(c-lib_libfgets.o)
 .data          0x000000000d0281f4        0x0 ../../spresense-exported-sdk/nuttx/libs/libnuttx.a(c-lib_memcmp.o)
 .data          0x000000000d0281f4        0x0 ../../spresense-exported-sdk/nuttx/libs/libnuttx.a(c-lib_mkfifo.o)
 .data          0x000000000d0281f4        0x0 ../../spresense-exported-sdk/nuttx/libs/libnuttx.a(c-lib_mktime.o)
 .data          0x000000000d0281f4        0x0 ../../spresense-exported-sdk/nuttx/libs/libnuttx.a(c-lib_psa_init.o)
 .data          0x000000000d0281f4        0x0 ../../spresense-exported-sdk/nuttx/libs/libnuttx.a(c-lib_psa_setflags.o)
 .data          0x000000000d0281f4        0x0 ../../spresense-exported-sdk/nuttx/libs/libnuttx.a(c-lib_psa_setschedparam.o)
 .data          0x000000000d0281f4        0x0 ../../spresense-exported-sdk/nuttx/libs/libnuttx.a(c-lib_psa_setschedpolicy.o)
 .data          0x000000000d0281f4        0x0 ../../spresense-exported-sdk/nuttx/libs/libnuttx.a(c-lib_psa_setstacksize.o)
 .data          0x000000000d0281f4        0x0 ../../spresense-exported-sdk/nuttx/libs/libnuttx.a(c-lib_psfa_addopen.o)
 .data          0x000000000d0281f4        0x0 ../../spresense-exported-sdk/nuttx/libs/libnuttx.a(c-lib_psfa_destroy.o)
 .data          0x000000000d0281f4        0x0 ../../spresense-exported-sdk/nuttx/libs/libnuttx.a(c-lib_psfa_init.o)
 .data          0x000000000d0281f4        0x0 ../../spresense-exported-sdk/nuttx/libs/libnuttx.a(c-lib_sleep.o)
 .data          0x000000000d0281f4        0x0 ../../spresense-exported-sdk/nuttx/libs/libnuttx.a(c-lib_strcat.o)
 .data          0x000000000d0281f4        0x0 ../../spresense-exported-sdk/nuttx/libs/libnuttx.a(c-lib_strftime.o)
 .data          0x000000000d0281f4        0x0 ../../spresense-exported-sdk/nuttx/libs/libnuttx.a(c-lib_strncasecmp.o)
 .data          0x000000000d0281f4        0x0 ../../spresense-exported-sdk/nuttx/libs/libnuttx.a(c-lib_strtokr.o)
 .data          0x000000000d0281f4        0x0 ../../spresense-exported-sdk/nuttx/libs/libnuttx.a(c-lib_usleep.o)
 .data          0x000000000d0281f4        0x0 ../../spresense-exported-sdk/nuttx/libs/libnuttx.a(c-lib_utsname.o)
 .data          0x000000000d0281f4        0x0 ../../spresense-exported-sdk/nuttx/libs/libnuttx.a(c-lib_vasprintf.o)
 .data          0x000000000d0281f4        0x0 ../../spresense-exported-sdk/nuttx/libs/libnuttx.a(c-pthread_attr_init.o)
 .data          0x000000000d0281f4        0x0 ../../spresense-exported-sdk/nuttx/libs/libnuttx.a(c-pthread_attr_setschedparam.o)
 .data          0x000000000d0281f4        0x0 ../../spresense-exported-sdk/nuttx/libs/libnuttx.a(c-pthread_attr_setschedpolicy.o)
 .data          0x000000000d0281f4        0x0 ../../spresense-exported-sdk/nuttx/libs/libnuttx.a(c-sched_getprioritymax.o)
 .data          0x000000000d0281f4        0x0 ../../spresense-exported-sdk/nuttx/libs/libnuttx.a(c-sched_getprioritymin.o)
 .data          0x000000000d0281f4        0x0 ../../spresense-exported-sdk/nuttx/libs/libnuttx.a(arch-up_usestack.o)
 .data          0x000000000d0281f4        0x0 ../../spresense-exported-sdk/nuttx/libs/libnuttx.a(net-socket.o)
 .data          0x000000000d0281f4        0x0 ../../spresense-exported-sdk/nuttx/libs/libnuttx.a(net-usrsock_sockif.o)
 .data          0x000000000d0281f4        0x0 ../../spresense-exported-sdk/nuttx/libs/libnuttx.a(fs-fs_closedir.o)
 .data          0x000000000d0281f4        0x0 ../../spresense-exported-sdk/nuttx/libs/libnuttx.a(fs-fs_dup2.o)
 .data          0x000000000d0281f4        0x0 ../../spresense-exported-sdk/nuttx/libs/libnuttx.a(fs-fs_ioctl.o)
 .data          0x000000000d0281f4        0x0 ../../spresense-exported-sdk/nuttx/libs/libnuttx.a(fs-fs_mkdir.o)
 .data          0x000000000d0281f4        0x0 ../../spresense-exported-sdk/nuttx/libs/libnuttx.a(fs-fs_mount.o)
 .data          0x000000000d0281f4        0x0 ../../spresense-exported-sdk/nuttx/libs/libnuttx.a(fs-fs_opendir.o)
 .data          0x000000000d0281f4        0x0 ../../spresense-exported-sdk/nuttx/libs/libnuttx.a(fs-fs_readdir.o)
 .data          0x000000000d0281f4        0x0 ../../spresense-exported-sdk/nuttx/libs/libnuttx.a(fs-fs_read.o)
 .data          0x000000000d0281f4        0x0 ../../spresense-exported-sdk/nuttx/libs/libnuttx.a(fs-fs_rename.o)
 .data          0x000000000d0281f4        0x0 ../../spresense-exported-sdk/nuttx/libs/libnuttx.a(fs-fs_rmdir.o)
 .data          0x000000000d0281f4        0x0 ../../spresense-exported-sdk/nuttx/libs/libnuttx.a(fs-fs_romfs.o)
 .data          0x000000000d0281f4        0x0 ../../spresense-exported-sdk/nuttx/libs/libnuttx.a(fs-fs_romfsutil.o)
 .data          0x000000000d0281f4        0x0 ../../spresense-exported-sdk/nuttx/libs/libnuttx.a(fs-fs_umount2.o)
 .data          0x000000000d0281f4        0x0 ../../spresense-exported-sdk/nuttx/libs/libnuttx.a(fs-smartfs_smart.o)
 .data          0x000000000d0281f4        0x0 ../../spresense-exported-sdk/nuttx/libs/libnuttx.a(board-cxd56_appinit.o)
 .data          0x000000000d0281f4        0x0 ../../spresense-exported-sdk/nuttx/libs/libnuttx.a(board-cxd56_bringup.o)
 .data          0x000000000d0281f4        0x0 ../../spresense-exported-sdk/nuttx/libs/libnuttx.a(board-cxd56_clock.o)
 .data.g_hv_lock
                0x000000000d0281f4       0x10 ../../spresense-exported-sdk/nuttx/libs/libnuttx.a(board-cxd56_clock.o)
 .data          0x000000000d028204        0x0 ../../spresense-exported-sdk/nuttx/libs/libnuttx.a(board-cxd56_flash.o)
 .data          0x000000000d028204        0x0 ../../spresense-exported-sdk/nuttx/libs/libnuttx.a(board-cxd56_i2cdev.o)
 .data          0x000000000d028204        0x0 ../../spresense-exported-sdk/nuttx/libs/libnuttx.a(board-cxd56_ioctl.o)
 .data          0x000000000d028204        0x0 ../../spresense-exported-sdk/nuttx/libs/libnuttx.a(board-cxd56_power.o)
 .data.g_hv_lock
                0x000000000d028204       0x10 ../../spresense-exported-sdk/nuttx/libs/libnuttx.a(board-cxd56_power.o)
 .data.g_ltsem  0x000000000d028214        0x2 ../../spresense-exported-sdk/nuttx/libs/libnuttx.a(board-cxd56_power.o)
 .data.g_used_tcxo
                0x000000000d028216        0x1 ../../spresense-exported-sdk/nuttx/libs/libnuttx.a(board-cxd56_power.o)
 .data          0x000000000d028217        0x0 ../../spresense-exported-sdk/nuttx/libs/libnuttx.a(board-cxd56_pwm.o)
 .data          0x000000000d028217        0x0 ../../spresense-exported-sdk/nuttx/libs/libnuttx.a(board-cxd56_uid.o)
 .data          0x000000000d028217        0x0 ../../spresense-exported-sdk/nuttx/libs/libnuttx.a(board-cxd56_usbmsc.o)
 .data          0x000000000d028217        0x0 ../../spresense-exported-sdk/nuttx/libs/libnuttx.a(sched-env_findvar.o)
 .data          0x000000000d028217        0x0 ../../spresense-exported-sdk/nuttx/libs/libnuttx.a(sched-env_removevar.o)
 .data          0x000000000d028217        0x0 ../../spresense-exported-sdk/nuttx/libs/libnuttx.a(sched-group_join.o)
 .data          0x000000000d028217        0x0 ../../spresense-exported-sdk/nuttx/libs/libnuttx.a(sched-pthread_completejoin.o)
 .data          0x000000000d028217        0x0 ../../spresense-exported-sdk/nuttx/libs/libnuttx.a(sched-sched_setscheduler.o)
 .data          0x000000000d028217        0x0 ../../spresense-exported-sdk/nuttx/libs/libnuttx.a(sched-task_getgroup.o)
 .data          0x000000000d028217        0x0 ../../spresense-exported-sdk/nuttx/libs/libnuttx.a(sched-task_reparent.o)
 .data          0x000000000d028217        0x0 ../../spresense-exported-sdk/nuttx/libs/libnuttx.a(drivers-cdcacm.o)
 .data          0x000000000d028217        0x0 ../../spresense-exported-sdk/nuttx/libs/libnuttx.a(drivers-fifo.o)
 .data          0x000000000d028217        0x0 ../../spresense-exported-sdk/nuttx/libs/libnuttx.a(drivers-i2c_driver.o)
 .data          0x000000000d028217        0x0 ../../spresense-exported-sdk/nuttx/libs/libnuttx.a(drivers-mkrd.o)
 .data          0x000000000d028217        0x0 ../../spresense-exported-sdk/nuttx/libs/libnuttx.a(drivers-pipe_common.o)
 .data          0x000000000d028217        0x0 ../../spresense-exported-sdk/nuttx/libs/libnuttx.a(drivers-ramdisk.o)
 .data          0x000000000d028217        0x0 ../../spresense-exported-sdk/nuttx/libs/libnuttx.a(drivers-rtc.o)
 .data          0x000000000d028217        0x0 ../../spresense-exported-sdk/nuttx/libs/libnuttx.a(drivers-smart.o)
 .data          0x000000000d028217        0x0 ../../spresense-exported-sdk/nuttx/libs/libnuttx.a(drivers-usbmsc.o)
 *fill*         0x000000000d028217        0x1 
 .data.g_driverops
                0x000000000d028218       0x18 ../../spresense-exported-sdk/nuttx/libs/libnuttx.a(drivers-usbmsc.o)
 .data          0x000000000d028230        0x0 ../../spresense-exported-sdk/nuttx/libs/libnuttx.a(drivers-usbmsc_scsi.o)
 .data          0x000000000d028230        0x0 ../../spresense-exported-sdk/nuttx/libs/libnuttx.a(c-lib_calendar2utc.o)
 .data          0x000000000d028230        0x0 ../../spresense-exported-sdk/nuttx/libs/libnuttx.a(c-lib_crc8.o)
 .data          0x000000000d028230        0x0 ../../spresense-exported-sdk/nuttx/libs/libnuttx.a(c-lib_daysbeforemonth.o)
 .data          0x000000000d028230        0x0 ../../spresense-exported-sdk/nuttx/libs/libnuttx.a(c-lib_fgetc.o)
 .data          0x000000000d028230        0x0 ../../spresense-exported-sdk/nuttx/libs/libnuttx.a(c-lib_gethostname.o)
 .data          0x000000000d028230        0x0 ../../spresense-exported-sdk/nuttx/libs/libnuttx.a(c-lib_libfread.o)
 .data          0x000000000d028230        0x0 ../../spresense-exported-sdk/nuttx/libs/libnuttx.a(c-lib_psfa_addaction.o)
 .data          0x000000000d028230        0x0 ../../spresense-exported-sdk/nuttx/libs/libnuttx.a(arch-cxd56_i2c.o)
 .data.cxd56_i2c_ops
                0x000000000d028230        0x4 ../../spresense-exported-sdk/nuttx/libs/libnuttx.a(arch-cxd56_i2c.o)
                0x000000000d028230                cxd56_i2c_ops
 .data.g_i2c0dev
                0x000000000d028234       0x30 ../../spresense-exported-sdk/nuttx/libs/libnuttx.a(arch-cxd56_i2c.o)
 .data          0x000000000d028264        0x0 ../../spresense-exported-sdk/nuttx/libs/libnuttx.a(arch-cxd56_rtc_lowerhalf.o)
 .data.g_rtc_lowerhalf
                0x000000000d028264        0xc ../../spresense-exported-sdk/nuttx/libs/libnuttx.a(arch-cxd56_rtc_lowerhalf.o)
 .data          0x000000000d028270        0x0 ../../spresense-exported-sdk/nuttx/libs/libnuttx.a(arch-cxd56_scu.o)
 .data          0x000000000d028270        0x0 ../../spresense-exported-sdk/nuttx/libs/libnuttx.a(arch-cxd56_sfc.o)
 .data          0x000000000d028270        0x0 ../../spresense-exported-sdk/nuttx/libs/libnuttx.a(arch-cxd56_sysctl.o)
 .data          0x000000000d028270        0x0 ../../spresense-exported-sdk/nuttx/libs/libnuttx.a(arch-cxd56_timer.o)
 .data          0x000000000d028270        0x0 ../../spresense-exported-sdk/nuttx/libs/libnuttx.a(arch-cxd56_udmac.o)
 .data          0x000000000d028270        0x0 ../../spresense-exported-sdk/nuttx/libs/libnuttx.a(arch-cxd56_uid.o)
 .data          0x000000000d028270        0x0 ../../spresense-exported-sdk/nuttx/libs/libnuttx.a(arch-cxd56_wdt.o)
 .data          0x000000000d028270        0x0 ../../spresense-exported-sdk/nuttx/libs/libnuttx.a(net-netdev_ioctl.o)
 .data          0x000000000d028270        0x0 ../../spresense-exported-sdk/nuttx/libs/libnuttx.a(net-net_dupsd2.o)
 .data          0x000000000d028270        0x0 ../../spresense-exported-sdk/nuttx/libs/libnuttx.a(net-net_sockif.o)
 .data          0x000000000d028270        0x0 ../../spresense-exported-sdk/nuttx/libs/libnuttx.a(net-recvfrom.o)
 .data          0x000000000d028270        0x0 ../../spresense-exported-sdk/nuttx/libs/libnuttx.a(net-usrsock_accept.o)
 .data          0x000000000d028270        0x0 ../../spresense-exported-sdk/nuttx/libs/libnuttx.a(net-usrsock_bind.o)
 .data          0x000000000d028270        0x0 ../../spresense-exported-sdk/nuttx/libs/libnuttx.a(net-usrsock_close.o)
 .data          0x000000000d028270        0x0 ../../spresense-exported-sdk/nuttx/libs/libnuttx.a(net-usrsock_connect.o)
 .data          0x000000000d028270        0x0 ../../spresense-exported-sdk/nuttx/libs/libnuttx.a(net-usrsock_getpeername.o)
 .data          0x000000000d028270        0x0 ../../spresense-exported-sdk/nuttx/libs/libnuttx.a(net-usrsock_getsockname.o)
 .data          0x000000000d028270        0x0 ../../spresense-exported-sdk/nuttx/libs/libnuttx.a(net-usrsock_ioctl.o)
 .data          0x000000000d028270        0x0 ../../spresense-exported-sdk/nuttx/libs/libnuttx.a(net-usrsock_listen.o)
 .data          0x000000000d028270        0x0 ../../spresense-exported-sdk/nuttx/libs/libnuttx.a(net-usrsock_poll.o)
 .data          0x000000000d028270        0x0 ../../spresense-exported-sdk/nuttx/libs/libnuttx.a(net-usrsock_recvfrom.o)
 .data          0x000000000d028270        0x0 ../../spresense-exported-sdk/nuttx/libs/libnuttx.a(net-usrsock_sendto.o)
 .data          0x000000000d028270        0x0 ../../spresense-exported-sdk/nuttx/libs/libnuttx.a(net-usrsock_socket.o)
 .data          0x000000000d028270        0x0 ../../spresense-exported-sdk/nuttx/libs/libnuttx.a(fs-fs_fat32.o)
 .data          0x000000000d028270        0x0 ../../spresense-exported-sdk/nuttx/libs/libnuttx.a(fs-fs_fat32util.o)
 .data          0x000000000d028270        0x0 ../../spresense-exported-sdk/nuttx/libs/libnuttx.a(fs-fs_unregisterblockdriver.o)
 .data          0x000000000d028270        0x0 ../../spresense-exported-sdk/nuttx/libs/libnuttx.a(fs-fs_unregisterdriver.o)
 .data          0x000000000d028270        0x0 ../../spresense-exported-sdk/nuttx/libs/libnuttx.a(drivers-cdcacm_desc.o)
 .data          0x000000000d028270        0x0 ../../spresense-exported-sdk/nuttx/libs/libnuttx.a(drivers-timer.o)
 .data          0x000000000d028270        0x0 ../../spresense-exported-sdk/nuttx/libs/libnuttx.a(drivers-usbmsc_desc.o)
 .data          0x000000000d028270        0x0 ../../spresense-exported-sdk/nuttx/libs/libnuttx.a(drivers-watchdog.o)
 .data          0x000000000d028270        0x0 ../../spresense-exported-sdk/nuttx/libs/libnuttx.a(arch-cxd56_scufifo.o)
 .data          0x000000000d028270        0x0 ../../spresense-exported-sdk/nuttx/libs/libnuttx.a(net-net_clone.o)
 .data          0x000000000d028270        0x0 ../../spresense-exported-sdk/nuttx/libs/libnuttx.a(fs-fs_fat32dirent.o)
 .data          0x000000000d028270        0x0 ../../spresense-exported-sdk/nuttx/libs/libapps.a(builtin_list.o)
 .data          0x000000000d028270        0x0 ../../spresense-exported-sdk/nuttx/libs/libapps.a(hello_main.o)
 .data          0x000000000d028270        0x0 ../../spresense-exported-sdk/nuttx/libs/libnuttx.a(c-lib_sin.o)
 .data          0x000000000d028270        0x0 ../../spresense-exported-sdk/nuttx/libs/libnuttx.a(c-lib_fmod.o)
 .data          0x000000000d028270        0x0 ../../spresense-exported-sdk/nuttx/libs/libnuttx.a(c-lib_modf.o)
 .data          0x000000000d028270        0x0 ../../spresense-exported-sdk/nuttx/libs/libnuttx.a(c-lib_fabs.o)
 *(.gnu.linkonce.d.*)
                0x000000000d028270                . = ALIGN (0x4)
                0x000000000d028270                _edata = ABSOLUTE (.)

.igot.plt       0x000000000d028270        0x0
 .igot.plt      0x000000000d028270        0x0 CMakeFiles/hellocpp.dir/HelloWorld.cpp.obj

.bss            0x000000000d028400     0x397c
                0x000000000d028400                _sbss = ABSOLUTE (.)
 *(.bss .bss.*)
 .bss           0x000000000d028400        0x0 CMakeFiles/hellocpp.dir/HelloWorld.cpp.obj
 .bss           0x000000000d028400        0x0 CMakeFiles/hellocpp.dir/main.cpp.obj
 .bss           0x000000000d028400        0x0 ../../spresense-exported-sdk/nuttx/libs/libnuttx.a(c-lib_printf.o)
 .bss           0x000000000d028400        0x0 ../../spresense-exported-sdk/nuttx/libs/libnuttx.a(c-lib_vfprintf.o)
 .bss           0x000000000d028400        0x0 ../../spresense-exported-sdk/nuttx/libs/libnuttx.a(arch-cxd56_start.o)
 .bss           0x000000000d028400        0x0 ../../spresense-exported-sdk/nuttx/libs/libnuttx.a(arch-cxd56_uart.o)
 .bss.g_cr      0x000000000d028400        0x4 ../../spresense-exported-sdk/nuttx/libs/libnuttx.a(arch-cxd56_uart.o)
 .bss.g_lcr     0x000000000d028404        0x4 ../../spresense-exported-sdk/nuttx/libs/libnuttx.a(arch-cxd56_uart.o)
 .bss           0x000000000d028408        0x0 ../../spresense-exported-sdk/nuttx/libs/libnuttx.a(arch-up_vectors.o)
 .bss           0x000000000d028408        0x0 ../../spresense-exported-sdk/nuttx/libs/libnuttx.a(board-cxd56_boot.o)
 .bss           0x000000000d028408        0x0 ../../spresense-exported-sdk/nuttx/libs/libnuttx.a(board-cxd56_main.o)
 .bss           0x000000000d028408        0x0 ../../spresense-exported-sdk/nuttx/libs/libnuttx.a(sched-nx_start.o)
 .bss.g_idleargv
                0x000000000d028408        0x8 ../../spresense-exported-sdk/nuttx/libs/libnuttx.a(sched-nx_start.o)
 .bss.g_idletcb
                0x000000000d028410      0x180 ../../spresense-exported-sdk/nuttx/libs/libnuttx.a(sched-nx_start.o)
 .bss           0x000000000d028590        0x0 ../../spresense-exported-sdk/nuttx/libs/libnuttx.a(sched-sched_getstreams.o)
 .bss           0x000000000d028590        0x0 ../../spresense-exported-sdk/nuttx/libs/libnuttx.a(drivers-syslog_initialize.o)
 .bss           0x000000000d028590        0x0 ../../spresense-exported-sdk/nuttx/libs/libnuttx.a(c-dq_addfirst.o)
 .bss           0x000000000d028590        0x0 ../../spresense-exported-sdk/nuttx/libs/libnuttx.a(c-lib_filesem.o)
 .bss           0x000000000d028590        0x0 ../../spresense-exported-sdk/nuttx/libs/libnuttx.a(c-lib_libvsprintf.o)
 .bss           0x000000000d028590        0x0 ../../spresense-exported-sdk/nuttx/libs/libnuttx.a(c-lib_memset.o)
 .bss           0x000000000d028590        0x0 ../../spresense-exported-sdk/nuttx/libs/libnuttx.a(c-lib_stdoutstream.o)
 .bss           0x000000000d028590        0x0 ../../spresense-exported-sdk/nuttx/libs/libnuttx.a(c-lib_strncpy.o)
 .bss           0x000000000d028590        0x0 ../../spresense-exported-sdk/nuttx/libs/libnuttx.a(c-lib_strnlen.o)
 .bss           0x000000000d028590        0x0 ../../spresense-exported-sdk/nuttx/libs/libnuttx.a(c-lib_ultoa_invert.o)
 .bss           0x000000000d028590        0x0 ../../spresense-exported-sdk/nuttx/libs/libnuttx.a(c-sem_init.o)
 .bss           0x000000000d028590        0x0 ../../spresense-exported-sdk/nuttx/libs/libnuttx.a(mm-umm_initialize.o)
 .bss           0x000000000d028590        0x0 ../../spresense-exported-sdk/nuttx/libs/libnuttx.a(arch-cxd56_allocateheap.o)
 .bss           0x000000000d028590        0x0 ../../spresense-exported-sdk/nuttx/libs/libnuttx.a(arch-cxd56_clock.o)
 .bss.g_active_imgdevs
                0x000000000d028590        0x4 ../../spresense-exported-sdk/nuttx/libs/libnuttx.a(arch-cxd56_clock.o)
 .bss.g_analog  0x000000000d028594       0x10 ../../spresense-exported-sdk/nuttx/libs/libnuttx.a(arch-cxd56_clock.o)
 .bss.g_digital
                0x000000000d0285a4       0x10 ../../spresense-exported-sdk/nuttx/libs/libnuttx.a(arch-cxd56_clock.o)
 .bss.rcosc_clock
                0x000000000d0285b4        0x4 ../../spresense-exported-sdk/nuttx/libs/libnuttx.a(arch-cxd56_clock.o)
 .bss           0x000000000d0285b8        0x0 ../../spresense-exported-sdk/nuttx/libs/libnuttx.a(arch-cxd56_delay.o)
 .bss           0x000000000d0285b8        0x0 ../../spresense-exported-sdk/nuttx/libs/libnuttx.a(arch-cxd56_idle.o)
 .bss           0x000000000d0285b8        0x0 ../../spresense-exported-sdk/nuttx/libs/libnuttx.a(arch-cxd56_pinconfig.o)
 .bss           0x000000000d0285b8        0x0 ../../spresense-exported-sdk/nuttx/libs/libnuttx.a(arch-cxd56_powermgr.o)
 .bss.g_bootsync
                0x000000000d0285b8        0x2 ../../spresense-exported-sdk/nuttx/libs/libnuttx.a(arch-cxd56_powermgr.o)
 *fill*         0x000000000d0285ba        0x2 
 .bss.g_cbqueue
                0x000000000d0285bc        0x8 ../../spresense-exported-sdk/nuttx/libs/libnuttx.a(arch-cxd56_powermgr.o)
 .bss.g_clockcange_start
                0x000000000d0285c4        0x4 ../../spresense-exported-sdk/nuttx/libs/libnuttx.a(arch-cxd56_powermgr.o)
 .bss.g_freqlock
                0x000000000d0285c8        0x2 ../../spresense-exported-sdk/nuttx/libs/libnuttx.a(arch-cxd56_powermgr.o)
 *fill*         0x000000000d0285ca        0x2 
 .bss.g_freqlock_flag
                0x000000000d0285cc        0x4 ../../spresense-exported-sdk/nuttx/libs/libnuttx.a(arch-cxd56_powermgr.o)
 .bss.g_freqlockqueue
                0x000000000d0285d0        0x8 ../../spresense-exported-sdk/nuttx/libs/libnuttx.a(arch-cxd56_powermgr.o)
 .bss.g_freqlockwait
                0x000000000d0285d8        0x2 ../../spresense-exported-sdk/nuttx/libs/libnuttx.a(arch-cxd56_powermgr.o)
 *fill*         0x000000000d0285da        0x2 
 .bss.g_queuedesc
                0x000000000d0285dc        0x4 ../../spresense-exported-sdk/nuttx/libs/libnuttx.a(arch-cxd56_powermgr.o)
 .bss.g_regcblock
                0x000000000d0285e0        0x2 ../../spresense-exported-sdk/nuttx/libs/libnuttx.a(arch-cxd56_powermgr.o)
 *fill*         0x000000000d0285e2        0x2 
 .bss.g_target_id_table
                0x000000000d0285e4       0x18 ../../spresense-exported-sdk/nuttx/libs/libnuttx.a(arch-cxd56_powermgr.o)
 .bss.g_wakelockqueue
                0x000000000d0285fc        0x8 ../../spresense-exported-sdk/nuttx/libs/libnuttx.a(arch-cxd56_powermgr.o)
 .bss           0x000000000d028604        0x0 ../../spresense-exported-sdk/nuttx/libs/libnuttx.a(arch-cxd56_serial.o)
 .bss.g_uart1rxbuffer
                0x000000000d028604      0x400 ../../spresense-exported-sdk/nuttx/libs/libnuttx.a(arch-cxd56_serial.o)
 .bss.g_uart1txbuffer
                0x000000000d028a04      0x400 ../../spresense-exported-sdk/nuttx/libs/libnuttx.a(arch-cxd56_serial.o)
 .bss.g_uart2rxbuffer
                0x000000000d028e04      0x100 ../../spresense-exported-sdk/nuttx/libs/libnuttx.a(arch-cxd56_serial.o)
 .bss.g_uart2txbuffer
                0x000000000d028f04      0x100 ../../spresense-exported-sdk/nuttx/libs/libnuttx.a(arch-cxd56_serial.o)
 *fill*         0x000000000d029004       0xfc 
 .bss           0x000000000d029100      0x800 ../../spresense-exported-sdk/nuttx/libs/libnuttx.a(arch-up_exception.o)
                0x000000000d029100                g_intstackalloc
                0x000000000d029900                g_intstackbase
 .bss           0x000000000d029900        0x0 ../../spresense-exported-sdk/nuttx/libs/libnuttx.a(arch-up_initialize.o)
 .bss           0x000000000d029900        0x0 ../../spresense-exported-sdk/nuttx/libs/libnuttx.a(arch-up_initialstate.o)
 .bss           0x000000000d029900        0x0 ../../spresense-exported-sdk/nuttx/libs/libnuttx.a(arch-up_interruptcontext.o)
 .bss           0x000000000d029900        0x0 ../../spresense-exported-sdk/nuttx/libs/libnuttx.a(arch-up_modifyreg32.o)
 .bss           0x000000000d029900        0x0 ../../spresense-exported-sdk/nuttx/libs/libnuttx.a(net-net_initialize.o)
 .bss           0x000000000d029900        0x0 ../../spresense-exported-sdk/nuttx/libs/libnuttx.a(net-net_lock.o)
 .bss.g_count   0x000000000d029900        0x4 ../../spresense-exported-sdk/nuttx/libs/libnuttx.a(net-net_lock.o)
 .bss.g_netlock
                0x000000000d029904        0x2 ../../spresense-exported-sdk/nuttx/libs/libnuttx.a(net-net_lock.o)
 .bss           0x000000000d029906        0x0 ../../spresense-exported-sdk/nuttx/libs/libnuttx.a(net-usrsock_conn.o)
 *fill*         0x000000000d029906        0x2 
 .bss.g_active_usrsock_connections
                0x000000000d029908        0x8 ../../spresense-exported-sdk/nuttx/libs/libnuttx.a(net-usrsock_conn.o)
 .bss.g_free_sem
                0x000000000d029910        0x2 ../../spresense-exported-sdk/nuttx/libs/libnuttx.a(net-usrsock_conn.o)
 *fill*         0x000000000d029912        0x2 
 .bss.g_free_usrsock_connections
                0x000000000d029914        0x8 ../../spresense-exported-sdk/nuttx/libs/libnuttx.a(net-usrsock_conn.o)
 .bss.g_usrsock_connections
                0x000000000d02991c      0x138 ../../spresense-exported-sdk/nuttx/libs/libnuttx.a(net-usrsock_conn.o)
 .bss           0x000000000d029a54        0x0 ../../spresense-exported-sdk/nuttx/libs/libnuttx.a(net-usrsock_dev.o)
 .bss.g_usrsockdev
                0x000000000d029a54       0x20 ../../spresense-exported-sdk/nuttx/libs/libnuttx.a(net-usrsock_dev.o)
 .bss           0x000000000d029a74        0x0 ../../spresense-exported-sdk/nuttx/libs/libnuttx.a(net-usrsock_event.o)
 .bss           0x000000000d029a74        0x0 ../../spresense-exported-sdk/nuttx/libs/libnuttx.a(fs-fs_initialize.o)
 .bss           0x000000000d029a74        0x0 ../../spresense-exported-sdk/nuttx/libs/libnuttx.a(fs-fs_inode.o)
 .bss.g_inode_sem
                0x000000000d029a74        0x6 ../../spresense-exported-sdk/nuttx/libs/libnuttx.a(fs-fs_inode.o)
 .bss           0x000000000d029a7a        0x0 ../../spresense-exported-sdk/nuttx/libs/libnuttx.a(fs-fs_registerdriver.o)
 .bss           0x000000000d029a7a        0x0 ../../spresense-exported-sdk/nuttx/libs/libnuttx.a(fs-mq_open.o)
 .bss           0x000000000d029a7a        0x0 ../../spresense-exported-sdk/nuttx/libs/libnuttx.a(binfmt-binfmt_initialize.o)
 .bss           0x000000000d029a7a        0x0 ../../spresense-exported-sdk/nuttx/libs/libnuttx.a(sched-clock_gettime.o)
 .bss           0x000000000d029a7a        0x0 ../../spresense-exported-sdk/nuttx/libs/libnuttx.a(sched-clock_initialize.o)
 .bss           0x000000000d029a7a        0x0 ../../spresense-exported-sdk/nuttx/libs/libnuttx.a(sched-clock_systimespec.o)
 .bss           0x000000000d029a7a        0x0 ../../spresense-exported-sdk/nuttx/libs/libnuttx.a(sched-clock_ticks2time.o)
 .bss           0x000000000d029a7a        0x0 ../../spresense-exported-sdk/nuttx/libs/libnuttx.a(sched-errno_getptr.o)
 *fill*         0x000000000d029a7a        0x2 
 .bss.g_irqerrno
                0x000000000d029a7c        0x4 ../../spresense-exported-sdk/nuttx/libs/libnuttx.a(sched-errno_getptr.o)
 .bss           0x000000000d029a80        0x0 ../../spresense-exported-sdk/nuttx/libs/libnuttx.a(sched-group_create.o)
 .bss.g_grpid_counter
                0x000000000d029a80        0x2 ../../spresense-exported-sdk/nuttx/libs/libnuttx.a(sched-group_create.o)
 .bss           0x000000000d029a82        0x0 ../../spresense-exported-sdk/nuttx/libs/libnuttx.a(sched-group_find.o)
 .bss           0x000000000d029a82        0x0 ../../spresense-exported-sdk/nuttx/libs/libnuttx.a(sched-group_setupidlefiles.o)
 .bss           0x000000000d029a82        0x0 ../../spresense-exported-sdk/nuttx/libs/libnuttx.a(sched-group_setupstreams.o)
 .bss           0x000000000d029a82        0x0 ../../spresense-exported-sdk/nuttx/libs/libnuttx.a(sched-irq_attach.o)
 .bss           0x000000000d029a82        0x0 ../../spresense-exported-sdk/nuttx/libs/libnuttx.a(sched-irq_initialize.o)
 .bss           0x000000000d029a82        0x0 ../../spresense-exported-sdk/nuttx/libs/libnuttx.a(sched-irq_unexpectedisr.o)
 .bss           0x000000000d029a82        0x0 ../../spresense-exported-sdk/nuttx/libs/libnuttx.a(sched-mq_descreate.o)
 .bss           0x000000000d029a82        0x0 ../../spresense-exported-sdk/nuttx/libs/libnuttx.a(sched-mq_initialize.o)
 *fill*         0x000000000d029a82        0x2 
 .bss.g_desalloc
                0x000000000d029a84        0x8 ../../spresense-exported-sdk/nuttx/libs/libnuttx.a(sched-mq_initialize.o)
 .bss           0x000000000d029a8c        0x0 ../../spresense-exported-sdk/nuttx/libs/libnuttx.a(sched-mq_msgqalloc.o)
 .bss           0x000000000d029a8c        0x0 ../../spresense-exported-sdk/nuttx/libs/libnuttx.a(sched-mq_msgqfree.o)
 .bss           0x000000000d029a8c        0x0 ../../spresense-exported-sdk/nuttx/libs/libnuttx.a(sched-mq_receive.o)
 .bss           0x000000000d029a8c        0x0 ../../spresense-exported-sdk/nuttx/libs/libnuttx.a(sched-mq_send.o)
 .bss           0x000000000d029a8c        0x0 ../../spresense-exported-sdk/nuttx/libs/libnuttx.a(sched-mq_sndinternal.o)
 .bss           0x000000000d029a8c        0x0 ../../spresense-exported-sdk/nuttx/libs/libnuttx.a(sched-nx_bringup.o)
 .bss           0x000000000d029a8c        0x0 ../../spresense-exported-sdk/nuttx/libs/libnuttx.a(sched-sched_free.o)
 .bss           0x000000000d029a8c        0x0 ../../spresense-exported-sdk/nuttx/libs/libnuttx.a(sched-sched_lock.o)
 .bss           0x000000000d029a8c        0x0 ../../spresense-exported-sdk/nuttx/libs/libnuttx.a(sched-sched_self.o)
 .bss           0x000000000d029a8c        0x0 ../../spresense-exported-sdk/nuttx/libs/libnuttx.a(sched-sched_unlock.o)
 .bss           0x000000000d029a8c        0x0 ../../spresense-exported-sdk/nuttx/libs/libnuttx.a(sched-sem_destroy.o)
 .bss           0x000000000d029a8c        0x0 ../../spresense-exported-sdk/nuttx/libs/libnuttx.a(sched-sem_post.o)
 .bss           0x000000000d029a8c        0x0 ../../spresense-exported-sdk/nuttx/libs/libnuttx.a(sched-sem_timedwait.o)
 .bss           0x000000000d029a8c        0x0 ../../spresense-exported-sdk/nuttx/libs/libnuttx.a(sched-sem_timeout.o)
 .bss           0x000000000d029a8c        0x0 ../../spresense-exported-sdk/nuttx/libs/libnuttx.a(sched-sem_trywait.o)
 .bss           0x000000000d029a8c        0x0 ../../spresense-exported-sdk/nuttx/libs/libnuttx.a(sched-sem_waitirq.o)
 .bss           0x000000000d029a8c        0x0 ../../spresense-exported-sdk/nuttx/libs/libnuttx.a(sched-sem_wait.o)
 .bss           0x000000000d029a8c        0x0 ../../spresense-exported-sdk/nuttx/libs/libnuttx.a(sched-sig_notification.o)
 .bss           0x000000000d029a8c        0x0 ../../spresense-exported-sdk/nuttx/libs/libnuttx.a(sched-task_create.o)
 .bss           0x000000000d029a8c        0x0 ../../spresense-exported-sdk/nuttx/libs/libnuttx.a(sched-task_getpid.o)
 .bss           0x000000000d029a8c        0x0 ../../spresense-exported-sdk/nuttx/libs/libnuttx.a(sched-task_setup.o)
 .bss           0x000000000d029a8c        0x0 ../../spresense-exported-sdk/nuttx/libs/libnuttx.a(sched-task_start.o)
 .bss           0x000000000d029a8c        0x0 ../../spresense-exported-sdk/nuttx/libs/libnuttx.a(sched-wd_cancel.o)
 .bss           0x000000000d029a8c        0x0 ../../spresense-exported-sdk/nuttx/libs/libnuttx.a(sched-wd_create.o)
 .bss           0x000000000d029a8c        0x0 ../../spresense-exported-sdk/nuttx/libs/libnuttx.a(sched-wd_delete.o)
 .bss           0x000000000d029a8c        0x0 ../../spresense-exported-sdk/nuttx/libs/libnuttx.a(sched-wd_initialize.o)
 .bss.g_wdpool  0x000000000d029a8c      0x180 ../../spresense-exported-sdk/nuttx/libs/libnuttx.a(sched-wd_initialize.o)
 .bss           0x000000000d029c0c        0x0 ../../spresense-exported-sdk/nuttx/libs/libnuttx.a(sched-wd_start.o)
 .bss           0x000000000d029c0c        0x0 ../../spresense-exported-sdk/nuttx/libs/libnuttx.a(drivers-dev_null.o)
 .bss           0x000000000d029c0c        0x0 ../../spresense-exported-sdk/nuttx/libs/libnuttx.a(drivers-serial_io.o)
 .bss           0x000000000d029c0c        0x0 ../../spresense-exported-sdk/nuttx/libs/libnuttx.a(drivers-serial.o)
 .bss           0x000000000d029c0c        0x0 ../../spresense-exported-sdk/nuttx/libs/libnuttx.a(drivers-syslog_consolechannel.o)
 .bss           0x000000000d029c0c        0x0 ../../spresense-exported-sdk/nuttx/libs/libnuttx.a(drivers-syslog_device.o)
 .bss.g_syslog_dev
                0x000000000d029c0c       0x1c ../../spresense-exported-sdk/nuttx/libs/libnuttx.a(drivers-syslog_device.o)
 .bss           0x000000000d029c28        0x0 ../../spresense-exported-sdk/nuttx/libs/libnuttx.a(c-dq_addlast.o)
 .bss           0x000000000d029c28        0x0 ../../spresense-exported-sdk/nuttx/libs/libnuttx.a(c-dq_remfirst.o)
 .bss           0x000000000d029c28        0x0 ../../spresense-exported-sdk/nuttx/libs/libnuttx.a(c-dq_rem.o)
 .bss           0x000000000d029c28        0x0 ../../spresense-exported-sdk/nuttx/libs/libnuttx.a(c-lib_cfgetspeed.o)
 .bss           0x000000000d029c28        0x0 ../../spresense-exported-sdk/nuttx/libs/libnuttx.a(c-lib_cfsetspeed.o)
 .bss           0x000000000d029c28        0x0 ../../spresense-exported-sdk/nuttx/libs/libnuttx.a(c-lib_dtoa_engine.o)
 .bss           0x000000000d029c28        0x0 ../../spresense-exported-sdk/nuttx/libs/libnuttx.a(c-lib_fputc.o)
 .bss           0x000000000d029c28        0x0 ../../spresense-exported-sdk/nuttx/libs/libnuttx.a(c-lib_libfflush.o)
 .bss           0x000000000d029c28        0x0 ../../spresense-exported-sdk/nuttx/libs/libnuttx.a(c-lib_libfwrite.o)
 .bss           0x000000000d029c28        0x0 ../../spresense-exported-sdk/nuttx/libs/libnuttx.a(c-lib_libnoflush.o)
 .bss           0x000000000d029c28        0x0 ../../spresense-exported-sdk/nuttx/libs/libnuttx.a(c-lib_memcpy.o)
 .bss           0x000000000d029c28        0x0 ../../spresense-exported-sdk/nuttx/libs/libnuttx.a(c-lib_memmove.o)
 .bss           0x000000000d029c28        0x0 ../../spresense-exported-sdk/nuttx/libs/libnuttx.a(c-lib_rdflush.o)
 .bss           0x000000000d029c28        0x0 ../../spresense-exported-sdk/nuttx/libs/libnuttx.a(c-lib_snprintf.o)
 .bss           0x000000000d029c28        0x0 ../../spresense-exported-sdk/nuttx/libs/libnuttx.a(c-lib_strcpy.o)
 .bss           0x000000000d029c28        0x0 ../../spresense-exported-sdk/nuttx/libs/libnuttx.a(c-lib_strdup.o)
 .bss           0x000000000d029c28        0x0 ../../spresense-exported-sdk/nuttx/libs/libnuttx.a(c-lib_stream.o)
 .bss           0x000000000d029c28        0x0 ../../spresense-exported-sdk/nuttx/libs/libnuttx.a(c-lib_strlen.o)
 .bss           0x000000000d029c28        0x0 ../../spresense-exported-sdk/nuttx/libs/libnuttx.a(c-sem_getvalue.o)
 .bss           0x000000000d029c28        0x0 ../../spresense-exported-sdk/nuttx/libs/libnuttx.a(c-sem_setprotocol.o)
 .bss           0x000000000d029c28        0x0 ../../spresense-exported-sdk/nuttx/libs/libnuttx.a(c-sq_addafter.o)
 .bss           0x000000000d029c28        0x0 ../../spresense-exported-sdk/nuttx/libs/libnuttx.a(c-sq_addfirst.o)
 .bss           0x000000000d029c28        0x0 ../../spresense-exported-sdk/nuttx/libs/libnuttx.a(c-sq_addlast.o)
 .bss           0x000000000d029c28        0x0 ../../spresense-exported-sdk/nuttx/libs/libnuttx.a(c-sq_count.o)
 .bss           0x000000000d029c28        0x0 ../../spresense-exported-sdk/nuttx/libs/libnuttx.a(c-sq_remafter.o)
 .bss           0x000000000d029c28        0x0 ../../spresense-exported-sdk/nuttx/libs/libnuttx.a(c-sq_remfirst.o)
 .bss           0x000000000d029c28        0x0 ../../spresense-exported-sdk/nuttx/libs/libnuttx.a(c-sq_rem.o)
 .bss           0x000000000d029c28        0x0 ../../spresense-exported-sdk/nuttx/libs/libnuttx.a(mm-mm_initialize.o)
 .bss           0x000000000d029c28        0x0 ../../spresense-exported-sdk/nuttx/libs/libnuttx.a(mm-mm_sem.o)
 .bss           0x000000000d029c28        0x0 ../../spresense-exported-sdk/nuttx/libs/libnuttx.a(mm-umm_free.o)
 .bss           0x000000000d029c28        0x0 ../../spresense-exported-sdk/nuttx/libs/libnuttx.a(mm-umm_globals.o)
 .bss           0x000000000d029c28        0x0 ../../spresense-exported-sdk/nuttx/libs/libnuttx.a(mm-umm_malloc.o)
 .bss           0x000000000d029c28        0x0 ../../spresense-exported-sdk/nuttx/libs/libnuttx.a(mm-umm_sem.o)
 .bss           0x000000000d029c28        0x0 ../../spresense-exported-sdk/nuttx/libs/libnuttx.a(mm-umm_zalloc.o)
 .bss           0x000000000d029c28        0x0 ../../spresense-exported-sdk/nuttx/libs/libnuttx.a(arch-cxd56_farapistub.o)
 .bss           0x000000000d029c28        0x0 ../../spresense-exported-sdk/nuttx/libs/libnuttx.a(arch-cxd56_icc.o)
 .bss.g_cpumsg  0x000000000d029c28       0x20 ../../spresense-exported-sdk/nuttx/libs/libnuttx.a(arch-cxd56_icc.o)
 .bss.g_protocol
                0x000000000d029c48       0x40 ../../spresense-exported-sdk/nuttx/libs/libnuttx.a(arch-cxd56_icc.o)
 .bss           0x000000000d029c88        0x0 ../../spresense-exported-sdk/nuttx/libs/libnuttx.a(arch-cxd56_irq.o)
 .bss           0x000000000d029c88        0x0 ../../spresense-exported-sdk/nuttx/libs/libnuttx.a(arch-cxd56_pmic.o)
 .bss           0x000000000d029c88        0x0 ../../spresense-exported-sdk/nuttx/libs/libnuttx.a(arch-cxd56_rtc.o)
 .bss.g_alarmcb
                0x000000000d029c88        0x8 ../../spresense-exported-sdk/nuttx/libs/libnuttx.a(arch-cxd56_rtc.o)
 .bss.g_rtc_enabled
                0x000000000d029c90        0x1 ../../spresense-exported-sdk/nuttx/libs/libnuttx.a(arch-cxd56_rtc.o)
                0x000000000d029c90                g_rtc_enabled
 *fill*         0x000000000d029c91        0x3 
 .bss.g_rtc_save
                0x000000000d029c94        0x4 ../../spresense-exported-sdk/nuttx/libs/libnuttx.a(arch-cxd56_rtc.o)
 .bss.s_retry.8091
                0x000000000d029c98        0x4 ../../spresense-exported-sdk/nuttx/libs/libnuttx.a(arch-cxd56_rtc.o)
 .bss.s_wdog.8090
                0x000000000d029c9c        0x4 ../../spresense-exported-sdk/nuttx/libs/libnuttx.a(arch-cxd56_rtc.o)
 .bss           0x000000000d029ca0        0x0 ../../spresense-exported-sdk/nuttx/libs/libnuttx.a(arch-cxd56_timerisr.o)
 .bss.g_systrvr
                0x000000000d029ca0        0x4 ../../spresense-exported-sdk/nuttx/libs/libnuttx.a(arch-cxd56_timerisr.o)
 .bss           0x000000000d029ca4        0x0 ../../spresense-exported-sdk/nuttx/libs/libnuttx.a(arch-cxd56_usbdev.o)
 .bss.g_ep0in   0x000000000d029ca4       0x10 ../../spresense-exported-sdk/nuttx/libs/libnuttx.a(arch-cxd56_usbdev.o)
 .bss.g_ep0out  0x000000000d029cb4       0x10 ../../spresense-exported-sdk/nuttx/libs/libnuttx.a(arch-cxd56_usbdev.o)
 .bss.g_ep0outbuffer
                0x000000000d029cc4       0x40 ../../spresense-exported-sdk/nuttx/libs/libnuttx.a(arch-cxd56_usbdev.o)
 .bss.g_ep0setup
                0x000000000d029d04       0x10 ../../spresense-exported-sdk/nuttx/libs/libnuttx.a(arch-cxd56_usbdev.o)
 .bss.g_usbdev  0x000000000d029d14      0x22c ../../spresense-exported-sdk/nuttx/libs/libnuttx.a(arch-cxd56_usbdev.o)
 .bss           0x000000000d029f40        0x0 ../../spresense-exported-sdk/nuttx/libs/libnuttx.a(arch-up_assert.o)
 .bss.s_last_regs
                0x000000000d029f40       0xd4 ../../spresense-exported-sdk/nuttx/libs/libnuttx.a(arch-up_assert.o)
 .bss           0x000000000d02a014        0x0 ../../spresense-exported-sdk/nuttx/libs/libnuttx.a(arch-up_blocktask.o)
 .bss           0x000000000d02a014        0x0 ../../spresense-exported-sdk/nuttx/libs/libnuttx.a(arch-up_checkstack.o)
 .bss           0x000000000d02a014        0x0 ../../spresense-exported-sdk/nuttx/libs/libnuttx.a(arch-up_copyfullstate.o)
 .bss           0x000000000d02a014        0x0 ../../spresense-exported-sdk/nuttx/libs/libnuttx.a(arch-up_createstack.o)
 .bss           0x000000000d02a014        0x0 ../../spresense-exported-sdk/nuttx/libs/libnuttx.a(arch-up_doirq.o)
 .bss           0x000000000d02a014        0x0 ../../spresense-exported-sdk/nuttx/libs/libnuttx.a(arch-up_hardfault.o)
 .bss           0x000000000d02a014        0x0 ../../spresense-exported-sdk/nuttx/libs/libnuttx.a(arch-up_releasepending.o)
 .bss           0x000000000d02a014        0x0 ../../spresense-exported-sdk/nuttx/libs/libnuttx.a(arch-up_releasestack.o)
 .bss           0x000000000d02a014        0x0 ../../spresense-exported-sdk/nuttx/libs/libnuttx.a(arch-up_saveusercontext.o)
 .bss           0x000000000d02a014        0x0 ../../spresense-exported-sdk/nuttx/libs/libnuttx.a(arch-up_stackframe.o)
 .bss           0x000000000d02a014        0x0 ../../spresense-exported-sdk/nuttx/libs/libnuttx.a(arch-up_svcall.o)
 .bss           0x000000000d02a014        0x0 ../../spresense-exported-sdk/nuttx/libs/libnuttx.a(arch-up_switchcontext.o)
 .bss           0x000000000d02a014        0x0 ../../spresense-exported-sdk/nuttx/libs/libnuttx.a(arch-up_unblocktask.o)
 .bss           0x000000000d02a014        0x0 ../../spresense-exported-sdk/nuttx/libs/libnuttx.a(net-devif_callback.o)
 .bss.g_cbfreelist
                0x000000000d02a014        0x4 ../../spresense-exported-sdk/nuttx/libs/libnuttx.a(net-devif_callback.o)
 .bss.g_cbprealloc
                0x000000000d02a018      0x140 ../../spresense-exported-sdk/nuttx/libs/libnuttx.a(net-devif_callback.o)
 .bss           0x000000000d02a158        0x0 ../../spresense-exported-sdk/nuttx/libs/libnuttx.a(net-devif_initialize.o)
 .bss           0x000000000d02a158        0x0 ../../spresense-exported-sdk/nuttx/libs/libnuttx.a(net-netdev_verify.o)
 .bss           0x000000000d02a158        0x0 ../../spresense-exported-sdk/nuttx/libs/libnuttx.a(net-net_sockets.o)
 .bss           0x000000000d02a158        0x0 ../../spresense-exported-sdk/nuttx/libs/libnuttx.a(fs-fs_close.o)
 .bss           0x000000000d02a158        0x0 ../../spresense-exported-sdk/nuttx/libs/libnuttx.a(fs-fs_dupfd2.o)
 .bss           0x000000000d02a158        0x0 ../../spresense-exported-sdk/nuttx/libs/libnuttx.a(fs-fs_fdopen.o)
 .bss           0x000000000d02a158        0x0 ../../spresense-exported-sdk/nuttx/libs/libnuttx.a(fs-fs_fileopen.o)
 .bss           0x000000000d02a158        0x0 ../../spresense-exported-sdk/nuttx/libs/libnuttx.a(fs-fs_files.o)
 .bss           0x000000000d02a158        0x0 ../../spresense-exported-sdk/nuttx/libs/libnuttx.a(fs-fs_getfilep.o)
 .bss           0x000000000d02a158        0x0 ../../spresense-exported-sdk/nuttx/libs/libnuttx.a(fs-fs_inodeaddref.o)
 .bss           0x000000000d02a158        0x0 ../../spresense-exported-sdk/nuttx/libs/libnuttx.a(fs-fs_inodefind.o)
 .bss           0x000000000d02a158        0x0 ../../spresense-exported-sdk/nuttx/libs/libnuttx.a(fs-fs_inoderelease.o)
 .bss           0x000000000d02a158        0x0 ../../spresense-exported-sdk/nuttx/libs/libnuttx.a(fs-fs_inodereserve.o)
 .bss           0x000000000d02a158        0x0 ../../spresense-exported-sdk/nuttx/libs/libnuttx.a(fs-fs_inodesearch.o)
 .bss.g_root_inode
                0x000000000d02a158        0x4 ../../spresense-exported-sdk/nuttx/libs/libnuttx.a(fs-fs_inodesearch.o)
                0x000000000d02a158                g_root_inode
 .bss           0x000000000d02a15c        0x0 ../../spresense-exported-sdk/nuttx/libs/libnuttx.a(fs-fs_open.o)
 .bss           0x000000000d02a15c        0x0 ../../spresense-exported-sdk/nuttx/libs/libnuttx.a(fs-fs_procfs.o)
 .bss.g_procfs_entries
                0x000000000d02a15c        0x4 ../../spresense-exported-sdk/nuttx/libs/libnuttx.a(fs-fs_procfs.o)
 .bss.g_procfs_entrycount
                0x000000000d02a160        0x1 ../../spresense-exported-sdk/nuttx/libs/libnuttx.a(fs-fs_procfs.o)
 .bss           0x000000000d02a161        0x0 ../../spresense-exported-sdk/nuttx/libs/libnuttx.a(fs-fs_procfsproc.o)
 .bss           0x000000000d02a161        0x0 ../../spresense-exported-sdk/nuttx/libs/libnuttx.a(fs-fs_procfsuptime.o)
 .bss           0x000000000d02a161        0x0 ../../spresense-exported-sdk/nuttx/libs/libnuttx.a(fs-fs_procfsutil.o)
 .bss           0x000000000d02a161        0x0 ../../spresense-exported-sdk/nuttx/libs/libnuttx.a(fs-fs_write.o)
 .bss           0x000000000d02a161        0x0 ../../spresense-exported-sdk/nuttx/libs/libnuttx.a(fs-smartfs_procfs.o)
 .bss           0x000000000d02a161        0x0 ../../spresense-exported-sdk/nuttx/libs/libnuttx.a(fs-smartfs_utils.o)
 *fill*         0x000000000d02a161        0x3 
 .bss.g_mounthead
                0x000000000d02a164        0x4 ../../spresense-exported-sdk/nuttx/libs/libnuttx.a(fs-smartfs_utils.o)
 .bss           0x000000000d02a168        0x0 ../../spresense-exported-sdk/nuttx/libs/libnuttx.a(board-cxd56_crashdump.o)
 .bss           0x000000000d02a168        0x0 ../../spresense-exported-sdk/nuttx/libs/libnuttx.a(sched-clock_abstime2ticks.o)
 .bss           0x000000000d02a168        0x0 ../../spresense-exported-sdk/nuttx/libs/libnuttx.a(sched-clock_time2ticks.o)
 .bss           0x000000000d02a168        0x0 ../../spresense-exported-sdk/nuttx/libs/libnuttx.a(sched-env_dup.o)
 .bss           0x000000000d02a168        0x0 ../../spresense-exported-sdk/nuttx/libs/libnuttx.a(sched-exit.o)
 .bss           0x000000000d02a168        0x0 ../../spresense-exported-sdk/nuttx/libs/libnuttx.a(sched-group_childstatus.o)
 .bss.g_child_pool
                0x000000000d02a168      0x304 ../../spresense-exported-sdk/nuttx/libs/libnuttx.a(sched-group_childstatus.o)
 .bss           0x000000000d02a46c        0x0 ../../spresense-exported-sdk/nuttx/libs/libnuttx.a(sched-group_setuptaskfiles.o)
 .bss           0x000000000d02a46c        0x0 ../../spresense-exported-sdk/nuttx/libs/libnuttx.a(sched-irq_dispatch.o)
 .bss           0x000000000d02a46c        0x0 ../../spresense-exported-sdk/nuttx/libs/libnuttx.a(sched-kwork_hpthread.o)
 .bss           0x000000000d02a46c        0x0 ../../spresense-exported-sdk/nuttx/libs/libnuttx.a(sched-kwork_lpthread.o)
 .bss           0x000000000d02a46c        0x0 ../../spresense-exported-sdk/nuttx/libs/libnuttx.a(sched-kwork_process.o)
 .bss           0x000000000d02a46c        0x0 ../../spresense-exported-sdk/nuttx/libs/libnuttx.a(sched-kwork_signal.o)
 .bss           0x000000000d02a46c        0x0 ../../spresense-exported-sdk/nuttx/libs/libnuttx.a(sched-mq_msgfree.o)
 .bss           0x000000000d02a46c        0x0 ../../spresense-exported-sdk/nuttx/libs/libnuttx.a(sched-mq_rcvinternal.o)
 .bss           0x000000000d02a46c        0x0 ../../spresense-exported-sdk/nuttx/libs/libnuttx.a(sched-sched_addblocked.o)
 .bss           0x000000000d02a46c        0x0 ../../spresense-exported-sdk/nuttx/libs/libnuttx.a(sched-sched_addprioritized.o)
 .bss           0x000000000d02a46c        0x0 ../../spresense-exported-sdk/nuttx/libs/libnuttx.a(sched-sched_addreadytorun.o)
 .bss           0x000000000d02a46c        0x0 ../../spresense-exported-sdk/nuttx/libs/libnuttx.a(sched-sched_foreach.o)
 .bss           0x000000000d02a46c        0x0 ../../spresense-exported-sdk/nuttx/libs/libnuttx.a(sched-sched_garbage.o)
 .bss           0x000000000d02a46c        0x0 ../../spresense-exported-sdk/nuttx/libs/libnuttx.a(sched-sched_getfiles.o)
 .bss           0x000000000d02a46c        0x0 ../../spresense-exported-sdk/nuttx/libs/libnuttx.a(sched-sched_getsockets.o)
 .bss           0x000000000d02a46c        0x0 ../../spresense-exported-sdk/nuttx/libs/libnuttx.a(sched-sched_gettcb.o)
 .bss           0x000000000d02a46c        0x0 ../../spresense-exported-sdk/nuttx/libs/libnuttx.a(sched-sched_idletask.o)
 .bss           0x000000000d02a46c        0x0 ../../spresense-exported-sdk/nuttx/libs/libnuttx.a(sched-sched_mergepending.o)
 .bss           0x000000000d02a46c        0x0 ../../spresense-exported-sdk/nuttx/libs/libnuttx.a(sched-sched_processtimer.o)
 .bss           0x000000000d02a46c        0x0 ../../spresense-exported-sdk/nuttx/libs/libnuttx.a(sched-sched_releasetcb.o)
 .bss           0x000000000d02a46c        0x0 ../../spresense-exported-sdk/nuttx/libs/libnuttx.a(sched-sched_removeblocked.o)
 .bss           0x000000000d02a46c        0x0 ../../spresense-exported-sdk/nuttx/libs/libnuttx.a(sched-sched_removereadytorun.o)
 .bss           0x000000000d02a46c        0x0 ../../spresense-exported-sdk/nuttx/libs/libnuttx.a(sched-sched_resumescheduler.o)
 .bss           0x000000000d02a46c        0x0 ../../spresense-exported-sdk/nuttx/libs/libnuttx.a(sched-sched_roundrobin.o)
 .bss           0x000000000d02a46c        0x0 ../../spresense-exported-sdk/nuttx/libs/libnuttx.a(sched-sem_reset.o)
 .bss           0x000000000d02a46c        0x0 ../../spresense-exported-sdk/nuttx/libs/libnuttx.a(sched-sig_dispatch.o)
 .bss           0x000000000d02a46c        0x0 ../../spresense-exported-sdk/nuttx/libs/libnuttx.a(sched-sig_findaction.o)
 .bss           0x000000000d02a46c        0x0 ../../spresense-exported-sdk/nuttx/libs/libnuttx.a(sched-sig_initialize.o)
 .bss           0x000000000d02a46c        0x0 ../../spresense-exported-sdk/nuttx/libs/libnuttx.a(sched-sig_kill.o)
 .bss           0x000000000d02a46c        0x0 ../../spresense-exported-sdk/nuttx/libs/libnuttx.a(sched-sig_procmask.o)
 .bss           0x000000000d02a46c        0x0 ../../spresense-exported-sdk/nuttx/libs/libnuttx.a(sched-sig_queue.o)
 .bss           0x000000000d02a46c        0x0 ../../spresense-exported-sdk/nuttx/libs/libnuttx.a(sched-sig_timedwait.o)
 .bss           0x000000000d02a46c        0x0 ../../spresense-exported-sdk/nuttx/libs/libnuttx.a(sched-sig_unmaskpendingsignal.o)
 .bss           0x000000000d02a46c        0x0 ../../spresense-exported-sdk/nuttx/libs/libnuttx.a(sched-sig_usleep.o)
 .bss           0x000000000d02a46c        0x0 ../../spresense-exported-sdk/nuttx/libs/libnuttx.a(sched-task_activate.o)
 .bss           0x000000000d02a46c        0x0 ../../spresense-exported-sdk/nuttx/libs/libnuttx.a(sched-task_exithook.o)
 .bss           0x000000000d02a46c        0x0 ../../spresense-exported-sdk/nuttx/libs/libnuttx.a(sched-task_recover.o)
 .bss           0x000000000d02a46c        0x0 ../../spresense-exported-sdk/nuttx/libs/libnuttx.a(sched-wd_recover.o)
 .bss           0x000000000d02a46c        0x0 ../../spresense-exported-sdk/nuttx/libs/libnuttx.a(drivers-syslog_channel.o)
 .bss           0x000000000d02a46c        0x0 ../../spresense-exported-sdk/nuttx/libs/libnuttx.a(drivers-syslog_flush.o)
 .bss           0x000000000d02a46c        0x0 ../../spresense-exported-sdk/nuttx/libs/libnuttx.a(c-lib_dtoa_data.o)
 .bss           0x000000000d02a46c        0x0 ../../spresense-exported-sdk/nuttx/libs/libnuttx.a(c-lib_fseek.o)
 .bss           0x000000000d02a46c        0x0 ../../spresense-exported-sdk/nuttx/libs/libnuttx.a(c-lib_libflushall.o)
 .bss           0x000000000d02a46c        0x0 ../../spresense-exported-sdk/nuttx/libs/libnuttx.a(c-lib_match.o)
 .bss           0x000000000d02a46c        0x0 ../../spresense-exported-sdk/nuttx/libs/libnuttx.a(c-lib_memoutstream.o)
 .bss           0x000000000d02a46c        0x0 ../../spresense-exported-sdk/nuttx/libs/libnuttx.a(c-lib_nulloutstream.o)
 .bss           0x000000000d02a46c        0x0 ../../spresense-exported-sdk/nuttx/libs/libnuttx.a(c-lib_strchr.o)
 .bss           0x000000000d02a46c        0x0 ../../spresense-exported-sdk/nuttx/libs/libnuttx.a(c-lib_strcmp.o)
 .bss           0x000000000d02a46c        0x0 ../../spresense-exported-sdk/nuttx/libs/libnuttx.a(c-lib_strcspn.o)
 .bss           0x000000000d02a46c        0x0 ../../spresense-exported-sdk/nuttx/libs/libnuttx.a(c-lib_streamsem.o)
 .bss           0x000000000d02a46c        0x0 ../../spresense-exported-sdk/nuttx/libs/libnuttx.a(c-lib_strncmp.o)
 .bss           0x000000000d02a46c        0x0 ../../spresense-exported-sdk/nuttx/libs/libnuttx.a(c-lib_strtol.o)
 .bss           0x000000000d02a46c        0x0 ../../spresense-exported-sdk/nuttx/libs/libnuttx.a(c-lib_strtoul.o)
 .bss           0x000000000d02a46c        0x0 ../../spresense-exported-sdk/nuttx/libs/libnuttx.a(c-lib_syslog.o)
 .bss           0x000000000d02a46c        0x0 ../../spresense-exported-sdk/nuttx/libs/libnuttx.a(c-lib_time.o)
 .bss           0x000000000d02a46c        0x0 ../../spresense-exported-sdk/nuttx/libs/libnuttx.a(c-lib_wrflush.o)
 .bss           0x000000000d02a46c        0x0 ../../spresense-exported-sdk/nuttx/libs/libnuttx.a(c-sig_addset.o)
 .bss           0x000000000d02a46c        0x0 ../../spresense-exported-sdk/nuttx/libs/libnuttx.a(c-sig_delset.o)
 .bss           0x000000000d02a46c        0x0 ../../spresense-exported-sdk/nuttx/libs/libnuttx.a(c-sig_emptyset.o)
 .bss           0x000000000d02a46c        0x0 ../../spresense-exported-sdk/nuttx/libs/libnuttx.a(c-sig_ismember.o)
 .bss           0x000000000d02a46c        0x0 ../../spresense-exported-sdk/nuttx/libs/libnuttx.a(mm-mm_addfreechunk.o)
 .bss           0x000000000d02a46c        0x0 ../../spresense-exported-sdk/nuttx/libs/libnuttx.a(mm-mm_free.o)
 .bss           0x000000000d02a46c        0x0 ../../spresense-exported-sdk/nuttx/libs/libnuttx.a(mm-mm_malloc.o)
 .bss           0x000000000d02a46c        0x0 ../../spresense-exported-sdk/nuttx/libs/libnuttx.a(mm-mm_size2ndx.o)
 .bss           0x000000000d02a46c        0x0 ../../spresense-exported-sdk/nuttx/libs/libnuttx.a(mm-mm_zalloc.o)
 .bss           0x000000000d02a46c        0x0 ../../spresense-exported-sdk/nuttx/libs/libnuttx.a(mm-umm_heapmember.o)
 .bss           0x000000000d02a46c        0x0 ../../spresense-exported-sdk/nuttx/libs/libnuttx.a(mm-umm_realloc.o)
 .bss           0x000000000d02a46c        0x0 ../../spresense-exported-sdk/nuttx/libs/libnuttx.a(arch-cxd56_backuplog.o)
 .bss           0x000000000d02a46c        0x0 ../../spresense-exported-sdk/nuttx/libs/libnuttx.a(arch-cxd56_cpufifo.o)
 .bss.g_cfrxhandler
                0x000000000d02a46c        0x4 ../../spresense-exported-sdk/nuttx/libs/libnuttx.a(arch-cxd56_cpufifo.o)
 .bss.g_emptyqueue
                0x000000000d02a470        0x8 ../../spresense-exported-sdk/nuttx/libs/libnuttx.a(arch-cxd56_cpufifo.o)
 .bss.g_pushbuffer
                0x000000000d02a478       0x60 ../../spresense-exported-sdk/nuttx/libs/libnuttx.a(arch-cxd56_cpufifo.o)
 .bss.g_pushqueue
                0x000000000d02a4d8        0x8 ../../spresense-exported-sdk/nuttx/libs/libnuttx.a(arch-cxd56_cpufifo.o)
 .bss           0x000000000d02a4e0        0x0 ../../spresense-exported-sdk/nuttx/libs/libnuttx.a(arch-cxd56_farapi.o)
 .bss.g_farlock
                0x000000000d02a4e0        0x2 ../../spresense-exported-sdk/nuttx/libs/libnuttx.a(arch-cxd56_farapi.o)
 .bss.g_farwait
                0x000000000d02a4e2        0x2 ../../spresense-exported-sdk/nuttx/libs/libnuttx.a(arch-cxd56_farapi.o)
 .bss           0x000000000d02a4e4        0x0 ../../spresense-exported-sdk/nuttx/libs/libnuttx.a(arch-up_exit.o)
 .bss           0x000000000d02a4e4        0x0 ../../spresense-exported-sdk/nuttx/libs/libnuttx.a(arch-up_fullcontextrestore.o)
 .bss           0x000000000d02a4e4        0x0 ../../spresense-exported-sdk/nuttx/libs/libnuttx.a(arch-up_reprioritizertr.o)
 .bss           0x000000000d02a4e4        0x0 ../../spresense-exported-sdk/nuttx/libs/libnuttx.a(arch-up_schedulesigaction.o)
 .bss           0x000000000d02a4e4        0x0 ../../spresense-exported-sdk/nuttx/libs/libnuttx.a(arch-up_sigdeliver.o)
 .bss           0x000000000d02a4e4        0x0 ../../spresense-exported-sdk/nuttx/libs/libnuttx.a(net-net_checksd.o)
 .bss           0x000000000d02a4e4        0x0 ../../spresense-exported-sdk/nuttx/libs/libnuttx.a(net-net_close.o)
 .bss           0x000000000d02a4e4        0x0 ../../spresense-exported-sdk/nuttx/libs/libnuttx.a(net-netdev_register.o)
 .bss.g_netdevices
                0x000000000d02a4e4        0x4 ../../spresense-exported-sdk/nuttx/libs/libnuttx.a(net-netdev_register.o)
                0x000000000d02a4e4                g_netdevices
 .bss           0x000000000d02a4e8        0x0 ../../spresense-exported-sdk/nuttx/libs/libnuttx.a(net-net_procfs.o)
 .bss           0x000000000d02a4e8        0x0 ../../spresense-exported-sdk/nuttx/libs/libnuttx.a(net-send.o)
 .bss           0x000000000d02a4e8        0x0 ../../spresense-exported-sdk/nuttx/libs/libnuttx.a(fs-fs_blockproxy.o)
 .bss.g_devno   0x000000000d02a4e8        0x4 ../../spresense-exported-sdk/nuttx/libs/libnuttx.a(fs-fs_blockproxy.o)
 .bss           0x000000000d02a4ec        0x0 ../../spresense-exported-sdk/nuttx/libs/libnuttx.a(fs-fs_filedetach.o)
 .bss           0x000000000d02a4ec        0x0 ../../spresense-exported-sdk/nuttx/libs/libnuttx.a(fs-fs_inodefree.o)
 .bss           0x000000000d02a4ec        0x0 ../../spresense-exported-sdk/nuttx/libs/libnuttx.a(fs-fs_lseek.o)
 .bss           0x000000000d02a4ec        0x0 ../../spresense-exported-sdk/nuttx/libs/libnuttx.a(fs-fs_procfsmeminfo.o)
 .bss           0x000000000d02a4ec        0x0 ../../spresense-exported-sdk/nuttx/libs/libnuttx.a(fs-fs_procfs_mount.o)
 .bss           0x000000000d02a4ec        0x0 ../../spresense-exported-sdk/nuttx/libs/libnuttx.a(fs-fs_stat.o)
 .bss           0x000000000d02a4ec        0x0 ../../spresense-exported-sdk/nuttx/libs/libnuttx.a(fs-fs_unlink.o)
 .bss           0x000000000d02a4ec        0x0 ../../spresense-exported-sdk/nuttx/libs/libnuttx.a(sched-group_leave.o)
 .bss           0x000000000d02a4ec        0x0 ../../spresense-exported-sdk/nuttx/libs/libnuttx.a(sched-group_signal.o)
 .bss           0x000000000d02a4ec        0x0 ../../spresense-exported-sdk/nuttx/libs/libnuttx.a(sched-mq_recover.o)
 .bss           0x000000000d02a4ec        0x0 ../../spresense-exported-sdk/nuttx/libs/libnuttx.a(sched-mq_release.o)
 .bss           0x000000000d02a4ec        0x0 ../../spresense-exported-sdk/nuttx/libs/libnuttx.a(sched-mq_waitirq.o)
 .bss           0x000000000d02a4ec        0x0 ../../spresense-exported-sdk/nuttx/libs/libnuttx.a(sched-pthread_release.o)
 .bss           0x000000000d02a4ec        0x0 ../../spresense-exported-sdk/nuttx/libs/libnuttx.a(sched-sem_recover.o)
 .bss           0x000000000d02a4ec        0x0 ../../spresense-exported-sdk/nuttx/libs/libnuttx.a(sched-sig_allocpendingsigaction.o)
 .bss           0x000000000d02a4ec        0x0 ../../spresense-exported-sdk/nuttx/libs/libnuttx.a(sched-sig_cleanup.o)
 .bss           0x000000000d02a4ec        0x0 ../../spresense-exported-sdk/nuttx/libs/libnuttx.a(sched-sig_deliver.o)
 .bss           0x000000000d02a4ec        0x0 ../../spresense-exported-sdk/nuttx/libs/libnuttx.a(sched-sig_lowest.o)
 .bss           0x000000000d02a4ec        0x0 ../../spresense-exported-sdk/nuttx/libs/libnuttx.a(sched-sig_nanosleep.o)
 .bss           0x000000000d02a4ec        0x0 ../../spresense-exported-sdk/nuttx/libs/libnuttx.a(sched-sig_pending.o)
 .bss           0x000000000d02a4ec        0x0 ../../spresense-exported-sdk/nuttx/libs/libnuttx.a(sched-sig_releasependingsigaction.o)
 .bss           0x000000000d02a4ec        0x0 ../../spresense-exported-sdk/nuttx/libs/libnuttx.a(sched-sig_releasependingsignal.o)
 .bss           0x000000000d02a4ec        0x0 ../../spresense-exported-sdk/nuttx/libs/libnuttx.a(sched-sig_removependingsignal.o)
 .bss           0x000000000d02a4ec        0x0 ../../spresense-exported-sdk/nuttx/libs/libnuttx.a(sched-task_exit.o)
 .bss           0x000000000d02a4ec        0x0 ../../spresense-exported-sdk/nuttx/libs/libnuttx.a(sched-task_terminate.o)
 .bss           0x000000000d02a4ec        0x0 ../../spresense-exported-sdk/nuttx/libs/libnuttx.a(drivers-bchdev_register.o)
 .bss           0x000000000d02a4ec        0x0 ../../spresense-exported-sdk/nuttx/libs/libnuttx.a(drivers-bchlib_setup.o)
 .bss           0x000000000d02a4ec        0x0 ../../spresense-exported-sdk/nuttx/libs/libnuttx.a(drivers-bchlib_teardown.o)
 .bss           0x000000000d02a4ec        0x0 ../../spresense-exported-sdk/nuttx/libs/libnuttx.a(drivers-vsyslog.o)
 .bss           0x000000000d02a4ec        0x0 ../../spresense-exported-sdk/nuttx/libs/libnuttx.a(c-lib_basename.o)
 .bss.g_retchar
                0x000000000d02a4ec        0x2 ../../spresense-exported-sdk/nuttx/libs/libnuttx.a(c-lib_basename.o)
 .bss           0x000000000d02a4ee        0x0 ../../spresense-exported-sdk/nuttx/libs/libnuttx.a(c-lib_checkbase.o)
 .bss           0x000000000d02a4ee        0x0 ../../spresense-exported-sdk/nuttx/libs/libnuttx.a(c-lib_isbasedigit.o)
 .bss           0x000000000d02a4ee        0x0 ../../spresense-exported-sdk/nuttx/libs/libnuttx.a(c-lib_setlogmask.o)
 .bss           0x000000000d02a4ee        0x0 ../../spresense-exported-sdk/nuttx/libs/libnuttx.a(c-lib_skipspace.o)
 .bss           0x000000000d02a4ee        0x0 ../../spresense-exported-sdk/nuttx/libs/libnuttx.a(c-lib_strrchr.o)
 .bss           0x000000000d02a4ee        0x0 ../../spresense-exported-sdk/nuttx/libs/libnuttx.a(c-lib_vsnprintf.o)
 .bss           0x000000000d02a4ee        0x0 ../../spresense-exported-sdk/nuttx/libs/libnuttx.a(mm-mm_heapmember.o)
 .bss           0x000000000d02a4ee        0x0 ../../spresense-exported-sdk/nuttx/libs/libnuttx.a(mm-mm_realloc.o)
 .bss           0x000000000d02a4ee        0x0 ../../spresense-exported-sdk/nuttx/libs/libnuttx.a(mm-mm_shrinkchunk.o)
 .bss           0x000000000d02a4ee        0x0 ../../spresense-exported-sdk/nuttx/libs/libnuttx.a(mm-umm_mallinfo.o)
 .bss           0x000000000d02a4ee        0x0 ../../spresense-exported-sdk/nuttx/libs/libnuttx.a(net-netdev_count.o)
 .bss           0x000000000d02a4ee        0x0 ../../spresense-exported-sdk/nuttx/libs/libnuttx.a(net-netdev_findbyindex.o)
 .bss           0x000000000d02a4ee        0x0 ../../spresense-exported-sdk/nuttx/libs/libnuttx.a(net-netdev_findbyname.o)
 .bss           0x000000000d02a4ee        0x0 ../../spresense-exported-sdk/nuttx/libs/libnuttx.a(net-netdev_statistics.o)
 .bss           0x000000000d02a4ee        0x0 ../../spresense-exported-sdk/nuttx/libs/libnuttx.a(fs-fs_closeblockdriver.o)
 .bss           0x000000000d02a4ee        0x0 ../../spresense-exported-sdk/nuttx/libs/libnuttx.a(fs-fs_foreachmountpoint.o)
 .bss           0x000000000d02a4ee        0x0 ../../spresense-exported-sdk/nuttx/libs/libnuttx.a(fs-fs_gettype.o)
 .bss           0x000000000d02a4ee        0x0 ../../spresense-exported-sdk/nuttx/libs/libnuttx.a(fs-fs_inoderemove.o)
 .bss           0x000000000d02a4ee        0x0 ../../spresense-exported-sdk/nuttx/libs/libnuttx.a(fs-fs_openblockdriver.o)
 .bss           0x000000000d02a4ee        0x0 ../../spresense-exported-sdk/nuttx/libs/libnuttx.a(fs-mq_close.o)
 .bss           0x000000000d02a4ee        0x0 ../../spresense-exported-sdk/nuttx/libs/libnuttx.a(sched-clock_timespec_subtract.o)
 .bss           0x000000000d02a4ee        0x0 ../../spresense-exported-sdk/nuttx/libs/libnuttx.a(sched-env_release.o)
 .bss           0x000000000d02a4ee        0x0 ../../spresense-exported-sdk/nuttx/libs/libnuttx.a(sched-group_foreachchild.o)
 .bss           0x000000000d02a4ee        0x0 ../../spresense-exported-sdk/nuttx/libs/libnuttx.a(sched-mq_desclose.o)
 .bss           0x000000000d02a4ee        0x0 ../../spresense-exported-sdk/nuttx/libs/libnuttx.a(sched-sig_action.o)
 .bss           0x000000000d02a4ee        0x0 ../../spresense-exported-sdk/nuttx/libs/libnuttx.a(drivers-bchdev_driver.o)
 .bss           0x000000000d02a4ee        0x0 ../../spresense-exported-sdk/nuttx/libs/libnuttx.a(drivers-bchlib_cache.o)
 .bss           0x000000000d02a4ee        0x0 ../../spresense-exported-sdk/nuttx/libs/libnuttx.a(drivers-bchlib_read.o)
 .bss           0x000000000d02a4ee        0x0 ../../spresense-exported-sdk/nuttx/libs/libnuttx.a(drivers-bchlib_sem.o)
 .bss           0x000000000d02a4ee        0x0 ../../spresense-exported-sdk/nuttx/libs/libnuttx.a(drivers-bchlib_write.o)
 .bss           0x000000000d02a4ee        0x0 ../../spresense-exported-sdk/nuttx/libs/libnuttx.a(drivers-syslog_emergstream.o)
 .bss           0x000000000d02a4ee        0x0 ../../spresense-exported-sdk/nuttx/libs/libnuttx.a(drivers-syslog_force.o)
 .bss           0x000000000d02a4ee        0x0 ../../spresense-exported-sdk/nuttx/libs/libnuttx.a(drivers-syslog_stream.o)
 .bss           0x000000000d02a4ee        0x0 ../../spresense-exported-sdk/nuttx/libs/libnuttx.a(c-lib_etherntoa.o)
 .bss.buffer.7122
                0x000000000d02a4ee       0x14 ../../spresense-exported-sdk/nuttx/libs/libnuttx.a(c-lib_etherntoa.o)
 .bss           0x000000000d02a502        0x0 ../../spresense-exported-sdk/nuttx/libs/libnuttx.a(c-lib_sprintf.o)
 .bss           0x000000000d02a502        0x0 ../../spresense-exported-sdk/nuttx/libs/libnuttx.a(mm-mm_mallinfo.o)
 .bss           0x000000000d02a502        0x0 ../../spresense-exported-sdk/nuttx/libs/libnuttx.a(fs-fs_findblockdriver.o)
 .bss           0x000000000d02a502        0x0 ../../spresense-exported-sdk/nuttx/libs/libnuttx.a(fs-fs_foreachinode.o)
 .bss           0x000000000d02a502        0x0 ../../spresense-exported-sdk/nuttx/libs/libnuttx.a(fs-fs_mtdproxy.o)
 *fill*         0x000000000d02a502        0x2 
 .bss.g_devno   0x000000000d02a504        0x4 ../../spresense-exported-sdk/nuttx/libs/libnuttx.a(fs-fs_mtdproxy.o)
 .bss           0x000000000d02a508        0x0 ../../spresense-exported-sdk/nuttx/libs/libnuttx.a(drivers-ftl.o)
 .bss           0x000000000d02a508        0x0 ../../spresense-exported-sdk/nuttx/libs/libnuttx.a(drivers-syslog_putc.o)
 .bss           0x000000000d02a508        0x0 ../../spresense-exported-sdk/nuttx/libs/libnuttx.a(fs-fs_findmtddriver.o)
 .bss           0x000000000d02a508        0x0 ../../spresense-exported-sdk/nuttx/libs/libnuttx.a(fs-fs_registerblockdriver.o)
 .bss           0x000000000d02a508        0x0 ../../spresense-exported-sdk/nuttx/libs/libapps.a(nsh_main.o)
 .bss           0x000000000d02a508        0x0 ../../spresense-exported-sdk/nuttx/libs/libapps.a(lateinit.o)
 .bss           0x000000000d02a508        0x0 ../../spresense-exported-sdk/nuttx/libs/libapps.a(gnu_cxxinitialize.o)
 .bss           0x000000000d02a508        0x0 ../../spresense-exported-sdk/nuttx/libs/libapps.a(nsh_init.o)
 .bss           0x000000000d02a508        0x0 ../../spresense-exported-sdk/nuttx/libs/libapps.a(nsh_parse.o)
 .bss           0x000000000d02a508        0x0 ../../spresense-exported-sdk/nuttx/libs/libapps.a(nsh_command.o)
 .bss           0x000000000d02a508        0x0 ../../spresense-exported-sdk/nuttx/libs/libapps.a(nsh_fscmds.o)
 .bss           0x000000000d02a508        0x0 ../../spresense-exported-sdk/nuttx/libs/libapps.a(nsh_ddcmd.o)
 .bss           0x000000000d02a508        0x0 ../../spresense-exported-sdk/nuttx/libs/libapps.a(nsh_proccmds.o)
 .bss           0x000000000d02a508        0x0 ../../spresense-exported-sdk/nuttx/libs/libapps.a(nsh_mmcmds.o)
 .bss           0x000000000d02a508        0x0 ../../spresense-exported-sdk/nuttx/libs/libapps.a(nsh_timcmds.o)
 .bss           0x000000000d02a508        0x0 ../../spresense-exported-sdk/nuttx/libs/libapps.a(nsh_envcmds.o)
 .bss           0x000000000d02a508        0x0 ../../spresense-exported-sdk/nuttx/libs/libapps.a(nsh_syscmds.o)
 .bss           0x000000000d02a508        0x0 ../../spresense-exported-sdk/nuttx/libs/libapps.a(nsh_dbgcmds.o)
 .bss           0x000000000d02a508        0x0 ../../spresense-exported-sdk/nuttx/libs/libapps.a(nsh_fsutils.o)
 .bss           0x000000000d02a508        0x0 ../../spresense-exported-sdk/nuttx/libs/libapps.a(nsh_builtin.o)
 .bss           0x000000000d02a508        0x0 ../../spresense-exported-sdk/nuttx/libs/libapps.a(nsh_netcmds.o)
 .bss           0x000000000d02a508        0x0 ../../spresense-exported-sdk/nuttx/libs/libapps.a(nsh_mntcmds.o)
 .bss           0x000000000d02a508        0x0 ../../spresense-exported-sdk/nuttx/libs/libapps.a(nsh_consolemain.o)
 .bss           0x000000000d02a508        0x0 ../../spresense-exported-sdk/nuttx/libs/libapps.a(nsh_test.o)
 .bss           0x000000000d02a508        0x0 ../../spresense-exported-sdk/nuttx/libs/libapps.a(exec_builtin.o)
 .bss           0x000000000d02a508        0x0 ../../spresense-exported-sdk/nuttx/libs/libapps.a(readline_common.o)
 .bss.g_cmd_history
                0x000000000d02a508      0xa00 ../../spresense-exported-sdk/nuttx/libs/libapps.a(readline_common.o)
 .bss.g_cmd_history_len
                0x000000000d02af08        0x4 ../../spresense-exported-sdk/nuttx/libs/libapps.a(readline_common.o)
 .bss.g_extmatch_vtbl
                0x000000000d02af0c        0x4 ../../spresense-exported-sdk/nuttx/libs/libapps.a(readline_common.o)
 .bss.g_readline_prompt
                0x000000000d02af10        0x4 ../../spresense-exported-sdk/nuttx/libs/libapps.a(readline_common.o)
 .bss           0x000000000d02af14        0x0 ../../spresense-exported-sdk/nuttx/libs/libapps.a(netlib_ipv4addrconv.o)
 .bss           0x000000000d02af14        0x0 ../../spresense-exported-sdk/nuttx/libs/libapps.a(netlib_ethaddrconv.o)
 .bss           0x000000000d02af14        0x0 ../../spresense-exported-sdk/nuttx/libs/libapps.a(netlib_setifstatus.o)
 .bss           0x000000000d02af14        0x0 ../../spresense-exported-sdk/nuttx/libs/libapps.a(netlib_setmacaddr.o)
 .bss           0x000000000d02af14        0x0 ../../spresense-exported-sdk/nuttx/libs/libapps.a(netinit.o)
 .bss           0x000000000d02af14        0x0 ../../spresense-exported-sdk/nuttx/libs/libapps.a(mksmartfs.o)
 .bss           0x000000000d02af14        0x0 ../../spresense-exported-sdk/nuttx/libs/libapps.a(mkfatfs.o)
 .bss           0x000000000d02af14        0x0 ../../spresense-exported-sdk/nuttx/libs/libapps.a(configfat.o)
 .bss           0x000000000d02af14        0x0 ../../spresense-exported-sdk/nuttx/libs/libapps.a(writefat.o)
 .bss           0x000000000d02af14        0x0 ../../spresense-exported-sdk/nuttx/libs/libapps.a(nsh_console.o)
 .bss           0x000000000d02af14        0x0 ../../spresense-exported-sdk/nuttx/libs/libapps.a(nsh_script.o)
 .bss           0x000000000d02af14        0x0 ../../spresense-exported-sdk/nuttx/libs/libapps.a(nsh_session.o)
 .bss           0x000000000d02af14        0x0 ../../spresense-exported-sdk/nuttx/libs/libapps.a(readline.o)
 .bss           0x000000000d02af14        0x0 ../../spresense-exported-sdk/nuttx/libs/libnuttx.a(sched-clock_settime.o)
 .bss           0x000000000d02af14        0x0 ../../spresense-exported-sdk/nuttx/libs/libnuttx.a(sched-env_getenv.o)
 .bss           0x000000000d02af14        0x0 ../../spresense-exported-sdk/nuttx/libs/libnuttx.a(sched-env_setenv.o)
 .bss           0x000000000d02af14        0x0 ../../spresense-exported-sdk/nuttx/libs/libnuttx.a(sched-env_unsetenv.o)
 .bss           0x000000000d02af14        0x0 ../../spresense-exported-sdk/nuttx/libs/libnuttx.a(sched-pthread_create.o)
 .bss           0x000000000d02af14        0x0 ../../spresense-exported-sdk/nuttx/libs/libnuttx.a(sched-pthread_detach.o)
 .bss           0x000000000d02af14        0x0 ../../spresense-exported-sdk/nuttx/libs/libnuttx.a(sched-pthread_exit.o)
 .bss           0x000000000d02af14        0x0 ../../spresense-exported-sdk/nuttx/libs/libnuttx.a(sched-pthread_findjoininfo.o)
 .bss           0x000000000d02af14        0x0 ../../spresense-exported-sdk/nuttx/libs/libnuttx.a(sched-pthread_initialize.o)
 .bss           0x000000000d02af14        0x0 ../../spresense-exported-sdk/nuttx/libs/libnuttx.a(sched-pthread_mutexinconsistent.o)
 .bss           0x000000000d02af14        0x0 ../../spresense-exported-sdk/nuttx/libs/libnuttx.a(sched-sched_getparam.o)
 .bss           0x000000000d02af14        0x0 ../../spresense-exported-sdk/nuttx/libs/libnuttx.a(sched-sched_getscheduler.o)
 .bss           0x000000000d02af14        0x0 ../../spresense-exported-sdk/nuttx/libs/libnuttx.a(sched-sched_setparam.o)
 .bss           0x000000000d02af14        0x0 ../../spresense-exported-sdk/nuttx/libs/libnuttx.a(sched-sched_setpriority.o)
 .bss           0x000000000d02af14        0x0 ../../spresense-exported-sdk/nuttx/libs/libnuttx.a(sched-sched_waitpid.o)
 .bss           0x000000000d02af14        0x0 ../../spresense-exported-sdk/nuttx/libs/libnuttx.a(sched-task_spawn.o)
 .bss           0x000000000d02af14        0x0 ../../spresense-exported-sdk/nuttx/libs/libnuttx.a(sched-task_spawnparms.o)
 .bss           0x000000000d02af14        0x0 ../../spresense-exported-sdk/nuttx/libs/libnuttx.a(boards-boardctl.o)
 .bss           0x000000000d02af14        0x0 ../../spresense-exported-sdk/nuttx/libs/libnuttx.a(c-lib_asprintf.o)
 .bss           0x000000000d02af14        0x0 ../../spresense-exported-sdk/nuttx/libs/libnuttx.a(c-lib_builtin_forindex.o)
 .bss           0x000000000d02af14        0x0 ../../spresense-exported-sdk/nuttx/libs/libnuttx.a(c-lib_builtin_getname.o)
 .bss           0x000000000d02af14        0x0 ../../spresense-exported-sdk/nuttx/libs/libnuttx.a(c-lib_builtin_isavail.o)
 .bss           0x000000000d02af14        0x0 ../../spresense-exported-sdk/nuttx/libs/libnuttx.a(c-lib_chdir.o)
 .bss           0x000000000d02af14        0x0 ../../spresense-exported-sdk/nuttx/libs/libnuttx.a(c-lib_dirname.o)
 .bss.g_retchar
                0x000000000d02af14        0x2 ../../spresense-exported-sdk/nuttx/libs/libnuttx.a(c-lib_dirname.o)
 .bss           0x000000000d02af16        0x0 ../../spresense-exported-sdk/nuttx/libs/libnuttx.a(c-lib_fclose.o)
 .bss           0x000000000d02af16        0x0 ../../spresense-exported-sdk/nuttx/libs/libnuttx.a(c-lib_fflush.o)
 .bss           0x000000000d02af16        0x0 ../../spresense-exported-sdk/nuttx/libs/libnuttx.a(c-lib_fgets.o)
 .bss           0x000000000d02af16        0x0 ../../spresense-exported-sdk/nuttx/libs/libnuttx.a(c-lib_fopen.o)
 .bss           0x000000000d02af16        0x0 ../../spresense-exported-sdk/nuttx/libs/libnuttx.a(c-lib_fprintf.o)
 .bss           0x000000000d02af16        0x0 ../../spresense-exported-sdk/nuttx/libs/libnuttx.a(c-lib_fputs.o)
 .bss           0x000000000d02af16        0x0 ../../spresense-exported-sdk/nuttx/libs/libnuttx.a(c-lib_ftell.o)
 .bss           0x000000000d02af16        0x0 ../../spresense-exported-sdk/nuttx/libs/libnuttx.a(c-lib_fwrite.o)
 .bss           0x000000000d02af16        0x0 ../../spresense-exported-sdk/nuttx/libs/libnuttx.a(c-lib_getopt.o)
 *fill*         0x000000000d02af16        0x2 
 .bss.g_argc    0x000000000d02af18        0x4 ../../spresense-exported-sdk/nuttx/libs/libnuttx.a(c-lib_getopt.o)
 .bss.g_argv    0x000000000d02af1c        0x4 ../../spresense-exported-sdk/nuttx/libs/libnuttx.a(c-lib_getopt.o)
 .bss.g_binitialized
                0x000000000d02af20        0x1 ../../spresense-exported-sdk/nuttx/libs/libnuttx.a(c-lib_getopt.o)
 *fill*         0x000000000d02af21        0x3 
 .bss.g_optptr  0x000000000d02af24        0x4 ../../spresense-exported-sdk/nuttx/libs/libnuttx.a(c-lib_getopt.o)
 .bss           0x000000000d02af28        0x0 ../../spresense-exported-sdk/nuttx/libs/libnuttx.a(c-lib_gmtimer.o)
 .bss           0x000000000d02af28        0x0 ../../spresense-exported-sdk/nuttx/libs/libnuttx.a(c-lib_isleapyear.o)
 .bss           0x000000000d02af28        0x0 ../../spresense-exported-sdk/nuttx/libs/libnuttx.a(c-lib_libfgets.o)
 .bss           0x000000000d02af28        0x0 ../../spresense-exported-sdk/nuttx/libs/libnuttx.a(c-lib_memcmp.o)
 .bss           0x000000000d02af28        0x0 ../../spresense-exported-sdk/nuttx/libs/libnuttx.a(c-lib_mkfifo.o)
 .bss           0x000000000d02af28        0x0 ../../spresense-exported-sdk/nuttx/libs/libnuttx.a(c-lib_mktime.o)
 .bss           0x000000000d02af28        0x0 ../../spresense-exported-sdk/nuttx/libs/libnuttx.a(c-lib_psa_init.o)
 .bss           0x000000000d02af28        0x0 ../../spresense-exported-sdk/nuttx/libs/libnuttx.a(c-lib_psa_setflags.o)
 .bss           0x000000000d02af28        0x0 ../../spresense-exported-sdk/nuttx/libs/libnuttx.a(c-lib_psa_setschedparam.o)
 .bss           0x000000000d02af28        0x0 ../../spresense-exported-sdk/nuttx/libs/libnuttx.a(c-lib_psa_setschedpolicy.o)
 .bss           0x000000000d02af28        0x0 ../../spresense-exported-sdk/nuttx/libs/libnuttx.a(c-lib_psa_setstacksize.o)
 .bss           0x000000000d02af28        0x0 ../../spresense-exported-sdk/nuttx/libs/libnuttx.a(c-lib_psfa_addopen.o)
 .bss           0x000000000d02af28        0x0 ../../spresense-exported-sdk/nuttx/libs/libnuttx.a(c-lib_psfa_destroy.o)
 .bss           0x000000000d02af28        0x0 ../../spresense-exported-sdk/nuttx/libs/libnuttx.a(c-lib_psfa_init.o)
 .bss           0x000000000d02af28        0x0 ../../spresense-exported-sdk/nuttx/libs/libnuttx.a(c-lib_sleep.o)
 .bss           0x000000000d02af28        0x0 ../../spresense-exported-sdk/nuttx/libs/libnuttx.a(c-lib_strcat.o)
 .bss           0x000000000d02af28        0x0 ../../spresense-exported-sdk/nuttx/libs/libnuttx.a(c-lib_strftime.o)
 .bss           0x000000000d02af28        0x0 ../../spresense-exported-sdk/nuttx/libs/libnuttx.a(c-lib_strncasecmp.o)
 .bss           0x000000000d02af28        0x0 ../../spresense-exported-sdk/nuttx/libs/libnuttx.a(c-lib_strtokr.o)
 .bss           0x000000000d02af28        0x0 ../../spresense-exported-sdk/nuttx/libs/libnuttx.a(c-lib_usleep.o)
 .bss           0x000000000d02af28        0x0 ../../spresense-exported-sdk/nuttx/libs/libnuttx.a(c-lib_utsname.o)
 .bss           0x000000000d02af28        0x0 ../../spresense-exported-sdk/nuttx/libs/libnuttx.a(c-lib_vasprintf.o)
 .bss           0x000000000d02af28        0x0 ../../spresense-exported-sdk/nuttx/libs/libnuttx.a(c-pthread_attr_init.o)
 .bss           0x000000000d02af28        0x0 ../../spresense-exported-sdk/nuttx/libs/libnuttx.a(c-pthread_attr_setschedparam.o)
 .bss           0x000000000d02af28        0x0 ../../spresense-exported-sdk/nuttx/libs/libnuttx.a(c-pthread_attr_setschedpolicy.o)
 .bss           0x000000000d02af28        0x0 ../../spresense-exported-sdk/nuttx/libs/libnuttx.a(c-sched_getprioritymax.o)
 .bss           0x000000000d02af28        0x0 ../../spresense-exported-sdk/nuttx/libs/libnuttx.a(c-sched_getprioritymin.o)
 .bss           0x000000000d02af28        0x0 ../../spresense-exported-sdk/nuttx/libs/libnuttx.a(arch-up_usestack.o)
 .bss           0x000000000d02af28        0x0 ../../spresense-exported-sdk/nuttx/libs/libnuttx.a(net-socket.o)
 .bss           0x000000000d02af28        0x0 ../../spresense-exported-sdk/nuttx/libs/libnuttx.a(net-usrsock_sockif.o)
 .bss           0x000000000d02af28        0x0 ../../spresense-exported-sdk/nuttx/libs/libnuttx.a(fs-fs_closedir.o)
 .bss           0x000000000d02af28        0x0 ../../spresense-exported-sdk/nuttx/libs/libnuttx.a(fs-fs_dup2.o)
 .bss           0x000000000d02af28        0x0 ../../spresense-exported-sdk/nuttx/libs/libnuttx.a(fs-fs_ioctl.o)
 .bss           0x000000000d02af28        0x0 ../../spresense-exported-sdk/nuttx/libs/libnuttx.a(fs-fs_mkdir.o)
 .bss           0x000000000d02af28        0x0 ../../spresense-exported-sdk/nuttx/libs/libnuttx.a(fs-fs_mount.o)
 .bss           0x000000000d02af28        0x0 ../../spresense-exported-sdk/nuttx/libs/libnuttx.a(fs-fs_opendir.o)
 .bss           0x000000000d02af28        0x0 ../../spresense-exported-sdk/nuttx/libs/libnuttx.a(fs-fs_readdir.o)
 .bss           0x000000000d02af28        0x0 ../../spresense-exported-sdk/nuttx/libs/libnuttx.a(fs-fs_read.o)
 .bss           0x000000000d02af28        0x0 ../../spresense-exported-sdk/nuttx/libs/libnuttx.a(fs-fs_rename.o)
 .bss           0x000000000d02af28        0x0 ../../spresense-exported-sdk/nuttx/libs/libnuttx.a(fs-fs_rmdir.o)
 .bss           0x000000000d02af28        0x0 ../../spresense-exported-sdk/nuttx/libs/libnuttx.a(fs-fs_romfs.o)
 .bss           0x000000000d02af28        0x0 ../../spresense-exported-sdk/nuttx/libs/libnuttx.a(fs-fs_romfsutil.o)
 .bss           0x000000000d02af28        0x0 ../../spresense-exported-sdk/nuttx/libs/libnuttx.a(fs-fs_umount2.o)
 .bss           0x000000000d02af28        0x0 ../../spresense-exported-sdk/nuttx/libs/libnuttx.a(fs-smartfs_smart.o)
 .bss.g_sem     0x000000000d02af28        0x2 ../../spresense-exported-sdk/nuttx/libs/libnuttx.a(fs-smartfs_smart.o)
 .bss.g_seminitialized
                0x000000000d02af2a        0x1 ../../spresense-exported-sdk/nuttx/libs/libnuttx.a(fs-smartfs_smart.o)
 .bss           0x000000000d02af2b        0x0 ../../spresense-exported-sdk/nuttx/libs/libnuttx.a(board-cxd56_appinit.o)
 .bss           0x000000000d02af2b        0x0 ../../spresense-exported-sdk/nuttx/libs/libnuttx.a(board-cxd56_bringup.o)
 .bss           0x000000000d02af2b        0x0 ../../spresense-exported-sdk/nuttx/libs/libnuttx.a(board-cxd56_clock.o)
 .bss           0x000000000d02af2b        0x0 ../../spresense-exported-sdk/nuttx/libs/libnuttx.a(board-cxd56_flash.o)
 .bss           0x000000000d02af2b        0x0 ../../spresense-exported-sdk/nuttx/libs/libnuttx.a(board-cxd56_i2cdev.o)
 .bss           0x000000000d02af2b        0x0 ../../spresense-exported-sdk/nuttx/libs/libnuttx.a(board-cxd56_ioctl.o)
 .bss           0x000000000d02af2b        0x0 ../../spresense-exported-sdk/nuttx/libs/libnuttx.a(board-cxd56_power.o)
 .bss.g_used_lna
                0x000000000d02af2b        0x1 ../../spresense-exported-sdk/nuttx/libs/libnuttx.a(board-cxd56_power.o)
 .bss           0x000000000d02af2c        0x0 ../../spresense-exported-sdk/nuttx/libs/libnuttx.a(board-cxd56_pwm.o)
 .bss.initialized.7182
                0x000000000d02af2c        0x1 ../../spresense-exported-sdk/nuttx/libs/libnuttx.a(board-cxd56_pwm.o)
 .bss           0x000000000d02af2d        0x0 ../../spresense-exported-sdk/nuttx/libs/libnuttx.a(board-cxd56_uid.o)
 .bss           0x000000000d02af2d        0x0 ../../spresense-exported-sdk/nuttx/libs/libnuttx.a(board-cxd56_usbmsc.o)
 .bss           0x000000000d02af2d        0x0 ../../spresense-exported-sdk/nuttx/libs/libnuttx.a(sched-env_findvar.o)
 .bss           0x000000000d02af2d        0x0 ../../spresense-exported-sdk/nuttx/libs/libnuttx.a(sched-env_removevar.o)
 .bss           0x000000000d02af2d        0x0 ../../spresense-exported-sdk/nuttx/libs/libnuttx.a(sched-group_join.o)
 .bss           0x000000000d02af2d        0x0 ../../spresense-exported-sdk/nuttx/libs/libnuttx.a(sched-pthread_completejoin.o)
 .bss           0x000000000d02af2d        0x0 ../../spresense-exported-sdk/nuttx/libs/libnuttx.a(sched-sched_setscheduler.o)
 .bss           0x000000000d02af2d        0x0 ../../spresense-exported-sdk/nuttx/libs/libnuttx.a(sched-task_getgroup.o)
 .bss           0x000000000d02af2d        0x0 ../../spresense-exported-sdk/nuttx/libs/libnuttx.a(sched-task_reparent.o)
 .bss           0x000000000d02af2d        0x0 ../../spresense-exported-sdk/nuttx/libs/libnuttx.a(drivers-cdcacm.o)
 .bss           0x000000000d02af2d        0x0 ../../spresense-exported-sdk/nuttx/libs/libnuttx.a(drivers-fifo.o)
 .bss           0x000000000d02af2d        0x0 ../../spresense-exported-sdk/nuttx/libs/libnuttx.a(drivers-i2c_driver.o)
 .bss           0x000000000d02af2d        0x0 ../../spresense-exported-sdk/nuttx/libs/libnuttx.a(drivers-mkrd.o)
 .bss           0x000000000d02af2d        0x0 ../../spresense-exported-sdk/nuttx/libs/libnuttx.a(drivers-pipe_common.o)
 .bss           0x000000000d02af2d        0x0 ../../spresense-exported-sdk/nuttx/libs/libnuttx.a(drivers-ramdisk.o)
 .bss           0x000000000d02af2d        0x0 ../../spresense-exported-sdk/nuttx/libs/libnuttx.a(drivers-rtc.o)
 .bss           0x000000000d02af2d        0x0 ../../spresense-exported-sdk/nuttx/libs/libnuttx.a(drivers-smart.o)
 .bss           0x000000000d02af2d        0x0 ../../spresense-exported-sdk/nuttx/libs/libnuttx.a(drivers-usbmsc.o)
 .bss           0x000000000d02af2d        0x0 ../../spresense-exported-sdk/nuttx/libs/libnuttx.a(drivers-usbmsc_scsi.o)
 .bss           0x000000000d02af2d        0x0 ../../spresense-exported-sdk/nuttx/libs/libnuttx.a(c-lib_calendar2utc.o)
 .bss           0x000000000d02af2d        0x0 ../../spresense-exported-sdk/nuttx/libs/libnuttx.a(c-lib_crc8.o)
 .bss           0x000000000d02af2d        0x0 ../../spresense-exported-sdk/nuttx/libs/libnuttx.a(c-lib_daysbeforemonth.o)
 .bss           0x000000000d02af2d        0x0 ../../spresense-exported-sdk/nuttx/libs/libnuttx.a(c-lib_fgetc.o)
 .bss           0x000000000d02af2d        0x0 ../../spresense-exported-sdk/nuttx/libs/libnuttx.a(c-lib_gethostname.o)
 .bss.g_hostname
                0x000000000d02af2d       0x21 ../../spresense-exported-sdk/nuttx/libs/libnuttx.a(c-lib_gethostname.o)
                0x000000000d02af2d                g_hostname
 .bss           0x000000000d02af4e        0x0 ../../spresense-exported-sdk/nuttx/libs/libnuttx.a(c-lib_libfread.o)
 .bss           0x000000000d02af4e        0x0 ../../spresense-exported-sdk/nuttx/libs/libnuttx.a(c-lib_psfa_addaction.o)
 .bss           0x000000000d02af4e        0x0 ../../spresense-exported-sdk/nuttx/libs/libnuttx.a(arch-cxd56_i2c.o)
 *fill*         0x000000000d02af4e        0x2 
 .bss.wostop.8292
                0x000000000d02af50        0x4 ../../spresense-exported-sdk/nuttx/libs/libnuttx.a(arch-cxd56_i2c.o)
 .bss           0x000000000d02af54        0x0 ../../spresense-exported-sdk/nuttx/libs/libnuttx.a(arch-cxd56_rtc_lowerhalf.o)
 .bss           0x000000000d02af54        0x0 ../../spresense-exported-sdk/nuttx/libs/libnuttx.a(arch-cxd56_scu.o)
 .bss           0x000000000d02af54        0x0 ../../spresense-exported-sdk/nuttx/libs/libnuttx.a(arch-cxd56_sfc.o)
 .bss.g_sfc     0x000000000d02af54       0x20 ../../spresense-exported-sdk/nuttx/libs/libnuttx.a(arch-cxd56_sfc.o)
 .bss           0x000000000d02af74        0x0 ../../spresense-exported-sdk/nuttx/libs/libnuttx.a(arch-cxd56_sysctl.o)
 .bss.g_errcode
                0x000000000d02af74        0x4 ../../spresense-exported-sdk/nuttx/libs/libnuttx.a(arch-cxd56_sysctl.o)
 .bss.g_exc     0x000000000d02af78        0x2 ../../spresense-exported-sdk/nuttx/libs/libnuttx.a(arch-cxd56_sysctl.o)
 .bss.g_sync    0x000000000d02af7a        0x2 ../../spresense-exported-sdk/nuttx/libs/libnuttx.a(arch-cxd56_sysctl.o)
 .bss           0x000000000d02af7c        0x0 ../../spresense-exported-sdk/nuttx/libs/libnuttx.a(arch-cxd56_timer.o)
 .bss.g_tmrdevs
                0x000000000d02af7c       0x38 ../../spresense-exported-sdk/nuttx/libs/libnuttx.a(arch-cxd56_timer.o)
 .bss           0x000000000d02afb4        0x0 ../../spresense-exported-sdk/nuttx/libs/libnuttx.a(arch-cxd56_udmac.o)
 *fill*         0x000000000d02afb4       0x4c 
 .bss.g_descriptors
                0x000000000d02b000      0x200 ../../spresense-exported-sdk/nuttx/libs/libnuttx.a(arch-cxd56_udmac.o)
 .bss.g_dmac    0x000000000d02b200        0x4 ../../spresense-exported-sdk/nuttx/libs/libnuttx.a(arch-cxd56_udmac.o)
 .bss.g_dmach   0x000000000d02b204      0x200 ../../spresense-exported-sdk/nuttx/libs/libnuttx.a(arch-cxd56_udmac.o)
 .bss           0x000000000d02b404        0x0 ../../spresense-exported-sdk/nuttx/libs/libnuttx.a(arch-cxd56_uid.o)
 .bss           0x000000000d02b404        0x0 ../../spresense-exported-sdk/nuttx/libs/libnuttx.a(arch-cxd56_wdt.o)
 .bss.g_wdtdev  0x000000000d02b404       0x14 ../../spresense-exported-sdk/nuttx/libs/libnuttx.a(arch-cxd56_wdt.o)
 .bss           0x000000000d02b418        0x0 ../../spresense-exported-sdk/nuttx/libs/libnuttx.a(net-netdev_ioctl.o)
 .bss           0x000000000d02b418        0x0 ../../spresense-exported-sdk/nuttx/libs/libnuttx.a(net-net_dupsd2.o)
 .bss           0x000000000d02b418        0x0 ../../spresense-exported-sdk/nuttx/libs/libnuttx.a(net-net_sockif.o)
 .bss           0x000000000d02b418        0x0 ../../spresense-exported-sdk/nuttx/libs/libnuttx.a(net-recvfrom.o)
 .bss           0x000000000d02b418        0x0 ../../spresense-exported-sdk/nuttx/libs/libnuttx.a(net-usrsock_accept.o)
 .bss           0x000000000d02b418        0x0 ../../spresense-exported-sdk/nuttx/libs/libnuttx.a(net-usrsock_bind.o)
 .bss           0x000000000d02b418        0x0 ../../spresense-exported-sdk/nuttx/libs/libnuttx.a(net-usrsock_close.o)
 .bss           0x000000000d02b418        0x0 ../../spresense-exported-sdk/nuttx/libs/libnuttx.a(net-usrsock_connect.o)
 .bss           0x000000000d02b418        0x0 ../../spresense-exported-sdk/nuttx/libs/libnuttx.a(net-usrsock_getpeername.o)
 .bss           0x000000000d02b418        0x0 ../../spresense-exported-sdk/nuttx/libs/libnuttx.a(net-usrsock_getsockname.o)
 .bss           0x000000000d02b418        0x0 ../../spresense-exported-sdk/nuttx/libs/libnuttx.a(net-usrsock_ioctl.o)
 .bss           0x000000000d02b418        0x0 ../../spresense-exported-sdk/nuttx/libs/libnuttx.a(net-usrsock_listen.o)
 .bss           0x000000000d02b418        0x0 ../../spresense-exported-sdk/nuttx/libs/libnuttx.a(net-usrsock_poll.o)
 .bss           0x000000000d02b418        0x0 ../../spresense-exported-sdk/nuttx/libs/libnuttx.a(net-usrsock_recvfrom.o)
 .bss           0x000000000d02b418        0x0 ../../spresense-exported-sdk/nuttx/libs/libnuttx.a(net-usrsock_sendto.o)
 .bss           0x000000000d02b418        0x0 ../../spresense-exported-sdk/nuttx/libs/libnuttx.a(net-usrsock_socket.o)
 .bss           0x000000000d02b418        0x0 ../../spresense-exported-sdk/nuttx/libs/libnuttx.a(fs-fs_fat32.o)
 .bss           0x000000000d02b418        0x0 ../../spresense-exported-sdk/nuttx/libs/libnuttx.a(fs-fs_fat32util.o)
 .bss           0x000000000d02b418        0x0 ../../spresense-exported-sdk/nuttx/libs/libnuttx.a(fs-fs_unregisterblockdriver.o)
 .bss           0x000000000d02b418        0x0 ../../spresense-exported-sdk/nuttx/libs/libnuttx.a(fs-fs_unregisterdriver.o)
 .bss           0x000000000d02b418        0x0 ../../spresense-exported-sdk/nuttx/libs/libnuttx.a(drivers-cdcacm_desc.o)
 .bss           0x000000000d02b418        0x0 ../../spresense-exported-sdk/nuttx/libs/libnuttx.a(drivers-timer.o)
 .bss           0x000000000d02b418        0x0 ../../spresense-exported-sdk/nuttx/libs/libnuttx.a(drivers-usbmsc_desc.o)
 .bss           0x000000000d02b418        0x0 ../../spresense-exported-sdk/nuttx/libs/libnuttx.a(drivers-watchdog.o)
 .bss           0x000000000d02b418        0x0 ../../spresense-exported-sdk/nuttx/libs/libnuttx.a(arch-cxd56_scufifo.o)
 .bss           0x000000000d02b418        0x0 ../../spresense-exported-sdk/nuttx/libs/libnuttx.a(net-net_clone.o)
 .bss           0x000000000d02b418        0x0 ../../spresense-exported-sdk/nuttx/libs/libnuttx.a(fs-fs_fat32dirent.o)
 .bss           0x000000000d02b418        0x0 ../../spresense-exported-sdk/nuttx/libs/libapps.a(builtin_list.o)
 .bss           0x000000000d02b418        0x0 ../../spresense-exported-sdk/nuttx/libs/libapps.a(hello_main.o)
 .bss           0x000000000d02b418        0x0 ../../spresense-exported-sdk/nuttx/libs/libnuttx.a(c-lib_sin.o)
 .bss           0x000000000d02b418        0x0 ../../spresense-exported-sdk/nuttx/libs/libnuttx.a(c-lib_fmod.o)
 .bss           0x000000000d02b418        0x0 ../../spresense-exported-sdk/nuttx/libs/libnuttx.a(c-lib_modf.o)
 .bss           0x000000000d02b418        0x0 ../../spresense-exported-sdk/nuttx/libs/libnuttx.a(c-lib_fabs.o)
 *(.gnu.linkonce.b.*)
 *(COMMON)
 COMMON         0x000000000d02b418      0x148 ../../spresense-exported-sdk/nuttx/libs/libnuttx.a(sched-nx_start.o)
                0x000000000d02b418                g_waitingformqnotempty
                0x000000000d02b420                g_waitingforsemaphore
                0x000000000d02b428                g_readytorun
                0x000000000d02b430                g_waitingformqnotfull
                0x000000000d02b438                g_inactivetasks
                0x000000000d02b440                g_waitingforsignal
                0x000000000d02b448                g_pidhash
                0x000000000d02b548                g_pendingtasks
                0x000000000d02b550                g_lastpid
                0x000000000d02b552                g_nx_initstate
                0x000000000d02b554                g_delayed_kufree
                0x000000000d02b55c                g_running_tasks
 COMMON         0x000000000d02b560        0xc ../../spresense-exported-sdk/nuttx/libs/libnuttx.a(sched-clock_initialize.o)
                0x000000000d02b560                g_system_timer
                0x000000000d02b564                g_basetime
 COMMON         0x000000000d02b56c        0x4 ../../spresense-exported-sdk/nuttx/libs/libnuttx.a(sched-group_create.o)
                0x000000000d02b56c                g_grouphead
 COMMON         0x000000000d02b570      0x480 ../../spresense-exported-sdk/nuttx/libs/libnuttx.a(sched-irq_initialize.o)
                0x000000000d02b570                g_irqvector
 COMMON         0x000000000d02b9f0       0x18 ../../spresense-exported-sdk/nuttx/libs/libnuttx.a(sched-mq_initialize.o)
                0x000000000d02b9f0                g_msgfree
                0x000000000d02b9f8                g_msgfreeirq
                0x000000000d02ba00                g_desfree
 COMMON         0x000000000d02ba08       0x14 ../../spresense-exported-sdk/nuttx/libs/libnuttx.a(sched-wd_initialize.o)
                0x000000000d02ba08                g_wdfreelist
                0x000000000d02ba10                g_wdnfree
                0x000000000d02ba14                g_wdactivelist
 COMMON         0x000000000d02ba1c      0x144 ../../spresense-exported-sdk/nuttx/libs/libnuttx.a(mm-umm_globals.o)
                0x000000000d02ba1c                g_mmheap
 COMMON         0x000000000d02bb60        0x4 ../../spresense-exported-sdk/nuttx/libs/libnuttx.a(arch-cxd56_irq.o)
                0x000000000d02bb60                g_current_regs
 COMMON         0x000000000d02bb64        0xc ../../spresense-exported-sdk/nuttx/libs/libnuttx.a(sched-kwork_hpthread.o)
                0x000000000d02bb64                g_hpwork
 COMMON         0x000000000d02bb70       0x14 ../../spresense-exported-sdk/nuttx/libs/libnuttx.a(sched-kwork_lpthread.o)
                0x000000000d02bb70                g_lpwork
 COMMON         0x000000000d02bb84       0x28 ../../spresense-exported-sdk/nuttx/libs/libnuttx.a(sched-sig_initialize.o)
                0x000000000d02bb84                g_sigfreeaction
                0x000000000d02bb8c                g_sigpendingaction
                0x000000000d02bb94                g_sigpendingirqaction
                0x000000000d02bb9c                g_sigpendingirqsignal
                0x000000000d02bba4                g_sigpendingsignal
 COMMON         0x000000000d02bbac       0x1c ../../spresense-exported-sdk/nuttx/libs/libnuttx.a(sched-task_spawnparms.o)
                0x000000000d02bbac                g_spawn_parms
 COMMON         0x000000000d02bbc8        0x4 ../../spresense-exported-sdk/nuttx/libs/libnuttx.a(c-lib_getopt.o)
                0x000000000d02bbc8                optarg
 COMMON         0x000000000d02bbcc        0x4 ../../spresense-exported-sdk/nuttx/libs/libnuttx.a(drivers-usbmsc.o)
                0x000000000d02bbcc                g_usbmsc_handoff
 COMMON         0x000000000d02bbd0      0x130 ../../spresense-exported-sdk/nuttx/libs/libnuttx.a(arch-cxd56_scu.o)
                0x000000000d02bbd0                g_scudev
 COMMON         0x000000000d02bd00       0x7c ../../spresense-exported-sdk/nuttx/libs/libnuttx.a(arch-cxd56_scufifo.o)
                0x000000000d02bd00                g_fifomem
                0x000000000d02bd7c                . = ALIGN (0x4)
                0x000000000d02bd7c                _ebss = ABSOLUTE (.)
                0x000000000d180000                PROVIDE (__stack = (ORIGIN (ram) + LENGTH (ram)))
                0x000000000d180000                __stack = (__stack - DEFINED (__reserved_ramsize)?__reserved_ramsize:0x0)
                0x0000000000000001                ASSERT ((_ebss < __stack), Error: Out of memory)

.stab
 *(.stab)

.stabstr
 *(.stabstr)

.stab.excl
 *(.stab.excl)

.stab.exclstr
 *(.stab.exclstr)

.stab.index
 *(.stab.index)

.stab.indexstr
 *(.stab.indexstr)

.comment        0x0000000000000000       0xd8
 *(.comment)
 .comment       0x0000000000000000       0x59 CMakeFiles/hellocpp.dir/HelloWorld.cpp.obj
                                         0x5a (size before relaxing)
 .comment       0x0000000000000059       0x5a CMakeFiles/hellocpp.dir/main.cpp.obj
 .comment       0x0000000000000059       0x5a ../../spresense-exported-sdk/nuttx/libs/libnuttx.a(c-lib_printf.o)
 .comment       0x0000000000000059       0x5a ../../spresense-exported-sdk/nuttx/libs/libnuttx.a(c-lib_vfprintf.o)
 .comment       0x0000000000000059       0x5a ../../spresense-exported-sdk/nuttx/libs/libnuttx.a(arch-cxd56_start.o)
 .comment       0x0000000000000059       0x5a ../../spresense-exported-sdk/nuttx/libs/libnuttx.a(arch-cxd56_uart.o)
 .comment       0x0000000000000059       0x5a ../../spresense-exported-sdk/nuttx/libs/libnuttx.a(arch-up_vectors.o)
 .comment       0x0000000000000059       0x5a ../../spresense-exported-sdk/nuttx/libs/libnuttx.a(board-cxd56_boot.o)
 .comment       0x0000000000000059       0x5a ../../spresense-exported-sdk/nuttx/libs/libnuttx.a(board-cxd56_main.o)
 .comment       0x0000000000000059       0x5a ../../spresense-exported-sdk/nuttx/libs/libnuttx.a(sched-nx_start.o)
 .comment       0x0000000000000059       0x5a ../../spresense-exported-sdk/nuttx/libs/libnuttx.a(sched-sched_getstreams.o)
 .comment       0x0000000000000059       0x5a ../../spresense-exported-sdk/nuttx/libs/libnuttx.a(drivers-syslog_initialize.o)
 .comment       0x0000000000000059       0x5a ../../spresense-exported-sdk/nuttx/libs/libnuttx.a(c-dq_addfirst.o)
 .comment       0x0000000000000059       0x5a ../../spresense-exported-sdk/nuttx/libs/libnuttx.a(c-lib_filesem.o)
 .comment       0x0000000000000059       0x5a ../../spresense-exported-sdk/nuttx/libs/libnuttx.a(c-lib_libvsprintf.o)
 .comment       0x0000000000000059       0x5a ../../spresense-exported-sdk/nuttx/libs/libnuttx.a(c-lib_memset.o)
 .comment       0x0000000000000059       0x5a ../../spresense-exported-sdk/nuttx/libs/libnuttx.a(c-lib_stdoutstream.o)
 .comment       0x0000000000000059       0x5a ../../spresense-exported-sdk/nuttx/libs/libnuttx.a(c-lib_strncpy.o)
 .comment       0x0000000000000059       0x5a ../../spresense-exported-sdk/nuttx/libs/libnuttx.a(c-lib_strnlen.o)
 .comment       0x0000000000000059       0x5a ../../spresense-exported-sdk/nuttx/libs/libnuttx.a(c-lib_ultoa_invert.o)
 .comment       0x0000000000000059       0x5a ../../spresense-exported-sdk/nuttx/libs/libnuttx.a(c-sem_init.o)
 .comment       0x0000000000000059       0x5a ../../spresense-exported-sdk/nuttx/libs/libnuttx.a(mm-umm_initialize.o)
 .comment       0x0000000000000059       0x5a ../../spresense-exported-sdk/nuttx/libs/libnuttx.a(arch-cxd56_allocateheap.o)
 .comment       0x0000000000000059       0x5a ../../spresense-exported-sdk/nuttx/libs/libnuttx.a(arch-cxd56_clock.o)
 .comment       0x0000000000000059       0x5a ../../spresense-exported-sdk/nuttx/libs/libnuttx.a(arch-cxd56_delay.o)
 .comment       0x0000000000000059       0x5a ../../spresense-exported-sdk/nuttx/libs/libnuttx.a(arch-cxd56_idle.o)
 .comment       0x0000000000000059       0x5a ../../spresense-exported-sdk/nuttx/libs/libnuttx.a(arch-cxd56_pinconfig.o)
 .comment       0x0000000000000059       0x5a ../../spresense-exported-sdk/nuttx/libs/libnuttx.a(arch-cxd56_powermgr.o)
 .comment       0x0000000000000059       0x5a ../../spresense-exported-sdk/nuttx/libs/libnuttx.a(arch-cxd56_serial.o)
 .comment       0x0000000000000059       0x5a ../../spresense-exported-sdk/nuttx/libs/libnuttx.a(arch-up_initialize.o)
 .comment       0x0000000000000059       0x5a ../../spresense-exported-sdk/nuttx/libs/libnuttx.a(arch-up_initialstate.o)
 .comment       0x0000000000000059       0x5a ../../spresense-exported-sdk/nuttx/libs/libnuttx.a(arch-up_interruptcontext.o)
 .comment       0x0000000000000059       0x5a ../../spresense-exported-sdk/nuttx/libs/libnuttx.a(arch-up_modifyreg32.o)
 .comment       0x0000000000000059       0x5a ../../spresense-exported-sdk/nuttx/libs/libnuttx.a(net-net_initialize.o)
 .comment       0x0000000000000059       0x5a ../../spresense-exported-sdk/nuttx/libs/libnuttx.a(net-net_lock.o)
 .comment       0x0000000000000059       0x5a ../../spresense-exported-sdk/nuttx/libs/libnuttx.a(net-usrsock_conn.o)
 .comment       0x0000000000000059       0x5a ../../spresense-exported-sdk/nuttx/libs/libnuttx.a(net-usrsock_dev.o)
 .comment       0x0000000000000059       0x5a ../../spresense-exported-sdk/nuttx/libs/libnuttx.a(net-usrsock_event.o)
 .comment       0x0000000000000059       0x5a ../../spresense-exported-sdk/nuttx/libs/libnuttx.a(fs-fs_initialize.o)
 .comment       0x0000000000000059       0x5a ../../spresense-exported-sdk/nuttx/libs/libnuttx.a(fs-fs_inode.o)
 .comment       0x0000000000000059       0x5a ../../spresense-exported-sdk/nuttx/libs/libnuttx.a(fs-fs_registerdriver.o)
 .comment       0x0000000000000059       0x5a ../../spresense-exported-sdk/nuttx/libs/libnuttx.a(fs-mq_open.o)
 .comment       0x0000000000000059       0x5a ../../spresense-exported-sdk/nuttx/libs/libnuttx.a(binfmt-binfmt_initialize.o)
 .comment       0x0000000000000059       0x5a ../../spresense-exported-sdk/nuttx/libs/libnuttx.a(sched-clock_gettime.o)
 .comment       0x0000000000000059       0x5a ../../spresense-exported-sdk/nuttx/libs/libnuttx.a(sched-clock_initialize.o)
 .comment       0x0000000000000059       0x5a ../../spresense-exported-sdk/nuttx/libs/libnuttx.a(sched-clock_systimespec.o)
 .comment       0x0000000000000059       0x5a ../../spresense-exported-sdk/nuttx/libs/libnuttx.a(sched-clock_ticks2time.o)
 .comment       0x0000000000000059       0x5a ../../spresense-exported-sdk/nuttx/libs/libnuttx.a(sched-errno_getptr.o)
 .comment       0x0000000000000059       0x5a ../../spresense-exported-sdk/nuttx/libs/libnuttx.a(sched-group_create.o)
 .comment       0x0000000000000059       0x5a ../../spresense-exported-sdk/nuttx/libs/libnuttx.a(sched-group_find.o)
 .comment       0x0000000000000059       0x5a ../../spresense-exported-sdk/nuttx/libs/libnuttx.a(sched-group_setupidlefiles.o)
 .comment       0x0000000000000059       0x5a ../../spresense-exported-sdk/nuttx/libs/libnuttx.a(sched-group_setupstreams.o)
 .comment       0x0000000000000059       0x5a ../../spresense-exported-sdk/nuttx/libs/libnuttx.a(sched-irq_attach.o)
 .comment       0x0000000000000059       0x5a ../../spresense-exported-sdk/nuttx/libs/libnuttx.a(sched-irq_initialize.o)
 .comment       0x0000000000000059       0x5a ../../spresense-exported-sdk/nuttx/libs/libnuttx.a(sched-irq_unexpectedisr.o)
 .comment       0x0000000000000059       0x5a ../../spresense-exported-sdk/nuttx/libs/libnuttx.a(sched-mq_descreate.o)
 .comment       0x0000000000000059       0x5a ../../spresense-exported-sdk/nuttx/libs/libnuttx.a(sched-mq_initialize.o)
 .comment       0x0000000000000059       0x5a ../../spresense-exported-sdk/nuttx/libs/libnuttx.a(sched-mq_msgqalloc.o)
 .comment       0x0000000000000059       0x5a ../../spresense-exported-sdk/nuttx/libs/libnuttx.a(sched-mq_msgqfree.o)
 .comment       0x0000000000000059       0x5a ../../spresense-exported-sdk/nuttx/libs/libnuttx.a(sched-mq_receive.o)
 .comment       0x0000000000000059       0x5a ../../spresense-exported-sdk/nuttx/libs/libnuttx.a(sched-mq_send.o)
 .comment       0x0000000000000059       0x5a ../../spresense-exported-sdk/nuttx/libs/libnuttx.a(sched-mq_sndinternal.o)
 .comment       0x0000000000000059       0x5a ../../spresense-exported-sdk/nuttx/libs/libnuttx.a(sched-nx_bringup.o)
 .comment       0x0000000000000059       0x5a ../../spresense-exported-sdk/nuttx/libs/libnuttx.a(sched-sched_free.o)
 .comment       0x0000000000000059       0x5a ../../spresense-exported-sdk/nuttx/libs/libnuttx.a(sched-sched_lock.o)
 .comment       0x0000000000000059       0x5a ../../spresense-exported-sdk/nuttx/libs/libnuttx.a(sched-sched_self.o)
 .comment       0x0000000000000059       0x5a ../../spresense-exported-sdk/nuttx/libs/libnuttx.a(sched-sched_unlock.o)
 .comment       0x0000000000000059       0x5a ../../spresense-exported-sdk/nuttx/libs/libnuttx.a(sched-sem_destroy.o)
 .comment       0x0000000000000059       0x5a ../../spresense-exported-sdk/nuttx/libs/libnuttx.a(sched-sem_post.o)
 .comment       0x0000000000000059       0x5a ../../spresense-exported-sdk/nuttx/libs/libnuttx.a(sched-sem_timedwait.o)
 .comment       0x0000000000000059       0x5a ../../spresense-exported-sdk/nuttx/libs/libnuttx.a(sched-sem_timeout.o)
 .comment       0x0000000000000059       0x5a ../../spresense-exported-sdk/nuttx/libs/libnuttx.a(sched-sem_trywait.o)
 .comment       0x0000000000000059       0x5a ../../spresense-exported-sdk/nuttx/libs/libnuttx.a(sched-sem_waitirq.o)
 .comment       0x0000000000000059       0x5a ../../spresense-exported-sdk/nuttx/libs/libnuttx.a(sched-sem_wait.o)
 .comment       0x0000000000000059       0x5a ../../spresense-exported-sdk/nuttx/libs/libnuttx.a(sched-sig_notification.o)
 .comment       0x0000000000000059       0x5a ../../spresense-exported-sdk/nuttx/libs/libnuttx.a(sched-task_create.o)
 .comment       0x0000000000000059       0x5a ../../spresense-exported-sdk/nuttx/libs/libnuttx.a(sched-task_getpid.o)
 .comment       0x0000000000000059       0x5a ../../spresense-exported-sdk/nuttx/libs/libnuttx.a(sched-task_setup.o)
 .comment       0x0000000000000059       0x5a ../../spresense-exported-sdk/nuttx/libs/libnuttx.a(sched-task_start.o)
 .comment       0x0000000000000059       0x5a ../../spresense-exported-sdk/nuttx/libs/libnuttx.a(sched-wd_cancel.o)
 .comment       0x0000000000000059       0x5a ../../spresense-exported-sdk/nuttx/libs/libnuttx.a(sched-wd_create.o)
 .comment       0x0000000000000059       0x5a ../../spresense-exported-sdk/nuttx/libs/libnuttx.a(sched-wd_delete.o)
 .comment       0x0000000000000059       0x5a ../../spresense-exported-sdk/nuttx/libs/libnuttx.a(sched-wd_initialize.o)
 .comment       0x0000000000000059       0x5a ../../spresense-exported-sdk/nuttx/libs/libnuttx.a(sched-wd_start.o)
 .comment       0x0000000000000059       0x5a ../../spresense-exported-sdk/nuttx/libs/libnuttx.a(drivers-dev_null.o)
 .comment       0x0000000000000059       0x5a ../../spresense-exported-sdk/nuttx/libs/libnuttx.a(drivers-serial_io.o)
 .comment       0x0000000000000059       0x5a ../../spresense-exported-sdk/nuttx/libs/libnuttx.a(drivers-serial.o)
 .comment       0x0000000000000059       0x5a ../../spresense-exported-sdk/nuttx/libs/libnuttx.a(drivers-syslog_consolechannel.o)
 .comment       0x0000000000000059       0x5a ../../spresense-exported-sdk/nuttx/libs/libnuttx.a(drivers-syslog_device.o)
 .comment       0x0000000000000059       0x5a ../../spresense-exported-sdk/nuttx/libs/libnuttx.a(c-dq_addlast.o)
 .comment       0x0000000000000059       0x5a ../../spresense-exported-sdk/nuttx/libs/libnuttx.a(c-dq_remfirst.o)
 .comment       0x0000000000000059       0x5a ../../spresense-exported-sdk/nuttx/libs/libnuttx.a(c-dq_rem.o)
 .comment       0x0000000000000059       0x5a ../../spresense-exported-sdk/nuttx/libs/libnuttx.a(c-lib_cfgetspeed.o)
 .comment       0x0000000000000059       0x5a ../../spresense-exported-sdk/nuttx/libs/libnuttx.a(c-lib_cfsetspeed.o)
 .comment       0x0000000000000059       0x5a ../../spresense-exported-sdk/nuttx/libs/libnuttx.a(c-lib_dtoa_engine.o)
 .comment       0x0000000000000059       0x5a ../../spresense-exported-sdk/nuttx/libs/libnuttx.a(c-lib_fputc.o)
 .comment       0x0000000000000059       0x5a ../../spresense-exported-sdk/nuttx/libs/libnuttx.a(c-lib_libfflush.o)
 .comment       0x0000000000000059       0x5a ../../spresense-exported-sdk/nuttx/libs/libnuttx.a(c-lib_libfwrite.o)
 .comment       0x0000000000000059       0x5a ../../spresense-exported-sdk/nuttx/libs/libnuttx.a(c-lib_libnoflush.o)
 .comment       0x0000000000000059       0x5a ../../spresense-exported-sdk/nuttx/libs/libnuttx.a(c-lib_memcpy.o)
 .comment       0x0000000000000059       0x5a ../../spresense-exported-sdk/nuttx/libs/libnuttx.a(c-lib_memmove.o)
 .comment       0x0000000000000059       0x5a ../../spresense-exported-sdk/nuttx/libs/libnuttx.a(c-lib_rdflush.o)
 .comment       0x0000000000000059       0x5a ../../spresense-exported-sdk/nuttx/libs/libnuttx.a(c-lib_snprintf.o)
 .comment       0x0000000000000059       0x5a ../../spresense-exported-sdk/nuttx/libs/libnuttx.a(c-lib_strcpy.o)
 .comment       0x0000000000000059       0x5a ../../spresense-exported-sdk/nuttx/libs/libnuttx.a(c-lib_strdup.o)
 .comment       0x0000000000000059       0x5a ../../spresense-exported-sdk/nuttx/libs/libnuttx.a(c-lib_stream.o)
 .comment       0x0000000000000059       0x5a ../../spresense-exported-sdk/nuttx/libs/libnuttx.a(c-lib_strlen.o)
 .comment       0x0000000000000059       0x5a ../../spresense-exported-sdk/nuttx/libs/libnuttx.a(c-sem_getvalue.o)
 .comment       0x0000000000000059       0x5a ../../spresense-exported-sdk/nuttx/libs/libnuttx.a(c-sem_setprotocol.o)
 .comment       0x0000000000000059       0x5a ../../spresense-exported-sdk/nuttx/libs/libnuttx.a(c-sq_addafter.o)
 .comment       0x0000000000000059       0x5a ../../spresense-exported-sdk/nuttx/libs/libnuttx.a(c-sq_addfirst.o)
 .comment       0x0000000000000059       0x5a ../../spresense-exported-sdk/nuttx/libs/libnuttx.a(c-sq_addlast.o)
 .comment       0x0000000000000059       0x5a ../../spresense-exported-sdk/nuttx/libs/libnuttx.a(c-sq_count.o)
 .comment       0x0000000000000059       0x5a ../../spresense-exported-sdk/nuttx/libs/libnuttx.a(c-sq_remafter.o)
 .comment       0x0000000000000059       0x5a ../../spresense-exported-sdk/nuttx/libs/libnuttx.a(c-sq_remfirst.o)
 .comment       0x0000000000000059       0x5a ../../spresense-exported-sdk/nuttx/libs/libnuttx.a(c-sq_rem.o)
 .comment       0x0000000000000059       0x5a ../../spresense-exported-sdk/nuttx/libs/libnuttx.a(mm-mm_initialize.o)
 .comment       0x0000000000000059       0x5a ../../spresense-exported-sdk/nuttx/libs/libnuttx.a(mm-mm_sem.o)
 .comment       0x0000000000000059       0x5a ../../spresense-exported-sdk/nuttx/libs/libnuttx.a(mm-umm_free.o)
 .comment       0x0000000000000059       0x5a ../../spresense-exported-sdk/nuttx/libs/libnuttx.a(mm-umm_globals.o)
 .comment       0x0000000000000059       0x5a ../../spresense-exported-sdk/nuttx/libs/libnuttx.a(mm-umm_malloc.o)
 .comment       0x0000000000000059       0x5a ../../spresense-exported-sdk/nuttx/libs/libnuttx.a(mm-umm_sem.o)
 .comment       0x0000000000000059       0x5a ../../spresense-exported-sdk/nuttx/libs/libnuttx.a(mm-umm_zalloc.o)
 .comment       0x0000000000000059       0x5a ../../spresense-exported-sdk/nuttx/libs/libnuttx.a(arch-cxd56_icc.o)
 .comment       0x0000000000000059       0x5a ../../spresense-exported-sdk/nuttx/libs/libnuttx.a(arch-cxd56_irq.o)
 .comment       0x0000000000000059       0x5a ../../spresense-exported-sdk/nuttx/libs/libnuttx.a(arch-cxd56_pmic.o)
 .comment       0x0000000000000059       0x5a ../../spresense-exported-sdk/nuttx/libs/libnuttx.a(arch-cxd56_rtc.o)
 .comment       0x0000000000000059       0x5a ../../spresense-exported-sdk/nuttx/libs/libnuttx.a(arch-cxd56_timerisr.o)
 .comment       0x0000000000000059       0x5a ../../spresense-exported-sdk/nuttx/libs/libnuttx.a(arch-cxd56_usbdev.o)
 .comment       0x0000000000000059       0x5a ../../spresense-exported-sdk/nuttx/libs/libnuttx.a(arch-up_assert.o)
 .comment       0x0000000000000059       0x5a ../../spresense-exported-sdk/nuttx/libs/libnuttx.a(arch-up_blocktask.o)
 .comment       0x0000000000000059       0x5a ../../spresense-exported-sdk/nuttx/libs/libnuttx.a(arch-up_checkstack.o)
 .comment       0x0000000000000059       0x5a ../../spresense-exported-sdk/nuttx/libs/libnuttx.a(arch-up_copyfullstate.o)
 .comment       0x0000000000000059       0x5a ../../spresense-exported-sdk/nuttx/libs/libnuttx.a(arch-up_createstack.o)
 .comment       0x0000000000000059       0x5a ../../spresense-exported-sdk/nuttx/libs/libnuttx.a(arch-up_doirq.o)
 .comment       0x0000000000000059       0x5a ../../spresense-exported-sdk/nuttx/libs/libnuttx.a(arch-up_hardfault.o)
 .comment       0x0000000000000059       0x5a ../../spresense-exported-sdk/nuttx/libs/libnuttx.a(arch-up_releasepending.o)
 .comment       0x0000000000000059       0x5a ../../spresense-exported-sdk/nuttx/libs/libnuttx.a(arch-up_releasestack.o)
 .comment       0x0000000000000059       0x5a ../../spresense-exported-sdk/nuttx/libs/libnuttx.a(arch-up_stackframe.o)
 .comment       0x0000000000000059       0x5a ../../spresense-exported-sdk/nuttx/libs/libnuttx.a(arch-up_svcall.o)
 .comment       0x0000000000000059       0x5a ../../spresense-exported-sdk/nuttx/libs/libnuttx.a(arch-up_unblocktask.o)
 .comment       0x0000000000000059       0x5a ../../spresense-exported-sdk/nuttx/libs/libnuttx.a(net-devif_callback.o)
 .comment       0x0000000000000059       0x5a ../../spresense-exported-sdk/nuttx/libs/libnuttx.a(net-devif_initialize.o)
 .comment       0x0000000000000059       0x5a ../../spresense-exported-sdk/nuttx/libs/libnuttx.a(net-netdev_verify.o)
 .comment       0x0000000000000059       0x5a ../../spresense-exported-sdk/nuttx/libs/libnuttx.a(net-net_sockets.o)
 .comment       0x0000000000000059       0x5a ../../spresense-exported-sdk/nuttx/libs/libnuttx.a(fs-fs_close.o)
 .comment       0x0000000000000059       0x5a ../../spresense-exported-sdk/nuttx/libs/libnuttx.a(fs-fs_dupfd2.o)
 .comment       0x0000000000000059       0x5a ../../spresense-exported-sdk/nuttx/libs/libnuttx.a(fs-fs_fdopen.o)
 .comment       0x0000000000000059       0x5a ../../spresense-exported-sdk/nuttx/libs/libnuttx.a(fs-fs_fileopen.o)
 .comment       0x0000000000000059       0x5a ../../spresense-exported-sdk/nuttx/libs/libnuttx.a(fs-fs_files.o)
 .comment       0x0000000000000059       0x5a ../../spresense-exported-sdk/nuttx/libs/libnuttx.a(fs-fs_getfilep.o)
 .comment       0x0000000000000059       0x5a ../../spresense-exported-sdk/nuttx/libs/libnuttx.a(fs-fs_inodeaddref.o)
 .comment       0x0000000000000059       0x5a ../../spresense-exported-sdk/nuttx/libs/libnuttx.a(fs-fs_inodefind.o)
 .comment       0x0000000000000059       0x5a ../../spresense-exported-sdk/nuttx/libs/libnuttx.a(fs-fs_inoderelease.o)
 .comment       0x0000000000000059       0x5a ../../spresense-exported-sdk/nuttx/libs/libnuttx.a(fs-fs_inodereserve.o)
 .comment       0x0000000000000059       0x5a ../../spresense-exported-sdk/nuttx/libs/libnuttx.a(fs-fs_inodesearch.o)
 .comment       0x0000000000000059       0x5a ../../spresense-exported-sdk/nuttx/libs/libnuttx.a(fs-fs_open.o)
 .comment       0x0000000000000059       0x5a ../../spresense-exported-sdk/nuttx/libs/libnuttx.a(fs-fs_procfs.o)
 .comment       0x0000000000000059       0x5a ../../spresense-exported-sdk/nuttx/libs/libnuttx.a(fs-fs_procfsproc.o)
 .comment       0x0000000000000059       0x5a ../../spresense-exported-sdk/nuttx/libs/libnuttx.a(fs-fs_procfsuptime.o)
 .comment       0x0000000000000059       0x5a ../../spresense-exported-sdk/nuttx/libs/libnuttx.a(fs-fs_procfsutil.o)
 .comment       0x0000000000000059       0x5a ../../spresense-exported-sdk/nuttx/libs/libnuttx.a(fs-fs_write.o)
 .comment       0x0000000000000059       0x5a ../../spresense-exported-sdk/nuttx/libs/libnuttx.a(fs-smartfs_procfs.o)
 .comment       0x0000000000000059       0x5a ../../spresense-exported-sdk/nuttx/libs/libnuttx.a(fs-smartfs_utils.o)
 .comment       0x0000000000000059       0x5a ../../spresense-exported-sdk/nuttx/libs/libnuttx.a(board-cxd56_crashdump.o)
 .comment       0x0000000000000059       0x5a ../../spresense-exported-sdk/nuttx/libs/libnuttx.a(sched-clock_abstime2ticks.o)
 .comment       0x0000000000000059       0x5a ../../spresense-exported-sdk/nuttx/libs/libnuttx.a(sched-clock_time2ticks.o)
 .comment       0x0000000000000059       0x5a ../../spresense-exported-sdk/nuttx/libs/libnuttx.a(sched-env_dup.o)
 .comment       0x0000000000000059       0x5a ../../spresense-exported-sdk/nuttx/libs/libnuttx.a(sched-exit.o)
 .comment       0x0000000000000059       0x5a ../../spresense-exported-sdk/nuttx/libs/libnuttx.a(sched-group_childstatus.o)
 .comment       0x0000000000000059       0x5a ../../spresense-exported-sdk/nuttx/libs/libnuttx.a(sched-group_setuptaskfiles.o)
 .comment       0x0000000000000059       0x5a ../../spresense-exported-sdk/nuttx/libs/libnuttx.a(sched-irq_dispatch.o)
 .comment       0x0000000000000059       0x5a ../../spresense-exported-sdk/nuttx/libs/libnuttx.a(sched-kwork_hpthread.o)
 .comment       0x0000000000000059       0x5a ../../spresense-exported-sdk/nuttx/libs/libnuttx.a(sched-kwork_lpthread.o)
 .comment       0x0000000000000059       0x5a ../../spresense-exported-sdk/nuttx/libs/libnuttx.a(sched-kwork_process.o)
 .comment       0x0000000000000059       0x5a ../../spresense-exported-sdk/nuttx/libs/libnuttx.a(sched-kwork_signal.o)
 .comment       0x0000000000000059       0x5a ../../spresense-exported-sdk/nuttx/libs/libnuttx.a(sched-mq_msgfree.o)
 .comment       0x0000000000000059       0x5a ../../spresense-exported-sdk/nuttx/libs/libnuttx.a(sched-mq_rcvinternal.o)
 .comment       0x0000000000000059       0x5a ../../spresense-exported-sdk/nuttx/libs/libnuttx.a(sched-sched_addblocked.o)
 .comment       0x0000000000000059       0x5a ../../spresense-exported-sdk/nuttx/libs/libnuttx.a(sched-sched_addprioritized.o)
 .comment       0x0000000000000059       0x5a ../../spresense-exported-sdk/nuttx/libs/libnuttx.a(sched-sched_addreadytorun.o)
 .comment       0x0000000000000059       0x5a ../../spresense-exported-sdk/nuttx/libs/libnuttx.a(sched-sched_foreach.o)
 .comment       0x0000000000000059       0x5a ../../spresense-exported-sdk/nuttx/libs/libnuttx.a(sched-sched_garbage.o)
 .comment       0x0000000000000059       0x5a ../../spresense-exported-sdk/nuttx/libs/libnuttx.a(sched-sched_getfiles.o)
 .comment       0x0000000000000059       0x5a ../../spresense-exported-sdk/nuttx/libs/libnuttx.a(sched-sched_getsockets.o)
 .comment       0x0000000000000059       0x5a ../../spresense-exported-sdk/nuttx/libs/libnuttx.a(sched-sched_gettcb.o)
 .comment       0x0000000000000059       0x5a ../../spresense-exported-sdk/nuttx/libs/libnuttx.a(sched-sched_idletask.o)
 .comment       0x0000000000000059       0x5a ../../spresense-exported-sdk/nuttx/libs/libnuttx.a(sched-sched_mergepending.o)
 .comment       0x0000000000000059       0x5a ../../spresense-exported-sdk/nuttx/libs/libnuttx.a(sched-sched_processtimer.o)
 .comment       0x0000000000000059       0x5a ../../spresense-exported-sdk/nuttx/libs/libnuttx.a(sched-sched_releasetcb.o)
 .comment       0x0000000000000059       0x5a ../../spresense-exported-sdk/nuttx/libs/libnuttx.a(sched-sched_removeblocked.o)
 .comment       0x0000000000000059       0x5a ../../spresense-exported-sdk/nuttx/libs/libnuttx.a(sched-sched_removereadytorun.o)
 .comment       0x0000000000000059       0x5a ../../spresense-exported-sdk/nuttx/libs/libnuttx.a(sched-sched_resumescheduler.o)
 .comment       0x0000000000000059       0x5a ../../spresense-exported-sdk/nuttx/libs/libnuttx.a(sched-sched_roundrobin.o)
 .comment       0x0000000000000059       0x5a ../../spresense-exported-sdk/nuttx/libs/libnuttx.a(sched-sem_reset.o)
 .comment       0x0000000000000059       0x5a ../../spresense-exported-sdk/nuttx/libs/libnuttx.a(sched-sig_dispatch.o)
 .comment       0x0000000000000059       0x5a ../../spresense-exported-sdk/nuttx/libs/libnuttx.a(sched-sig_findaction.o)
 .comment       0x0000000000000059       0x5a ../../spresense-exported-sdk/nuttx/libs/libnuttx.a(sched-sig_initialize.o)
 .comment       0x0000000000000059       0x5a ../../spresense-exported-sdk/nuttx/libs/libnuttx.a(sched-sig_kill.o)
 .comment       0x0000000000000059       0x5a ../../spresense-exported-sdk/nuttx/libs/libnuttx.a(sched-sig_procmask.o)
 .comment       0x0000000000000059       0x5a ../../spresense-exported-sdk/nuttx/libs/libnuttx.a(sched-sig_queue.o)
 .comment       0x0000000000000059       0x5a ../../spresense-exported-sdk/nuttx/libs/libnuttx.a(sched-sig_timedwait.o)
 .comment       0x0000000000000059       0x5a ../../spresense-exported-sdk/nuttx/libs/libnuttx.a(sched-sig_unmaskpendingsignal.o)
 .comment       0x0000000000000059       0x5a ../../spresense-exported-sdk/nuttx/libs/libnuttx.a(sched-sig_usleep.o)
 .comment       0x0000000000000059       0x5a ../../spresense-exported-sdk/nuttx/libs/libnuttx.a(sched-task_activate.o)
 .comment       0x0000000000000059       0x5a ../../spresense-exported-sdk/nuttx/libs/libnuttx.a(sched-task_exithook.o)
 .comment       0x0000000000000059       0x5a ../../spresense-exported-sdk/nuttx/libs/libnuttx.a(sched-task_recover.o)
 .comment       0x0000000000000059       0x5a ../../spresense-exported-sdk/nuttx/libs/libnuttx.a(sched-wd_recover.o)
 .comment       0x0000000000000059       0x5a ../../spresense-exported-sdk/nuttx/libs/libnuttx.a(drivers-syslog_channel.o)
 .comment       0x0000000000000059       0x5a ../../spresense-exported-sdk/nuttx/libs/libnuttx.a(drivers-syslog_flush.o)
 .comment       0x0000000000000059       0x5a ../../spresense-exported-sdk/nuttx/libs/libnuttx.a(c-lib_dtoa_data.o)
 .comment       0x0000000000000059       0x5a ../../spresense-exported-sdk/nuttx/libs/libnuttx.a(c-lib_fseek.o)
 .comment       0x0000000000000059       0x5a ../../spresense-exported-sdk/nuttx/libs/libnuttx.a(c-lib_libflushall.o)
 .comment       0x0000000000000059       0x5a ../../spresense-exported-sdk/nuttx/libs/libnuttx.a(c-lib_match.o)
 .comment       0x0000000000000059       0x5a ../../spresense-exported-sdk/nuttx/libs/libnuttx.a(c-lib_memoutstream.o)
 .comment       0x0000000000000059       0x5a ../../spresense-exported-sdk/nuttx/libs/libnuttx.a(c-lib_nulloutstream.o)
 .comment       0x0000000000000059       0x5a ../../spresense-exported-sdk/nuttx/libs/libnuttx.a(c-lib_strchr.o)
 .comment       0x0000000000000059       0x5a ../../spresense-exported-sdk/nuttx/libs/libnuttx.a(c-lib_strcmp.o)
 .comment       0x0000000000000059       0x5a ../../spresense-exported-sdk/nuttx/libs/libnuttx.a(c-lib_strcspn.o)
 .comment       0x0000000000000059       0x5a ../../spresense-exported-sdk/nuttx/libs/libnuttx.a(c-lib_streamsem.o)
 .comment       0x0000000000000059       0x5a ../../spresense-exported-sdk/nuttx/libs/libnuttx.a(c-lib_strncmp.o)
 .comment       0x0000000000000059       0x5a ../../spresense-exported-sdk/nuttx/libs/libnuttx.a(c-lib_strtol.o)
 .comment       0x0000000000000059       0x5a ../../spresense-exported-sdk/nuttx/libs/libnuttx.a(c-lib_strtoul.o)
 .comment       0x0000000000000059       0x5a ../../spresense-exported-sdk/nuttx/libs/libnuttx.a(c-lib_syslog.o)
 .comment       0x0000000000000059       0x5a ../../spresense-exported-sdk/nuttx/libs/libnuttx.a(c-lib_time.o)
 .comment       0x0000000000000059       0x5a ../../spresense-exported-sdk/nuttx/libs/libnuttx.a(c-lib_wrflush.o)
 .comment       0x0000000000000059       0x5a ../../spresense-exported-sdk/nuttx/libs/libnuttx.a(c-sig_addset.o)
 .comment       0x0000000000000059       0x5a ../../spresense-exported-sdk/nuttx/libs/libnuttx.a(c-sig_delset.o)
 .comment       0x0000000000000059       0x5a ../../spresense-exported-sdk/nuttx/libs/libnuttx.a(c-sig_emptyset.o)
 .comment       0x0000000000000059       0x5a ../../spresense-exported-sdk/nuttx/libs/libnuttx.a(c-sig_ismember.o)
 .comment       0x0000000000000059       0x5a ../../spresense-exported-sdk/nuttx/libs/libnuttx.a(mm-mm_addfreechunk.o)
 .comment       0x0000000000000059       0x5a ../../spresense-exported-sdk/nuttx/libs/libnuttx.a(mm-mm_free.o)
 .comment       0x0000000000000059       0x5a ../../spresense-exported-sdk/nuttx/libs/libnuttx.a(mm-mm_malloc.o)
 .comment       0x0000000000000059       0x5a ../../spresense-exported-sdk/nuttx/libs/libnuttx.a(mm-mm_size2ndx.o)
 .comment       0x0000000000000059       0x5a ../../spresense-exported-sdk/nuttx/libs/libnuttx.a(mm-mm_zalloc.o)
 .comment       0x0000000000000059       0x5a ../../spresense-exported-sdk/nuttx/libs/libnuttx.a(mm-umm_heapmember.o)
 .comment       0x0000000000000059       0x5a ../../spresense-exported-sdk/nuttx/libs/libnuttx.a(mm-umm_realloc.o)
 .comment       0x0000000000000059       0x5a ../../spresense-exported-sdk/nuttx/libs/libnuttx.a(arch-cxd56_backuplog.o)
 .comment       0x0000000000000059       0x5a ../../spresense-exported-sdk/nuttx/libs/libnuttx.a(arch-cxd56_cpufifo.o)
 .comment       0x0000000000000059       0x5a ../../spresense-exported-sdk/nuttx/libs/libnuttx.a(arch-cxd56_farapi.o)
 .comment       0x0000000000000059       0x5a ../../spresense-exported-sdk/nuttx/libs/libnuttx.a(arch-up_exit.o)
 .comment       0x0000000000000059       0x5a ../../spresense-exported-sdk/nuttx/libs/libnuttx.a(arch-up_reprioritizertr.o)
 .comment       0x0000000000000059       0x5a ../../spresense-exported-sdk/nuttx/libs/libnuttx.a(arch-up_schedulesigaction.o)
 .comment       0x0000000000000059       0x5a ../../spresense-exported-sdk/nuttx/libs/libnuttx.a(arch-up_sigdeliver.o)
 .comment       0x0000000000000059       0x5a ../../spresense-exported-sdk/nuttx/libs/libnuttx.a(net-net_checksd.o)
 .comment       0x0000000000000059       0x5a ../../spresense-exported-sdk/nuttx/libs/libnuttx.a(net-net_close.o)
 .comment       0x0000000000000059       0x5a ../../spresense-exported-sdk/nuttx/libs/libnuttx.a(net-netdev_register.o)
 .comment       0x0000000000000059       0x5a ../../spresense-exported-sdk/nuttx/libs/libnuttx.a(net-net_procfs.o)
 .comment       0x0000000000000059       0x5a ../../spresense-exported-sdk/nuttx/libs/libnuttx.a(net-send.o)
 .comment       0x0000000000000059       0x5a ../../spresense-exported-sdk/nuttx/libs/libnuttx.a(fs-fs_blockproxy.o)
 .comment       0x0000000000000059       0x5a ../../spresense-exported-sdk/nuttx/libs/libnuttx.a(fs-fs_filedetach.o)
 .comment       0x0000000000000059       0x5a ../../spresense-exported-sdk/nuttx/libs/libnuttx.a(fs-fs_inodefree.o)
 .comment       0x0000000000000059       0x5a ../../spresense-exported-sdk/nuttx/libs/libnuttx.a(fs-fs_lseek.o)
 .comment       0x0000000000000059       0x5a ../../spresense-exported-sdk/nuttx/libs/libnuttx.a(fs-fs_procfsmeminfo.o)
 .comment       0x0000000000000059       0x5a ../../spresense-exported-sdk/nuttx/libs/libnuttx.a(fs-fs_procfs_mount.o)
 .comment       0x0000000000000059       0x5a ../../spresense-exported-sdk/nuttx/libs/libnuttx.a(fs-fs_stat.o)
 .comment       0x0000000000000059       0x5a ../../spresense-exported-sdk/nuttx/libs/libnuttx.a(fs-fs_unlink.o)
 .comment       0x0000000000000059       0x5a ../../spresense-exported-sdk/nuttx/libs/libnuttx.a(sched-group_leave.o)
 .comment       0x0000000000000059       0x5a ../../spresense-exported-sdk/nuttx/libs/libnuttx.a(sched-group_signal.o)
 .comment       0x0000000000000059       0x5a ../../spresense-exported-sdk/nuttx/libs/libnuttx.a(sched-mq_recover.o)
 .comment       0x0000000000000059       0x5a ../../spresense-exported-sdk/nuttx/libs/libnuttx.a(sched-mq_release.o)
 .comment       0x0000000000000059       0x5a ../../spresense-exported-sdk/nuttx/libs/libnuttx.a(sched-mq_waitirq.o)
 .comment       0x0000000000000059       0x5a ../../spresense-exported-sdk/nuttx/libs/libnuttx.a(sched-pthread_release.o)
 .comment       0x0000000000000059       0x5a ../../spresense-exported-sdk/nuttx/libs/libnuttx.a(sched-sem_recover.o)
 .comment       0x0000000000000059       0x5a ../../spresense-exported-sdk/nuttx/libs/libnuttx.a(sched-sig_allocpendingsigaction.o)
 .comment       0x0000000000000059       0x5a ../../spresense-exported-sdk/nuttx/libs/libnuttx.a(sched-sig_cleanup.o)
 .comment       0x0000000000000059       0x5a ../../spresense-exported-sdk/nuttx/libs/libnuttx.a(sched-sig_deliver.o)
 .comment       0x0000000000000059       0x5a ../../spresense-exported-sdk/nuttx/libs/libnuttx.a(sched-sig_lowest.o)
 .comment       0x0000000000000059       0x5a ../../spresense-exported-sdk/nuttx/libs/libnuttx.a(sched-sig_nanosleep.o)
 .comment       0x0000000000000059       0x5a ../../spresense-exported-sdk/nuttx/libs/libnuttx.a(sched-sig_pending.o)
 .comment       0x0000000000000059       0x5a ../../spresense-exported-sdk/nuttx/libs/libnuttx.a(sched-sig_releasependingsigaction.o)
 .comment       0x0000000000000059       0x5a ../../spresense-exported-sdk/nuttx/libs/libnuttx.a(sched-sig_releasependingsignal.o)
 .comment       0x0000000000000059       0x5a ../../spresense-exported-sdk/nuttx/libs/libnuttx.a(sched-sig_removependingsignal.o)
 .comment       0x0000000000000059       0x5a ../../spresense-exported-sdk/nuttx/libs/libnuttx.a(sched-task_exit.o)
 .comment       0x0000000000000059       0x5a ../../spresense-exported-sdk/nuttx/libs/libnuttx.a(sched-task_terminate.o)
 .comment       0x0000000000000059       0x5a ../../spresense-exported-sdk/nuttx/libs/libnuttx.a(drivers-bchdev_register.o)
 .comment       0x0000000000000059       0x5a ../../spresense-exported-sdk/nuttx/libs/libnuttx.a(drivers-bchlib_setup.o)
 .comment       0x0000000000000059       0x5a ../../spresense-exported-sdk/nuttx/libs/libnuttx.a(drivers-bchlib_teardown.o)
 .comment       0x0000000000000059       0x5a ../../spresense-exported-sdk/nuttx/libs/libnuttx.a(drivers-vsyslog.o)
 .comment       0x0000000000000059       0x5a ../../spresense-exported-sdk/nuttx/libs/libnuttx.a(c-lib_basename.o)
 .comment       0x0000000000000059       0x5a ../../spresense-exported-sdk/nuttx/libs/libnuttx.a(c-lib_checkbase.o)
 .comment       0x0000000000000059       0x5a ../../spresense-exported-sdk/nuttx/libs/libnuttx.a(c-lib_isbasedigit.o)
 .comment       0x0000000000000059       0x5a ../../spresense-exported-sdk/nuttx/libs/libnuttx.a(c-lib_setlogmask.o)
 .comment       0x0000000000000059       0x5a ../../spresense-exported-sdk/nuttx/libs/libnuttx.a(c-lib_skipspace.o)
 .comment       0x0000000000000059       0x5a ../../spresense-exported-sdk/nuttx/libs/libnuttx.a(c-lib_strrchr.o)
 .comment       0x0000000000000059       0x5a ../../spresense-exported-sdk/nuttx/libs/libnuttx.a(c-lib_vsnprintf.o)
 .comment       0x0000000000000059       0x5a ../../spresense-exported-sdk/nuttx/libs/libnuttx.a(mm-mm_heapmember.o)
 .comment       0x0000000000000059       0x5a ../../spresense-exported-sdk/nuttx/libs/libnuttx.a(mm-mm_realloc.o)
 .comment       0x0000000000000059       0x5a ../../spresense-exported-sdk/nuttx/libs/libnuttx.a(mm-mm_shrinkchunk.o)
 .comment       0x0000000000000059       0x5a ../../spresense-exported-sdk/nuttx/libs/libnuttx.a(mm-umm_mallinfo.o)
 .comment       0x0000000000000059       0x5a ../../spresense-exported-sdk/nuttx/libs/libnuttx.a(net-netdev_count.o)
 .comment       0x0000000000000059       0x5a ../../spresense-exported-sdk/nuttx/libs/libnuttx.a(net-netdev_findbyindex.o)
 .comment       0x0000000000000059       0x5a ../../spresense-exported-sdk/nuttx/libs/libnuttx.a(net-netdev_findbyname.o)
 .comment       0x0000000000000059       0x5a ../../spresense-exported-sdk/nuttx/libs/libnuttx.a(net-netdev_statistics.o)
 .comment       0x0000000000000059       0x5a ../../spresense-exported-sdk/nuttx/libs/libnuttx.a(fs-fs_closeblockdriver.o)
 .comment       0x0000000000000059       0x5a ../../spresense-exported-sdk/nuttx/libs/libnuttx.a(fs-fs_foreachmountpoint.o)
 .comment       0x0000000000000059       0x5a ../../spresense-exported-sdk/nuttx/libs/libnuttx.a(fs-fs_gettype.o)
 .comment       0x0000000000000059       0x5a ../../spresense-exported-sdk/nuttx/libs/libnuttx.a(fs-fs_inoderemove.o)
 .comment       0x0000000000000059       0x5a ../../spresense-exported-sdk/nuttx/libs/libnuttx.a(fs-fs_openblockdriver.o)
 .comment       0x0000000000000059       0x5a ../../spresense-exported-sdk/nuttx/libs/libnuttx.a(fs-mq_close.o)
 .comment       0x0000000000000059       0x5a ../../spresense-exported-sdk/nuttx/libs/libnuttx.a(sched-clock_timespec_subtract.o)
 .comment       0x0000000000000059       0x5a ../../spresense-exported-sdk/nuttx/libs/libnuttx.a(sched-env_release.o)
 .comment       0x0000000000000059       0x5a ../../spresense-exported-sdk/nuttx/libs/libnuttx.a(sched-group_foreachchild.o)
 .comment       0x0000000000000059       0x5a ../../spresense-exported-sdk/nuttx/libs/libnuttx.a(sched-mq_desclose.o)
 .comment       0x0000000000000059       0x5a ../../spresense-exported-sdk/nuttx/libs/libnuttx.a(sched-sig_action.o)
 .comment       0x0000000000000059       0x5a ../../spresense-exported-sdk/nuttx/libs/libnuttx.a(drivers-bchdev_driver.o)
 .comment       0x0000000000000059       0x5a ../../spresense-exported-sdk/nuttx/libs/libnuttx.a(drivers-bchlib_cache.o)
 .comment       0x0000000000000059       0x5a ../../spresense-exported-sdk/nuttx/libs/libnuttx.a(drivers-bchlib_read.o)
 .comment       0x0000000000000059       0x5a ../../spresense-exported-sdk/nuttx/libs/libnuttx.a(drivers-bchlib_sem.o)
 .comment       0x0000000000000059       0x5a ../../spresense-exported-sdk/nuttx/libs/libnuttx.a(drivers-bchlib_write.o)
 .comment       0x0000000000000059       0x5a ../../spresense-exported-sdk/nuttx/libs/libnuttx.a(drivers-syslog_emergstream.o)
 .comment       0x0000000000000059       0x5a ../../spresense-exported-sdk/nuttx/libs/libnuttx.a(drivers-syslog_force.o)
 .comment       0x0000000000000059       0x5a ../../spresense-exported-sdk/nuttx/libs/libnuttx.a(drivers-syslog_stream.o)
 .comment       0x0000000000000059       0x5a ../../spresense-exported-sdk/nuttx/libs/libnuttx.a(c-lib_etherntoa.o)
 .comment       0x0000000000000059       0x5a ../../spresense-exported-sdk/nuttx/libs/libnuttx.a(c-lib_sprintf.o)
 .comment       0x0000000000000059       0x5a ../../spresense-exported-sdk/nuttx/libs/libnuttx.a(mm-mm_mallinfo.o)
 .comment       0x0000000000000059       0x5a ../../spresense-exported-sdk/nuttx/libs/libnuttx.a(fs-fs_findblockdriver.o)
 .comment       0x0000000000000059       0x5a ../../spresense-exported-sdk/nuttx/libs/libnuttx.a(fs-fs_foreachinode.o)
 .comment       0x0000000000000059       0x5a ../../spresense-exported-sdk/nuttx/libs/libnuttx.a(fs-fs_mtdproxy.o)
 .comment       0x0000000000000059       0x5a ../../spresense-exported-sdk/nuttx/libs/libnuttx.a(drivers-ftl.o)
 .comment       0x0000000000000059       0x5a ../../spresense-exported-sdk/nuttx/libs/libnuttx.a(drivers-syslog_putc.o)
 .comment       0x0000000000000059       0x5a ../../spresense-exported-sdk/nuttx/libs/libnuttx.a(fs-fs_findmtddriver.o)
 .comment       0x0000000000000059       0x5a ../../spresense-exported-sdk/nuttx/libs/libnuttx.a(fs-fs_registerblockdriver.o)
 .comment       0x0000000000000059       0x5a ../../spresense-exported-sdk/nuttx/libs/libapps.a(nsh_main.o)
 .comment       0x0000000000000059       0x5a ../../spresense-exported-sdk/nuttx/libs/libapps.a(lateinit.o)
 .comment       0x0000000000000059       0x7f ../../spresense-exported-sdk/nuttx/libs/libapps.a(gnu_cxxinitialize.o)
                                         0x80 (size before relaxing)
 .comment       0x00000000000000d8       0x5a ../../spresense-exported-sdk/nuttx/libs/libapps.a(nsh_init.o)
 .comment       0x00000000000000d8       0x5a ../../spresense-exported-sdk/nuttx/libs/libapps.a(nsh_parse.o)
 .comment       0x00000000000000d8       0x5a ../../spresense-exported-sdk/nuttx/libs/libapps.a(nsh_command.o)
 .comment       0x00000000000000d8       0x5a ../../spresense-exported-sdk/nuttx/libs/libapps.a(nsh_fscmds.o)
 .comment       0x00000000000000d8       0x5a ../../spresense-exported-sdk/nuttx/libs/libapps.a(nsh_ddcmd.o)
 .comment       0x00000000000000d8       0x5a ../../spresense-exported-sdk/nuttx/libs/libapps.a(nsh_proccmds.o)
 .comment       0x00000000000000d8       0x5a ../../spresense-exported-sdk/nuttx/libs/libapps.a(nsh_mmcmds.o)
 .comment       0x00000000000000d8       0x5a ../../spresense-exported-sdk/nuttx/libs/libapps.a(nsh_timcmds.o)
 .comment       0x00000000000000d8       0x5a ../../spresense-exported-sdk/nuttx/libs/libapps.a(nsh_envcmds.o)
 .comment       0x00000000000000d8       0x5a ../../spresense-exported-sdk/nuttx/libs/libapps.a(nsh_syscmds.o)
 .comment       0x00000000000000d8       0x5a ../../spresense-exported-sdk/nuttx/libs/libapps.a(nsh_dbgcmds.o)
 .comment       0x00000000000000d8       0x5a ../../spresense-exported-sdk/nuttx/libs/libapps.a(nsh_fsutils.o)
 .comment       0x00000000000000d8       0x5a ../../spresense-exported-sdk/nuttx/libs/libapps.a(nsh_builtin.o)
 .comment       0x00000000000000d8       0x5a ../../spresense-exported-sdk/nuttx/libs/libapps.a(nsh_netcmds.o)
 .comment       0x00000000000000d8       0x5a ../../spresense-exported-sdk/nuttx/libs/libapps.a(nsh_mntcmds.o)
 .comment       0x00000000000000d8       0x5a ../../spresense-exported-sdk/nuttx/libs/libapps.a(nsh_consolemain.o)
 .comment       0x00000000000000d8       0x5a ../../spresense-exported-sdk/nuttx/libs/libapps.a(nsh_test.o)
 .comment       0x00000000000000d8       0x5a ../../spresense-exported-sdk/nuttx/libs/libapps.a(exec_builtin.o)
 .comment       0x00000000000000d8       0x5a ../../spresense-exported-sdk/nuttx/libs/libapps.a(readline_common.o)
 .comment       0x00000000000000d8       0x5a ../../spresense-exported-sdk/nuttx/libs/libapps.a(netlib_ipv4addrconv.o)
 .comment       0x00000000000000d8       0x5a ../../spresense-exported-sdk/nuttx/libs/libapps.a(netlib_ethaddrconv.o)
 .comment       0x00000000000000d8       0x5a ../../spresense-exported-sdk/nuttx/libs/libapps.a(netlib_setifstatus.o)
 .comment       0x00000000000000d8       0x5a ../../spresense-exported-sdk/nuttx/libs/libapps.a(netlib_setmacaddr.o)
 .comment       0x00000000000000d8       0x5a ../../spresense-exported-sdk/nuttx/libs/libapps.a(netinit.o)
 .comment       0x00000000000000d8       0x5a ../../spresense-exported-sdk/nuttx/libs/libapps.a(mksmartfs.o)
 .comment       0x00000000000000d8       0x5a ../../spresense-exported-sdk/nuttx/libs/libapps.a(mkfatfs.o)
 .comment       0x00000000000000d8       0x5a ../../spresense-exported-sdk/nuttx/libs/libapps.a(configfat.o)
 .comment       0x00000000000000d8       0x5a ../../spresense-exported-sdk/nuttx/libs/libapps.a(writefat.o)
 .comment       0x00000000000000d8       0x5a ../../spresense-exported-sdk/nuttx/libs/libapps.a(nsh_console.o)
 .comment       0x00000000000000d8       0x5a ../../spresense-exported-sdk/nuttx/libs/libapps.a(nsh_script.o)
 .comment       0x00000000000000d8       0x5a ../../spresense-exported-sdk/nuttx/libs/libapps.a(nsh_session.o)
 .comment       0x00000000000000d8       0x5a ../../spresense-exported-sdk/nuttx/libs/libapps.a(readline.o)
 .comment       0x00000000000000d8       0x5a ../../spresense-exported-sdk/nuttx/libs/libnuttx.a(sched-clock_settime.o)
 .comment       0x00000000000000d8       0x5a ../../spresense-exported-sdk/nuttx/libs/libnuttx.a(sched-env_getenv.o)
 .comment       0x00000000000000d8       0x5a ../../spresense-exported-sdk/nuttx/libs/libnuttx.a(sched-env_setenv.o)
 .comment       0x00000000000000d8       0x5a ../../spresense-exported-sdk/nuttx/libs/libnuttx.a(sched-env_unsetenv.o)
 .comment       0x00000000000000d8       0x5a ../../spresense-exported-sdk/nuttx/libs/libnuttx.a(sched-pthread_create.o)
 .comment       0x00000000000000d8       0x5a ../../spresense-exported-sdk/nuttx/libs/libnuttx.a(sched-pthread_detach.o)
 .comment       0x00000000000000d8       0x5a ../../spresense-exported-sdk/nuttx/libs/libnuttx.a(sched-pthread_exit.o)
 .comment       0x00000000000000d8       0x5a ../../spresense-exported-sdk/nuttx/libs/libnuttx.a(sched-pthread_findjoininfo.o)
 .comment       0x00000000000000d8       0x5a ../../spresense-exported-sdk/nuttx/libs/libnuttx.a(sched-pthread_initialize.o)
 .comment       0x00000000000000d8       0x5a ../../spresense-exported-sdk/nuttx/libs/libnuttx.a(sched-pthread_mutexinconsistent.o)
 .comment       0x00000000000000d8       0x5a ../../spresense-exported-sdk/nuttx/libs/libnuttx.a(sched-sched_getparam.o)
 .comment       0x00000000000000d8       0x5a ../../spresense-exported-sdk/nuttx/libs/libnuttx.a(sched-sched_getscheduler.o)
 .comment       0x00000000000000d8       0x5a ../../spresense-exported-sdk/nuttx/libs/libnuttx.a(sched-sched_setparam.o)
 .comment       0x00000000000000d8       0x5a ../../spresense-exported-sdk/nuttx/libs/libnuttx.a(sched-sched_setpriority.o)
 .comment       0x00000000000000d8       0x5a ../../spresense-exported-sdk/nuttx/libs/libnuttx.a(sched-sched_waitpid.o)
 .comment       0x00000000000000d8       0x5a ../../spresense-exported-sdk/nuttx/libs/libnuttx.a(sched-task_spawn.o)
 .comment       0x00000000000000d8       0x5a ../../spresense-exported-sdk/nuttx/libs/libnuttx.a(sched-task_spawnparms.o)
 .comment       0x00000000000000d8       0x5a ../../spresense-exported-sdk/nuttx/libs/libnuttx.a(boards-boardctl.o)
 .comment       0x00000000000000d8       0x5a ../../spresense-exported-sdk/nuttx/libs/libnuttx.a(c-lib_asprintf.o)
 .comment       0x00000000000000d8       0x5a ../../spresense-exported-sdk/nuttx/libs/libnuttx.a(c-lib_builtin_forindex.o)
 .comment       0x00000000000000d8       0x5a ../../spresense-exported-sdk/nuttx/libs/libnuttx.a(c-lib_builtin_getname.o)
 .comment       0x00000000000000d8       0x5a ../../spresense-exported-sdk/nuttx/libs/libnuttx.a(c-lib_builtin_isavail.o)
 .comment       0x00000000000000d8       0x5a ../../spresense-exported-sdk/nuttx/libs/libnuttx.a(c-lib_chdir.o)
 .comment       0x00000000000000d8       0x5a ../../spresense-exported-sdk/nuttx/libs/libnuttx.a(c-lib_dirname.o)
 .comment       0x00000000000000d8       0x5a ../../spresense-exported-sdk/nuttx/libs/libnuttx.a(c-lib_fclose.o)
 .comment       0x00000000000000d8       0x5a ../../spresense-exported-sdk/nuttx/libs/libnuttx.a(c-lib_fflush.o)
 .comment       0x00000000000000d8       0x5a ../../spresense-exported-sdk/nuttx/libs/libnuttx.a(c-lib_fgets.o)
 .comment       0x00000000000000d8       0x5a ../../spresense-exported-sdk/nuttx/libs/libnuttx.a(c-lib_fopen.o)
 .comment       0x00000000000000d8       0x5a ../../spresense-exported-sdk/nuttx/libs/libnuttx.a(c-lib_fprintf.o)
 .comment       0x00000000000000d8       0x5a ../../spresense-exported-sdk/nuttx/libs/libnuttx.a(c-lib_fputs.o)
 .comment       0x00000000000000d8       0x5a ../../spresense-exported-sdk/nuttx/libs/libnuttx.a(c-lib_ftell.o)
 .comment       0x00000000000000d8       0x5a ../../spresense-exported-sdk/nuttx/libs/libnuttx.a(c-lib_fwrite.o)
 .comment       0x00000000000000d8       0x5a ../../spresense-exported-sdk/nuttx/libs/libnuttx.a(c-lib_getopt.o)
 .comment       0x00000000000000d8       0x5a ../../spresense-exported-sdk/nuttx/libs/libnuttx.a(c-lib_gmtimer.o)
 .comment       0x00000000000000d8       0x5a ../../spresense-exported-sdk/nuttx/libs/libnuttx.a(c-lib_isleapyear.o)
 .comment       0x00000000000000d8       0x5a ../../spresense-exported-sdk/nuttx/libs/libnuttx.a(c-lib_libfgets.o)
 .comment       0x00000000000000d8       0x5a ../../spresense-exported-sdk/nuttx/libs/libnuttx.a(c-lib_memcmp.o)
 .comment       0x00000000000000d8       0x5a ../../spresense-exported-sdk/nuttx/libs/libnuttx.a(c-lib_mkfifo.o)
 .comment       0x00000000000000d8       0x5a ../../spresense-exported-sdk/nuttx/libs/libnuttx.a(c-lib_mktime.o)
 .comment       0x00000000000000d8       0x5a ../../spresense-exported-sdk/nuttx/libs/libnuttx.a(c-lib_psa_init.o)
 .comment       0x00000000000000d8       0x5a ../../spresense-exported-sdk/nuttx/libs/libnuttx.a(c-lib_psa_setflags.o)
 .comment       0x00000000000000d8       0x5a ../../spresense-exported-sdk/nuttx/libs/libnuttx.a(c-lib_psa_setschedparam.o)
 .comment       0x00000000000000d8       0x5a ../../spresense-exported-sdk/nuttx/libs/libnuttx.a(c-lib_psa_setschedpolicy.o)
 .comment       0x00000000000000d8       0x5a ../../spresense-exported-sdk/nuttx/libs/libnuttx.a(c-lib_psa_setstacksize.o)
 .comment       0x00000000000000d8       0x5a ../../spresense-exported-sdk/nuttx/libs/libnuttx.a(c-lib_psfa_addopen.o)
 .comment       0x00000000000000d8       0x5a ../../spresense-exported-sdk/nuttx/libs/libnuttx.a(c-lib_psfa_destroy.o)
 .comment       0x00000000000000d8       0x5a ../../spresense-exported-sdk/nuttx/libs/libnuttx.a(c-lib_psfa_init.o)
 .comment       0x00000000000000d8       0x5a ../../spresense-exported-sdk/nuttx/libs/libnuttx.a(c-lib_sleep.o)
 .comment       0x00000000000000d8       0x5a ../../spresense-exported-sdk/nuttx/libs/libnuttx.a(c-lib_strcat.o)
 .comment       0x00000000000000d8       0x5a ../../spresense-exported-sdk/nuttx/libs/libnuttx.a(c-lib_strftime.o)
 .comment       0x00000000000000d8       0x5a ../../spresense-exported-sdk/nuttx/libs/libnuttx.a(c-lib_strncasecmp.o)
 .comment       0x00000000000000d8       0x5a ../../spresense-exported-sdk/nuttx/libs/libnuttx.a(c-lib_strtokr.o)
 .comment       0x00000000000000d8       0x5a ../../spresense-exported-sdk/nuttx/libs/libnuttx.a(c-lib_usleep.o)
 .comment       0x00000000000000d8       0x5a ../../spresense-exported-sdk/nuttx/libs/libnuttx.a(c-lib_utsname.o)
 .comment       0x00000000000000d8       0x5a ../../spresense-exported-sdk/nuttx/libs/libnuttx.a(c-lib_vasprintf.o)
 .comment       0x00000000000000d8       0x5a ../../spresense-exported-sdk/nuttx/libs/libnuttx.a(c-pthread_attr_init.o)
 .comment       0x00000000000000d8       0x5a ../../spresense-exported-sdk/nuttx/libs/libnuttx.a(c-pthread_attr_setschedparam.o)
 .comment       0x00000000000000d8       0x5a ../../spresense-exported-sdk/nuttx/libs/libnuttx.a(c-pthread_attr_setschedpolicy.o)
 .comment       0x00000000000000d8       0x5a ../../spresense-exported-sdk/nuttx/libs/libnuttx.a(c-sched_getprioritymax.o)
 .comment       0x00000000000000d8       0x5a ../../spresense-exported-sdk/nuttx/libs/libnuttx.a(c-sched_getprioritymin.o)
 .comment       0x00000000000000d8       0x5a ../../spresense-exported-sdk/nuttx/libs/libnuttx.a(arch-up_usestack.o)
 .comment       0x00000000000000d8       0x5a ../../spresense-exported-sdk/nuttx/libs/libnuttx.a(net-socket.o)
 .comment       0x00000000000000d8       0x5a ../../spresense-exported-sdk/nuttx/libs/libnuttx.a(net-usrsock_sockif.o)
 .comment       0x00000000000000d8       0x5a ../../spresense-exported-sdk/nuttx/libs/libnuttx.a(fs-fs_closedir.o)
 .comment       0x00000000000000d8       0x5a ../../spresense-exported-sdk/nuttx/libs/libnuttx.a(fs-fs_dup2.o)
 .comment       0x00000000000000d8       0x5a ../../spresense-exported-sdk/nuttx/libs/libnuttx.a(fs-fs_ioctl.o)
 .comment       0x00000000000000d8       0x5a ../../spresense-exported-sdk/nuttx/libs/libnuttx.a(fs-fs_mkdir.o)
 .comment       0x00000000000000d8       0x5a ../../spresense-exported-sdk/nuttx/libs/libnuttx.a(fs-fs_mount.o)
 .comment       0x00000000000000d8       0x5a ../../spresense-exported-sdk/nuttx/libs/libnuttx.a(fs-fs_opendir.o)
 .comment       0x00000000000000d8       0x5a ../../spresense-exported-sdk/nuttx/libs/libnuttx.a(fs-fs_readdir.o)
 .comment       0x00000000000000d8       0x5a ../../spresense-exported-sdk/nuttx/libs/libnuttx.a(fs-fs_read.o)
 .comment       0x00000000000000d8       0x5a ../../spresense-exported-sdk/nuttx/libs/libnuttx.a(fs-fs_rename.o)
 .comment       0x00000000000000d8       0x5a ../../spresense-exported-sdk/nuttx/libs/libnuttx.a(fs-fs_rmdir.o)
 .comment       0x00000000000000d8       0x5a ../../spresense-exported-sdk/nuttx/libs/libnuttx.a(fs-fs_romfs.o)
 .comment       0x00000000000000d8       0x5a ../../spresense-exported-sdk/nuttx/libs/libnuttx.a(fs-fs_romfsutil.o)
 .comment       0x00000000000000d8       0x5a ../../spresense-exported-sdk/nuttx/libs/libnuttx.a(fs-fs_umount2.o)
 .comment       0x00000000000000d8       0x5a ../../spresense-exported-sdk/nuttx/libs/libnuttx.a(fs-smartfs_smart.o)
 .comment       0x00000000000000d8       0x5a ../../spresense-exported-sdk/nuttx/libs/libnuttx.a(board-cxd56_appinit.o)
 .comment       0x00000000000000d8       0x5a ../../spresense-exported-sdk/nuttx/libs/libnuttx.a(board-cxd56_bringup.o)
 .comment       0x00000000000000d8       0x5a ../../spresense-exported-sdk/nuttx/libs/libnuttx.a(board-cxd56_clock.o)
 .comment       0x00000000000000d8       0x5a ../../spresense-exported-sdk/nuttx/libs/libnuttx.a(board-cxd56_flash.o)
 .comment       0x00000000000000d8       0x5a ../../spresense-exported-sdk/nuttx/libs/libnuttx.a(board-cxd56_i2cdev.o)
 .comment       0x00000000000000d8       0x5a ../../spresense-exported-sdk/nuttx/libs/libnuttx.a(board-cxd56_ioctl.o)
 .comment       0x00000000000000d8       0x5a ../../spresense-exported-sdk/nuttx/libs/libnuttx.a(board-cxd56_power.o)
 .comment       0x00000000000000d8       0x5a ../../spresense-exported-sdk/nuttx/libs/libnuttx.a(board-cxd56_pwm.o)
 .comment       0x00000000000000d8       0x5a ../../spresense-exported-sdk/nuttx/libs/libnuttx.a(board-cxd56_uid.o)
 .comment       0x00000000000000d8       0x5a ../../spresense-exported-sdk/nuttx/libs/libnuttx.a(board-cxd56_usbmsc.o)
 .comment       0x00000000000000d8       0x5a ../../spresense-exported-sdk/nuttx/libs/libnuttx.a(sched-env_findvar.o)
 .comment       0x00000000000000d8       0x5a ../../spresense-exported-sdk/nuttx/libs/libnuttx.a(sched-env_removevar.o)
 .comment       0x00000000000000d8       0x5a ../../spresense-exported-sdk/nuttx/libs/libnuttx.a(sched-group_join.o)
 .comment       0x00000000000000d8       0x5a ../../spresense-exported-sdk/nuttx/libs/libnuttx.a(sched-pthread_completejoin.o)
 .comment       0x00000000000000d8       0x5a ../../spresense-exported-sdk/nuttx/libs/libnuttx.a(sched-sched_setscheduler.o)
 .comment       0x00000000000000d8       0x5a ../../spresense-exported-sdk/nuttx/libs/libnuttx.a(sched-task_getgroup.o)
 .comment       0x00000000000000d8       0x5a ../../spresense-exported-sdk/nuttx/libs/libnuttx.a(sched-task_reparent.o)
 .comment       0x00000000000000d8       0x5a ../../spresense-exported-sdk/nuttx/libs/libnuttx.a(drivers-cdcacm.o)
 .comment       0x00000000000000d8       0x5a ../../spresense-exported-sdk/nuttx/libs/libnuttx.a(drivers-fifo.o)
 .comment       0x00000000000000d8       0x5a ../../spresense-exported-sdk/nuttx/libs/libnuttx.a(drivers-i2c_driver.o)
 .comment       0x00000000000000d8       0x5a ../../spresense-exported-sdk/nuttx/libs/libnuttx.a(drivers-mkrd.o)
 .comment       0x00000000000000d8       0x5a ../../spresense-exported-sdk/nuttx/libs/libnuttx.a(drivers-pipe_common.o)
 .comment       0x00000000000000d8       0x5a ../../spresense-exported-sdk/nuttx/libs/libnuttx.a(drivers-ramdisk.o)
 .comment       0x00000000000000d8       0x5a ../../spresense-exported-sdk/nuttx/libs/libnuttx.a(drivers-rtc.o)
 .comment       0x00000000000000d8       0x5a ../../spresense-exported-sdk/nuttx/libs/libnuttx.a(drivers-smart.o)
 .comment       0x00000000000000d8       0x5a ../../spresense-exported-sdk/nuttx/libs/libnuttx.a(drivers-usbmsc.o)
 .comment       0x00000000000000d8       0x5a ../../spresense-exported-sdk/nuttx/libs/libnuttx.a(drivers-usbmsc_scsi.o)
 .comment       0x00000000000000d8       0x5a ../../spresense-exported-sdk/nuttx/libs/libnuttx.a(c-lib_calendar2utc.o)
 .comment       0x00000000000000d8       0x5a ../../spresense-exported-sdk/nuttx/libs/libnuttx.a(c-lib_crc8.o)
 .comment       0x00000000000000d8       0x5a ../../spresense-exported-sdk/nuttx/libs/libnuttx.a(c-lib_daysbeforemonth.o)
 .comment       0x00000000000000d8       0x5a ../../spresense-exported-sdk/nuttx/libs/libnuttx.a(c-lib_fgetc.o)
 .comment       0x00000000000000d8       0x5a ../../spresense-exported-sdk/nuttx/libs/libnuttx.a(c-lib_gethostname.o)
 .comment       0x00000000000000d8       0x5a ../../spresense-exported-sdk/nuttx/libs/libnuttx.a(c-lib_libfread.o)
 .comment       0x00000000000000d8       0x5a ../../spresense-exported-sdk/nuttx/libs/libnuttx.a(c-lib_psfa_addaction.o)
 .comment       0x00000000000000d8       0x5a ../../spresense-exported-sdk/nuttx/libs/libnuttx.a(arch-cxd56_i2c.o)
 .comment       0x00000000000000d8       0x5a ../../spresense-exported-sdk/nuttx/libs/libnuttx.a(arch-cxd56_rtc_lowerhalf.o)
 .comment       0x00000000000000d8       0x5a ../../spresense-exported-sdk/nuttx/libs/libnuttx.a(arch-cxd56_scu.o)
 .comment       0x00000000000000d8       0x5a ../../spresense-exported-sdk/nuttx/libs/libnuttx.a(arch-cxd56_sfc.o)
 .comment       0x00000000000000d8       0x5a ../../spresense-exported-sdk/nuttx/libs/libnuttx.a(arch-cxd56_sysctl.o)
 .comment       0x00000000000000d8       0x5a ../../spresense-exported-sdk/nuttx/libs/libnuttx.a(arch-cxd56_timer.o)
 .comment       0x00000000000000d8       0x5a ../../spresense-exported-sdk/nuttx/libs/libnuttx.a(arch-cxd56_udmac.o)
 .comment       0x00000000000000d8       0x5a ../../spresense-exported-sdk/nuttx/libs/libnuttx.a(arch-cxd56_uid.o)
 .comment       0x00000000000000d8       0x5a ../../spresense-exported-sdk/nuttx/libs/libnuttx.a(arch-cxd56_wdt.o)
 .comment       0x00000000000000d8       0x5a ../../spresense-exported-sdk/nuttx/libs/libnuttx.a(net-netdev_ioctl.o)
 .comment       0x00000000000000d8       0x5a ../../spresense-exported-sdk/nuttx/libs/libnuttx.a(net-net_dupsd2.o)
 .comment       0x00000000000000d8       0x5a ../../spresense-exported-sdk/nuttx/libs/libnuttx.a(net-net_sockif.o)
 .comment       0x00000000000000d8       0x5a ../../spresense-exported-sdk/nuttx/libs/libnuttx.a(net-recvfrom.o)
 .comment       0x00000000000000d8       0x5a ../../spresense-exported-sdk/nuttx/libs/libnuttx.a(net-usrsock_accept.o)
 .comment       0x00000000000000d8       0x5a ../../spresense-exported-sdk/nuttx/libs/libnuttx.a(net-usrsock_bind.o)
 .comment       0x00000000000000d8       0x5a ../../spresense-exported-sdk/nuttx/libs/libnuttx.a(net-usrsock_close.o)
 .comment       0x00000000000000d8       0x5a ../../spresense-exported-sdk/nuttx/libs/libnuttx.a(net-usrsock_connect.o)
 .comment       0x00000000000000d8       0x5a ../../spresense-exported-sdk/nuttx/libs/libnuttx.a(net-usrsock_getpeername.o)
 .comment       0x00000000000000d8       0x5a ../../spresense-exported-sdk/nuttx/libs/libnuttx.a(net-usrsock_getsockname.o)
 .comment       0x00000000000000d8       0x5a ../../spresense-exported-sdk/nuttx/libs/libnuttx.a(net-usrsock_ioctl.o)
 .comment       0x00000000000000d8       0x5a ../../spresense-exported-sdk/nuttx/libs/libnuttx.a(net-usrsock_listen.o)
 .comment       0x00000000000000d8       0x5a ../../spresense-exported-sdk/nuttx/libs/libnuttx.a(net-usrsock_poll.o)
 .comment       0x00000000000000d8       0x5a ../../spresense-exported-sdk/nuttx/libs/libnuttx.a(net-usrsock_recvfrom.o)
 .comment       0x00000000000000d8       0x5a ../../spresense-exported-sdk/nuttx/libs/libnuttx.a(net-usrsock_sendto.o)
 .comment       0x00000000000000d8       0x5a ../../spresense-exported-sdk/nuttx/libs/libnuttx.a(net-usrsock_socket.o)
 .comment       0x00000000000000d8       0x5a ../../spresense-exported-sdk/nuttx/libs/libnuttx.a(fs-fs_fat32.o)
 .comment       0x00000000000000d8       0x5a ../../spresense-exported-sdk/nuttx/libs/libnuttx.a(fs-fs_fat32util.o)
 .comment       0x00000000000000d8       0x5a ../../spresense-exported-sdk/nuttx/libs/libnuttx.a(fs-fs_unregisterblockdriver.o)
 .comment       0x00000000000000d8       0x5a ../../spresense-exported-sdk/nuttx/libs/libnuttx.a(fs-fs_unregisterdriver.o)
 .comment       0x00000000000000d8       0x5a ../../spresense-exported-sdk/nuttx/libs/libnuttx.a(drivers-cdcacm_desc.o)
 .comment       0x00000000000000d8       0x5a ../../spresense-exported-sdk/nuttx/libs/libnuttx.a(drivers-timer.o)
 .comment       0x00000000000000d8       0x5a ../../spresense-exported-sdk/nuttx/libs/libnuttx.a(drivers-usbmsc_desc.o)
 .comment       0x00000000000000d8       0x5a ../../spresense-exported-sdk/nuttx/libs/libnuttx.a(drivers-watchdog.o)
 .comment       0x00000000000000d8       0x5a ../../spresense-exported-sdk/nuttx/libs/libnuttx.a(arch-cxd56_scufifo.o)
 .comment       0x00000000000000d8       0x5a ../../spresense-exported-sdk/nuttx/libs/libnuttx.a(net-net_clone.o)
 .comment       0x00000000000000d8       0x5a ../../spresense-exported-sdk/nuttx/libs/libnuttx.a(fs-fs_fat32dirent.o)
 .comment       0x00000000000000d8       0x5a ../../spresense-exported-sdk/nuttx/libs/libapps.a(builtin_list.o)
 .comment       0x00000000000000d8       0x5a ../../spresense-exported-sdk/nuttx/libs/libapps.a(hello_main.o)
 .comment       0x00000000000000d8       0x80 ../../spresense-exported-sdk/nuttx/libs/libnuttx.a(c-lib_sin.o)
 .comment       0x00000000000000d8       0x80 ../../spresense-exported-sdk/nuttx/libs/libnuttx.a(c-lib_fmod.o)
 .comment       0x00000000000000d8       0x80 ../../spresense-exported-sdk/nuttx/libs/libnuttx.a(c-lib_modf.o)
 .comment       0x00000000000000d8       0x80 ../../spresense-exported-sdk/nuttx/libs/libnuttx.a(c-lib_fabs.o)

.ARM.attributes
                0x0000000000000000       0x34
 .ARM.attributes
                0x0000000000000000       0x30 CMakeFiles/hellocpp.dir/HelloWorld.cpp.obj
 .ARM.attributes
                0x0000000000000030       0x30 CMakeFiles/hellocpp.dir/main.cpp.obj
 .ARM.attributes
                0x0000000000000060       0x34 ../../spresense-exported-sdk/nuttx/libs/libnuttx.a(c-lib_printf.o)
 .ARM.attributes
                0x0000000000000094       0x34 ../../spresense-exported-sdk/nuttx/libs/libnuttx.a(c-lib_vfprintf.o)
 .ARM.attributes
                0x00000000000000c8       0x34 ../../spresense-exported-sdk/nuttx/libs/libnuttx.a(arch-cxd56_start.o)
 .ARM.attributes
                0x00000000000000fc       0x34 ../../spresense-exported-sdk/nuttx/libs/libnuttx.a(arch-cxd56_uart.o)
 .ARM.attributes
                0x0000000000000130       0x39 ../../spresense-exported-sdk/nuttx/libs/libnuttx.a(arch-up_vectors.o)
 .ARM.attributes
                0x0000000000000169       0x34 ../../spresense-exported-sdk/nuttx/libs/libnuttx.a(board-cxd56_boot.o)
 .ARM.attributes
                0x000000000000019d       0x34 ../../spresense-exported-sdk/nuttx/libs/libnuttx.a(board-cxd56_main.o)
 .ARM.attributes
                0x00000000000001d1       0x34 ../../spresense-exported-sdk/nuttx/libs/libnuttx.a(sched-nx_start.o)
 .ARM.attributes
                0x0000000000000205       0x34 ../../spresense-exported-sdk/nuttx/libs/libnuttx.a(sched-sched_getstreams.o)
 .ARM.attributes
                0x0000000000000239       0x34 ../../spresense-exported-sdk/nuttx/libs/libnuttx.a(drivers-syslog_initialize.o)
 .ARM.attributes
                0x000000000000026d       0x34 ../../spresense-exported-sdk/nuttx/libs/libnuttx.a(c-dq_addfirst.o)
 .ARM.attributes
                0x00000000000002a1       0x34 ../../spresense-exported-sdk/nuttx/libs/libnuttx.a(c-lib_filesem.o)
 .ARM.attributes
                0x00000000000002d5       0x34 ../../spresense-exported-sdk/nuttx/libs/libnuttx.a(c-lib_libvsprintf.o)
 .ARM.attributes
                0x0000000000000309       0x34 ../../spresense-exported-sdk/nuttx/libs/libnuttx.a(c-lib_memset.o)
 .ARM.attributes
                0x000000000000033d       0x34 ../../spresense-exported-sdk/nuttx/libs/libnuttx.a(c-lib_stdoutstream.o)
 .ARM.attributes
                0x0000000000000371       0x34 ../../spresense-exported-sdk/nuttx/libs/libnuttx.a(c-lib_strncpy.o)
 .ARM.attributes
                0x00000000000003a5       0x34 ../../spresense-exported-sdk/nuttx/libs/libnuttx.a(c-lib_strnlen.o)
 .ARM.attributes
                0x00000000000003d9       0x34 ../../spresense-exported-sdk/nuttx/libs/libnuttx.a(c-lib_ultoa_invert.o)
 .ARM.attributes
                0x000000000000040d       0x34 ../../spresense-exported-sdk/nuttx/libs/libnuttx.a(c-sem_init.o)
 .ARM.attributes
                0x0000000000000441       0x34 ../../spresense-exported-sdk/nuttx/libs/libnuttx.a(mm-umm_initialize.o)
 .ARM.attributes
                0x0000000000000475       0x34 ../../spresense-exported-sdk/nuttx/libs/libnuttx.a(arch-cxd56_allocateheap.o)
 .ARM.attributes
                0x00000000000004a9       0x34 ../../spresense-exported-sdk/nuttx/libs/libnuttx.a(arch-cxd56_clock.o)
 .ARM.attributes
                0x00000000000004dd       0x34 ../../spresense-exported-sdk/nuttx/libs/libnuttx.a(arch-cxd56_delay.o)
 .ARM.attributes
                0x0000000000000511       0x34 ../../spresense-exported-sdk/nuttx/libs/libnuttx.a(arch-cxd56_idle.o)
 .ARM.attributes
                0x0000000000000545       0x34 ../../spresense-exported-sdk/nuttx/libs/libnuttx.a(arch-cxd56_pinconfig.o)
 .ARM.attributes
                0x0000000000000579       0x34 ../../spresense-exported-sdk/nuttx/libs/libnuttx.a(arch-cxd56_powermgr.o)
 .ARM.attributes
                0x00000000000005ad       0x34 ../../spresense-exported-sdk/nuttx/libs/libnuttx.a(arch-cxd56_serial.o)
 .ARM.attributes
                0x00000000000005e1       0x20 ../../spresense-exported-sdk/nuttx/libs/libnuttx.a(arch-up_exception.o)
 .ARM.attributes
                0x0000000000000601       0x34 ../../spresense-exported-sdk/nuttx/libs/libnuttx.a(arch-up_initialize.o)
 .ARM.attributes
                0x0000000000000635       0x34 ../../spresense-exported-sdk/nuttx/libs/libnuttx.a(arch-up_initialstate.o)
 .ARM.attributes
                0x0000000000000669       0x34 ../../spresense-exported-sdk/nuttx/libs/libnuttx.a(arch-up_interruptcontext.o)
 .ARM.attributes
                0x000000000000069d       0x34 ../../spresense-exported-sdk/nuttx/libs/libnuttx.a(arch-up_modifyreg32.o)
 .ARM.attributes
                0x00000000000006d1       0x34 ../../spresense-exported-sdk/nuttx/libs/libnuttx.a(net-net_initialize.o)
 .ARM.attributes
                0x0000000000000705       0x34 ../../spresense-exported-sdk/nuttx/libs/libnuttx.a(net-net_lock.o)
 .ARM.attributes
                0x0000000000000739       0x34 ../../spresense-exported-sdk/nuttx/libs/libnuttx.a(net-usrsock_conn.o)
 .ARM.attributes
                0x000000000000076d       0x34 ../../spresense-exported-sdk/nuttx/libs/libnuttx.a(net-usrsock_dev.o)
 .ARM.attributes
                0x00000000000007a1       0x34 ../../spresense-exported-sdk/nuttx/libs/libnuttx.a(net-usrsock_event.o)
 .ARM.attributes
                0x00000000000007d5       0x34 ../../spresense-exported-sdk/nuttx/libs/libnuttx.a(fs-fs_initialize.o)
 .ARM.attributes
                0x0000000000000809       0x34 ../../spresense-exported-sdk/nuttx/libs/libnuttx.a(fs-fs_inode.o)
 .ARM.attributes
                0x000000000000083d       0x34 ../../spresense-exported-sdk/nuttx/libs/libnuttx.a(fs-fs_registerdriver.o)
 .ARM.attributes
                0x0000000000000871       0x34 ../../spresense-exported-sdk/nuttx/libs/libnuttx.a(fs-mq_open.o)
 .ARM.attributes
                0x00000000000008a5       0x34 ../../spresense-exported-sdk/nuttx/libs/libnuttx.a(binfmt-binfmt_initialize.o)
 .ARM.attributes
                0x00000000000008d9       0x34 ../../spresense-exported-sdk/nuttx/libs/libnuttx.a(sched-clock_gettime.o)
 .ARM.attributes
                0x000000000000090d       0x34 ../../spresense-exported-sdk/nuttx/libs/libnuttx.a(sched-clock_initialize.o)
 .ARM.attributes
                0x0000000000000941       0x34 ../../spresense-exported-sdk/nuttx/libs/libnuttx.a(sched-clock_systimespec.o)
 .ARM.attributes
                0x0000000000000975       0x34 ../../spresense-exported-sdk/nuttx/libs/libnuttx.a(sched-clock_ticks2time.o)
 .ARM.attributes
                0x00000000000009a9       0x34 ../../spresense-exported-sdk/nuttx/libs/libnuttx.a(sched-errno_getptr.o)
 .ARM.attributes
                0x00000000000009dd       0x34 ../../spresense-exported-sdk/nuttx/libs/libnuttx.a(sched-group_create.o)
 .ARM.attributes
                0x0000000000000a11       0x34 ../../spresense-exported-sdk/nuttx/libs/libnuttx.a(sched-group_find.o)
 .ARM.attributes
                0x0000000000000a45       0x34 ../../spresense-exported-sdk/nuttx/libs/libnuttx.a(sched-group_setupidlefiles.o)
 .ARM.attributes
                0x0000000000000a79       0x34 ../../spresense-exported-sdk/nuttx/libs/libnuttx.a(sched-group_setupstreams.o)
 .ARM.attributes
                0x0000000000000aad       0x34 ../../spresense-exported-sdk/nuttx/libs/libnuttx.a(sched-irq_attach.o)
 .ARM.attributes
                0x0000000000000ae1       0x34 ../../spresense-exported-sdk/nuttx/libs/libnuttx.a(sched-irq_initialize.o)
 .ARM.attributes
                0x0000000000000b15       0x34 ../../spresense-exported-sdk/nuttx/libs/libnuttx.a(sched-irq_unexpectedisr.o)
 .ARM.attributes
                0x0000000000000b49       0x34 ../../spresense-exported-sdk/nuttx/libs/libnuttx.a(sched-mq_descreate.o)
 .ARM.attributes
                0x0000000000000b7d       0x34 ../../spresense-exported-sdk/nuttx/libs/libnuttx.a(sched-mq_initialize.o)
 .ARM.attributes
                0x0000000000000bb1       0x34 ../../spresense-exported-sdk/nuttx/libs/libnuttx.a(sched-mq_msgqalloc.o)
 .ARM.attributes
                0x0000000000000be5       0x34 ../../spresense-exported-sdk/nuttx/libs/libnuttx.a(sched-mq_msgqfree.o)
 .ARM.attributes
                0x0000000000000c19       0x34 ../../spresense-exported-sdk/nuttx/libs/libnuttx.a(sched-mq_receive.o)
 .ARM.attributes
                0x0000000000000c4d       0x34 ../../spresense-exported-sdk/nuttx/libs/libnuttx.a(sched-mq_send.o)
 .ARM.attributes
                0x0000000000000c81       0x34 ../../spresense-exported-sdk/nuttx/libs/libnuttx.a(sched-mq_sndinternal.o)
 .ARM.attributes
                0x0000000000000cb5       0x34 ../../spresense-exported-sdk/nuttx/libs/libnuttx.a(sched-nx_bringup.o)
 .ARM.attributes
                0x0000000000000ce9       0x34 ../../spresense-exported-sdk/nuttx/libs/libnuttx.a(sched-sched_free.o)
 .ARM.attributes
                0x0000000000000d1d       0x34 ../../spresense-exported-sdk/nuttx/libs/libnuttx.a(sched-sched_lock.o)
 .ARM.attributes
                0x0000000000000d51       0x34 ../../spresense-exported-sdk/nuttx/libs/libnuttx.a(sched-sched_self.o)
 .ARM.attributes
                0x0000000000000d85       0x34 ../../spresense-exported-sdk/nuttx/libs/libnuttx.a(sched-sched_unlock.o)
 .ARM.attributes
                0x0000000000000db9       0x34 ../../spresense-exported-sdk/nuttx/libs/libnuttx.a(sched-sem_destroy.o)
 .ARM.attributes
                0x0000000000000ded       0x34 ../../spresense-exported-sdk/nuttx/libs/libnuttx.a(sched-sem_post.o)
 .ARM.attributes
                0x0000000000000e21       0x34 ../../spresense-exported-sdk/nuttx/libs/libnuttx.a(sched-sem_timedwait.o)
 .ARM.attributes
                0x0000000000000e55       0x34 ../../spresense-exported-sdk/nuttx/libs/libnuttx.a(sched-sem_timeout.o)
 .ARM.attributes
                0x0000000000000e89       0x34 ../../spresense-exported-sdk/nuttx/libs/libnuttx.a(sched-sem_trywait.o)
 .ARM.attributes
                0x0000000000000ebd       0x34 ../../spresense-exported-sdk/nuttx/libs/libnuttx.a(sched-sem_waitirq.o)
 .ARM.attributes
                0x0000000000000ef1       0x34 ../../spresense-exported-sdk/nuttx/libs/libnuttx.a(sched-sem_wait.o)
 .ARM.attributes
                0x0000000000000f25       0x34 ../../spresense-exported-sdk/nuttx/libs/libnuttx.a(sched-sig_notification.o)
 .ARM.attributes
                0x0000000000000f59       0x34 ../../spresense-exported-sdk/nuttx/libs/libnuttx.a(sched-task_create.o)
 .ARM.attributes
                0x0000000000000f8d       0x34 ../../spresense-exported-sdk/nuttx/libs/libnuttx.a(sched-task_getpid.o)
 .ARM.attributes
                0x0000000000000fc1       0x34 ../../spresense-exported-sdk/nuttx/libs/libnuttx.a(sched-task_setup.o)
 .ARM.attributes
                0x0000000000000ff5       0x34 ../../spresense-exported-sdk/nuttx/libs/libnuttx.a(sched-task_start.o)
 .ARM.attributes
                0x0000000000001029       0x34 ../../spresense-exported-sdk/nuttx/libs/libnuttx.a(sched-wd_cancel.o)
 .ARM.attributes
                0x000000000000105d       0x34 ../../spresense-exported-sdk/nuttx/libs/libnuttx.a(sched-wd_create.o)
 .ARM.attributes
                0x0000000000001091       0x34 ../../spresense-exported-sdk/nuttx/libs/libnuttx.a(sched-wd_delete.o)
 .ARM.attributes
                0x00000000000010c5       0x34 ../../spresense-exported-sdk/nuttx/libs/libnuttx.a(sched-wd_initialize.o)
 .ARM.attributes
                0x00000000000010f9       0x34 ../../spresense-exported-sdk/nuttx/libs/libnuttx.a(sched-wd_start.o)
 .ARM.attributes
                0x000000000000112d       0x34 ../../spresense-exported-sdk/nuttx/libs/libnuttx.a(drivers-dev_null.o)
 .ARM.attributes
                0x0000000000001161       0x34 ../../spresense-exported-sdk/nuttx/libs/libnuttx.a(drivers-serial_io.o)
 .ARM.attributes
                0x0000000000001195       0x34 ../../spresense-exported-sdk/nuttx/libs/libnuttx.a(drivers-serial.o)
 .ARM.attributes
                0x00000000000011c9       0x34 ../../spresense-exported-sdk/nuttx/libs/libnuttx.a(drivers-syslog_consolechannel.o)
 .ARM.attributes
                0x00000000000011fd       0x34 ../../spresense-exported-sdk/nuttx/libs/libnuttx.a(drivers-syslog_device.o)
 .ARM.attributes
                0x0000000000001231       0x34 ../../spresense-exported-sdk/nuttx/libs/libnuttx.a(c-dq_addlast.o)
 .ARM.attributes
                0x0000000000001265       0x34 ../../spresense-exported-sdk/nuttx/libs/libnuttx.a(c-dq_remfirst.o)
 .ARM.attributes
                0x0000000000001299       0x34 ../../spresense-exported-sdk/nuttx/libs/libnuttx.a(c-dq_rem.o)
 .ARM.attributes
                0x00000000000012cd       0x34 ../../spresense-exported-sdk/nuttx/libs/libnuttx.a(c-lib_cfgetspeed.o)
 .ARM.attributes
                0x0000000000001301       0x34 ../../spresense-exported-sdk/nuttx/libs/libnuttx.a(c-lib_cfsetspeed.o)
 .ARM.attributes
                0x0000000000001335       0x34 ../../spresense-exported-sdk/nuttx/libs/libnuttx.a(c-lib_dtoa_engine.o)
 .ARM.attributes
                0x0000000000001369       0x34 ../../spresense-exported-sdk/nuttx/libs/libnuttx.a(c-lib_fputc.o)
 .ARM.attributes
                0x000000000000139d       0x34 ../../spresense-exported-sdk/nuttx/libs/libnuttx.a(c-lib_libfflush.o)
 .ARM.attributes
                0x00000000000013d1       0x34 ../../spresense-exported-sdk/nuttx/libs/libnuttx.a(c-lib_libfwrite.o)
 .ARM.attributes
                0x0000000000001405       0x34 ../../spresense-exported-sdk/nuttx/libs/libnuttx.a(c-lib_libnoflush.o)
 .ARM.attributes
                0x0000000000001439       0x34 ../../spresense-exported-sdk/nuttx/libs/libnuttx.a(c-lib_memcpy.o)
 .ARM.attributes
                0x000000000000146d       0x34 ../../spresense-exported-sdk/nuttx/libs/libnuttx.a(c-lib_memmove.o)
 .ARM.attributes
                0x00000000000014a1       0x34 ../../spresense-exported-sdk/nuttx/libs/libnuttx.a(c-lib_rdflush.o)
 .ARM.attributes
                0x00000000000014d5       0x34 ../../spresense-exported-sdk/nuttx/libs/libnuttx.a(c-lib_snprintf.o)
 .ARM.attributes
                0x0000000000001509       0x34 ../../spresense-exported-sdk/nuttx/libs/libnuttx.a(c-lib_strcpy.o)
 .ARM.attributes
                0x000000000000153d       0x34 ../../spresense-exported-sdk/nuttx/libs/libnuttx.a(c-lib_strdup.o)
 .ARM.attributes
                0x0000000000001571       0x34 ../../spresense-exported-sdk/nuttx/libs/libnuttx.a(c-lib_stream.o)
 .ARM.attributes
                0x00000000000015a5       0x34 ../../spresense-exported-sdk/nuttx/libs/libnuttx.a(c-lib_strlen.o)
 .ARM.attributes
                0x00000000000015d9       0x34 ../../spresense-exported-sdk/nuttx/libs/libnuttx.a(c-sem_getvalue.o)
 .ARM.attributes
                0x000000000000160d       0x34 ../../spresense-exported-sdk/nuttx/libs/libnuttx.a(c-sem_setprotocol.o)
 .ARM.attributes
                0x0000000000001641       0x34 ../../spresense-exported-sdk/nuttx/libs/libnuttx.a(c-sq_addafter.o)
 .ARM.attributes
                0x0000000000001675       0x34 ../../spresense-exported-sdk/nuttx/libs/libnuttx.a(c-sq_addfirst.o)
 .ARM.attributes
                0x00000000000016a9       0x34 ../../spresense-exported-sdk/nuttx/libs/libnuttx.a(c-sq_addlast.o)
 .ARM.attributes
                0x00000000000016dd       0x34 ../../spresense-exported-sdk/nuttx/libs/libnuttx.a(c-sq_count.o)
 .ARM.attributes
                0x0000000000001711       0x34 ../../spresense-exported-sdk/nuttx/libs/libnuttx.a(c-sq_remafter.o)
 .ARM.attributes
                0x0000000000001745       0x34 ../../spresense-exported-sdk/nuttx/libs/libnuttx.a(c-sq_remfirst.o)
 .ARM.attributes
                0x0000000000001779       0x34 ../../spresense-exported-sdk/nuttx/libs/libnuttx.a(c-sq_rem.o)
 .ARM.attributes
                0x00000000000017ad       0x34 ../../spresense-exported-sdk/nuttx/libs/libnuttx.a(mm-mm_initialize.o)
 .ARM.attributes
                0x00000000000017e1       0x34 ../../spresense-exported-sdk/nuttx/libs/libnuttx.a(mm-mm_sem.o)
 .ARM.attributes
                0x0000000000001815       0x34 ../../spresense-exported-sdk/nuttx/libs/libnuttx.a(mm-umm_free.o)
 .ARM.attributes
                0x0000000000001849       0x39 ../../spresense-exported-sdk/nuttx/libs/libnuttx.a(mm-umm_globals.o)
 .ARM.attributes
                0x0000000000001882       0x34 ../../spresense-exported-sdk/nuttx/libs/libnuttx.a(mm-umm_malloc.o)
 .ARM.attributes
                0x00000000000018b6       0x34 ../../spresense-exported-sdk/nuttx/libs/libnuttx.a(mm-umm_sem.o)
 .ARM.attributes
                0x00000000000018ea       0x34 ../../spresense-exported-sdk/nuttx/libs/libnuttx.a(mm-umm_zalloc.o)
 .ARM.attributes
                0x000000000000191e       0x25 ../../spresense-exported-sdk/nuttx/libs/libnuttx.a(arch-cxd56_farapistub.o)
 .ARM.attributes
                0x0000000000001943       0x34 ../../spresense-exported-sdk/nuttx/libs/libnuttx.a(arch-cxd56_icc.o)
 .ARM.attributes
                0x0000000000001977       0x34 ../../spresense-exported-sdk/nuttx/libs/libnuttx.a(arch-cxd56_irq.o)
 .ARM.attributes
                0x00000000000019ab       0x34 ../../spresense-exported-sdk/nuttx/libs/libnuttx.a(arch-cxd56_pmic.o)
 .ARM.attributes
                0x00000000000019df       0x34 ../../spresense-exported-sdk/nuttx/libs/libnuttx.a(arch-cxd56_rtc.o)
 .ARM.attributes
                0x0000000000001a13       0x34 ../../spresense-exported-sdk/nuttx/libs/libnuttx.a(arch-cxd56_timerisr.o)
 .ARM.attributes
                0x0000000000001a47       0x34 ../../spresense-exported-sdk/nuttx/libs/libnuttx.a(arch-cxd56_usbdev.o)
 .ARM.attributes
                0x0000000000001a7b       0x34 ../../spresense-exported-sdk/nuttx/libs/libnuttx.a(arch-up_assert.o)
 .ARM.attributes
                0x0000000000001aaf       0x34 ../../spresense-exported-sdk/nuttx/libs/libnuttx.a(arch-up_blocktask.o)
 .ARM.attributes
                0x0000000000001ae3       0x34 ../../spresense-exported-sdk/nuttx/libs/libnuttx.a(arch-up_checkstack.o)
 .ARM.attributes
                0x0000000000001b17       0x34 ../../spresense-exported-sdk/nuttx/libs/libnuttx.a(arch-up_copyfullstate.o)
 .ARM.attributes
                0x0000000000001b4b       0x34 ../../spresense-exported-sdk/nuttx/libs/libnuttx.a(arch-up_createstack.o)
 .ARM.attributes
                0x0000000000001b7f       0x34 ../../spresense-exported-sdk/nuttx/libs/libnuttx.a(arch-up_doirq.o)
 .ARM.attributes
                0x0000000000001bb3       0x34 ../../spresense-exported-sdk/nuttx/libs/libnuttx.a(arch-up_hardfault.o)
 .ARM.attributes
                0x0000000000001be7       0x34 ../../spresense-exported-sdk/nuttx/libs/libnuttx.a(arch-up_releasepending.o)
 .ARM.attributes
                0x0000000000001c1b       0x34 ../../spresense-exported-sdk/nuttx/libs/libnuttx.a(arch-up_releasestack.o)
 .ARM.attributes
                0x0000000000001c4f       0x20 ../../spresense-exported-sdk/nuttx/libs/libnuttx.a(arch-up_saveusercontext.o)
 .ARM.attributes
                0x0000000000001c6f       0x34 ../../spresense-exported-sdk/nuttx/libs/libnuttx.a(arch-up_stackframe.o)
 .ARM.attributes
                0x0000000000001ca3       0x34 ../../spresense-exported-sdk/nuttx/libs/libnuttx.a(arch-up_svcall.o)
 .ARM.attributes
                0x0000000000001cd7       0x20 ../../spresense-exported-sdk/nuttx/libs/libnuttx.a(arch-up_switchcontext.o)
 .ARM.attributes
                0x0000000000001cf7       0x34 ../../spresense-exported-sdk/nuttx/libs/libnuttx.a(arch-up_unblocktask.o)
 .ARM.attributes
                0x0000000000001d2b       0x34 ../../spresense-exported-sdk/nuttx/libs/libnuttx.a(net-devif_callback.o)
 .ARM.attributes
                0x0000000000001d5f       0x34 ../../spresense-exported-sdk/nuttx/libs/libnuttx.a(net-devif_initialize.o)
 .ARM.attributes
                0x0000000000001d93       0x34 ../../spresense-exported-sdk/nuttx/libs/libnuttx.a(net-netdev_verify.o)
 .ARM.attributes
                0x0000000000001dc7       0x34 ../../spresense-exported-sdk/nuttx/libs/libnuttx.a(net-net_sockets.o)
 .ARM.attributes
                0x0000000000001dfb       0x34 ../../spresense-exported-sdk/nuttx/libs/libnuttx.a(fs-fs_close.o)
 .ARM.attributes
                0x0000000000001e2f       0x34 ../../spresense-exported-sdk/nuttx/libs/libnuttx.a(fs-fs_dupfd2.o)
 .ARM.attributes
                0x0000000000001e63       0x34 ../../spresense-exported-sdk/nuttx/libs/libnuttx.a(fs-fs_fdopen.o)
 .ARM.attributes
                0x0000000000001e97       0x34 ../../spresense-exported-sdk/nuttx/libs/libnuttx.a(fs-fs_fileopen.o)
 .ARM.attributes
                0x0000000000001ecb       0x34 ../../spresense-exported-sdk/nuttx/libs/libnuttx.a(fs-fs_files.o)
 .ARM.attributes
                0x0000000000001eff       0x34 ../../spresense-exported-sdk/nuttx/libs/libnuttx.a(fs-fs_getfilep.o)
 .ARM.attributes
                0x0000000000001f33       0x34 ../../spresense-exported-sdk/nuttx/libs/libnuttx.a(fs-fs_inodeaddref.o)
 .ARM.attributes
                0x0000000000001f67       0x34 ../../spresense-exported-sdk/nuttx/libs/libnuttx.a(fs-fs_inodefind.o)
 .ARM.attributes
                0x0000000000001f9b       0x34 ../../spresense-exported-sdk/nuttx/libs/libnuttx.a(fs-fs_inoderelease.o)
 .ARM.attributes
                0x0000000000001fcf       0x34 ../../spresense-exported-sdk/nuttx/libs/libnuttx.a(fs-fs_inodereserve.o)
 .ARM.attributes
                0x0000000000002003       0x34 ../../spresense-exported-sdk/nuttx/libs/libnuttx.a(fs-fs_inodesearch.o)
 .ARM.attributes
                0x0000000000002037       0x34 ../../spresense-exported-sdk/nuttx/libs/libnuttx.a(fs-fs_open.o)
 .ARM.attributes
                0x000000000000206b       0x34 ../../spresense-exported-sdk/nuttx/libs/libnuttx.a(fs-fs_procfs.o)
 .ARM.attributes
                0x000000000000209f       0x34 ../../spresense-exported-sdk/nuttx/libs/libnuttx.a(fs-fs_procfsproc.o)
 .ARM.attributes
                0x00000000000020d3       0x34 ../../spresense-exported-sdk/nuttx/libs/libnuttx.a(fs-fs_procfsuptime.o)
 .ARM.attributes
                0x0000000000002107       0x34 ../../spresense-exported-sdk/nuttx/libs/libnuttx.a(fs-fs_procfsutil.o)
 .ARM.attributes
                0x000000000000213b       0x34 ../../spresense-exported-sdk/nuttx/libs/libnuttx.a(fs-fs_write.o)
 .ARM.attributes
                0x000000000000216f       0x34 ../../spresense-exported-sdk/nuttx/libs/libnuttx.a(fs-smartfs_procfs.o)
 .ARM.attributes
                0x00000000000021a3       0x34 ../../spresense-exported-sdk/nuttx/libs/libnuttx.a(fs-smartfs_utils.o)
 .ARM.attributes
                0x00000000000021d7       0x34 ../../spresense-exported-sdk/nuttx/libs/libnuttx.a(board-cxd56_crashdump.o)
 .ARM.attributes
                0x000000000000220b       0x34 ../../spresense-exported-sdk/nuttx/libs/libnuttx.a(sched-clock_abstime2ticks.o)
 .ARM.attributes
                0x000000000000223f       0x34 ../../spresense-exported-sdk/nuttx/libs/libnuttx.a(sched-clock_time2ticks.o)
 .ARM.attributes
                0x0000000000002273       0x34 ../../spresense-exported-sdk/nuttx/libs/libnuttx.a(sched-env_dup.o)
 .ARM.attributes
                0x00000000000022a7       0x34 ../../spresense-exported-sdk/nuttx/libs/libnuttx.a(sched-exit.o)
 .ARM.attributes
                0x00000000000022db       0x34 ../../spresense-exported-sdk/nuttx/libs/libnuttx.a(sched-group_childstatus.o)
 .ARM.attributes
                0x000000000000230f       0x34 ../../spresense-exported-sdk/nuttx/libs/libnuttx.a(sched-group_setuptaskfiles.o)
 .ARM.attributes
                0x0000000000002343       0x34 ../../spresense-exported-sdk/nuttx/libs/libnuttx.a(sched-irq_dispatch.o)
 .ARM.attributes
                0x0000000000002377       0x34 ../../spresense-exported-sdk/nuttx/libs/libnuttx.a(sched-kwork_hpthread.o)
 .ARM.attributes
                0x00000000000023ab       0x34 ../../spresense-exported-sdk/nuttx/libs/libnuttx.a(sched-kwork_lpthread.o)
 .ARM.attributes
                0x00000000000023df       0x34 ../../spresense-exported-sdk/nuttx/libs/libnuttx.a(sched-kwork_process.o)
 .ARM.attributes
                0x0000000000002413       0x34 ../../spresense-exported-sdk/nuttx/libs/libnuttx.a(sched-kwork_signal.o)
 .ARM.attributes
                0x0000000000002447       0x34 ../../spresense-exported-sdk/nuttx/libs/libnuttx.a(sched-mq_msgfree.o)
 .ARM.attributes
                0x000000000000247b       0x34 ../../spresense-exported-sdk/nuttx/libs/libnuttx.a(sched-mq_rcvinternal.o)
 .ARM.attributes
                0x00000000000024af       0x34 ../../spresense-exported-sdk/nuttx/libs/libnuttx.a(sched-sched_addblocked.o)
 .ARM.attributes
                0x00000000000024e3       0x34 ../../spresense-exported-sdk/nuttx/libs/libnuttx.a(sched-sched_addprioritized.o)
 .ARM.attributes
                0x0000000000002517       0x34 ../../spresense-exported-sdk/nuttx/libs/libnuttx.a(sched-sched_addreadytorun.o)
 .ARM.attributes
                0x000000000000254b       0x34 ../../spresense-exported-sdk/nuttx/libs/libnuttx.a(sched-sched_foreach.o)
 .ARM.attributes
                0x000000000000257f       0x34 ../../spresense-exported-sdk/nuttx/libs/libnuttx.a(sched-sched_garbage.o)
 .ARM.attributes
                0x00000000000025b3       0x34 ../../spresense-exported-sdk/nuttx/libs/libnuttx.a(sched-sched_getfiles.o)
 .ARM.attributes
                0x00000000000025e7       0x34 ../../spresense-exported-sdk/nuttx/libs/libnuttx.a(sched-sched_getsockets.o)
 .ARM.attributes
                0x000000000000261b       0x34 ../../spresense-exported-sdk/nuttx/libs/libnuttx.a(sched-sched_gettcb.o)
 .ARM.attributes
                0x000000000000264f       0x34 ../../spresense-exported-sdk/nuttx/libs/libnuttx.a(sched-sched_idletask.o)
 .ARM.attributes
                0x0000000000002683       0x34 ../../spresense-exported-sdk/nuttx/libs/libnuttx.a(sched-sched_mergepending.o)
 .ARM.attributes
                0x00000000000026b7       0x34 ../../spresense-exported-sdk/nuttx/libs/libnuttx.a(sched-sched_processtimer.o)
 .ARM.attributes
                0x00000000000026eb       0x34 ../../spresense-exported-sdk/nuttx/libs/libnuttx.a(sched-sched_releasetcb.o)
 .ARM.attributes
                0x000000000000271f       0x34 ../../spresense-exported-sdk/nuttx/libs/libnuttx.a(sched-sched_removeblocked.o)
 .ARM.attributes
                0x0000000000002753       0x34 ../../spresense-exported-sdk/nuttx/libs/libnuttx.a(sched-sched_removereadytorun.o)
 .ARM.attributes
                0x0000000000002787       0x34 ../../spresense-exported-sdk/nuttx/libs/libnuttx.a(sched-sched_resumescheduler.o)
 .ARM.attributes
                0x00000000000027bb       0x34 ../../spresense-exported-sdk/nuttx/libs/libnuttx.a(sched-sched_roundrobin.o)
 .ARM.attributes
                0x00000000000027ef       0x34 ../../spresense-exported-sdk/nuttx/libs/libnuttx.a(sched-sem_reset.o)
 .ARM.attributes
                0x0000000000002823       0x34 ../../spresense-exported-sdk/nuttx/libs/libnuttx.a(sched-sig_dispatch.o)
 .ARM.attributes
                0x0000000000002857       0x34 ../../spresense-exported-sdk/nuttx/libs/libnuttx.a(sched-sig_findaction.o)
 .ARM.attributes
                0x000000000000288b       0x34 ../../spresense-exported-sdk/nuttx/libs/libnuttx.a(sched-sig_initialize.o)
 .ARM.attributes
                0x00000000000028bf       0x34 ../../spresense-exported-sdk/nuttx/libs/libnuttx.a(sched-sig_kill.o)
 .ARM.attributes
                0x00000000000028f3       0x34 ../../spresense-exported-sdk/nuttx/libs/libnuttx.a(sched-sig_procmask.o)
 .ARM.attributes
                0x0000000000002927       0x34 ../../spresense-exported-sdk/nuttx/libs/libnuttx.a(sched-sig_queue.o)
 .ARM.attributes
                0x000000000000295b       0x34 ../../spresense-exported-sdk/nuttx/libs/libnuttx.a(sched-sig_timedwait.o)
 .ARM.attributes
                0x000000000000298f       0x34 ../../spresense-exported-sdk/nuttx/libs/libnuttx.a(sched-sig_unmaskpendingsignal.o)
 .ARM.attributes
                0x00000000000029c3       0x34 ../../spresense-exported-sdk/nuttx/libs/libnuttx.a(sched-sig_usleep.o)
 .ARM.attributes
                0x00000000000029f7       0x34 ../../spresense-exported-sdk/nuttx/libs/libnuttx.a(sched-task_activate.o)
 .ARM.attributes
                0x0000000000002a2b       0x34 ../../spresense-exported-sdk/nuttx/libs/libnuttx.a(sched-task_exithook.o)
 .ARM.attributes
                0x0000000000002a5f       0x34 ../../spresense-exported-sdk/nuttx/libs/libnuttx.a(sched-task_recover.o)
 .ARM.attributes
                0x0000000000002a93       0x34 ../../spresense-exported-sdk/nuttx/libs/libnuttx.a(sched-wd_recover.o)
 .ARM.attributes
                0x0000000000002ac7       0x34 ../../spresense-exported-sdk/nuttx/libs/libnuttx.a(drivers-syslog_channel.o)
 .ARM.attributes
                0x0000000000002afb       0x34 ../../spresense-exported-sdk/nuttx/libs/libnuttx.a(drivers-syslog_flush.o)
 .ARM.attributes
                0x0000000000002b2f       0x39 ../../spresense-exported-sdk/nuttx/libs/libnuttx.a(c-lib_dtoa_data.o)
 .ARM.attributes
                0x0000000000002b68       0x34 ../../spresense-exported-sdk/nuttx/libs/libnuttx.a(c-lib_fseek.o)
 .ARM.attributes
                0x0000000000002b9c       0x34 ../../spresense-exported-sdk/nuttx/libs/libnuttx.a(c-lib_libflushall.o)
 .ARM.attributes
                0x0000000000002bd0       0x34 ../../spresense-exported-sdk/nuttx/libs/libnuttx.a(c-lib_match.o)
 .ARM.attributes
                0x0000000000002c04       0x34 ../../spresense-exported-sdk/nuttx/libs/libnuttx.a(c-lib_memoutstream.o)
 .ARM.attributes
                0x0000000000002c38       0x34 ../../spresense-exported-sdk/nuttx/libs/libnuttx.a(c-lib_nulloutstream.o)
 .ARM.attributes
                0x0000000000002c6c       0x34 ../../spresense-exported-sdk/nuttx/libs/libnuttx.a(c-lib_strchr.o)
 .ARM.attributes
                0x0000000000002ca0       0x34 ../../spresense-exported-sdk/nuttx/libs/libnuttx.a(c-lib_strcmp.o)
 .ARM.attributes
                0x0000000000002cd4       0x34 ../../spresense-exported-sdk/nuttx/libs/libnuttx.a(c-lib_strcspn.o)
 .ARM.attributes
                0x0000000000002d08       0x34 ../../spresense-exported-sdk/nuttx/libs/libnuttx.a(c-lib_streamsem.o)
 .ARM.attributes
                0x0000000000002d3c       0x34 ../../spresense-exported-sdk/nuttx/libs/libnuttx.a(c-lib_strncmp.o)
 .ARM.attributes
                0x0000000000002d70       0x34 ../../spresense-exported-sdk/nuttx/libs/libnuttx.a(c-lib_strtol.o)
 .ARM.attributes
                0x0000000000002da4       0x34 ../../spresense-exported-sdk/nuttx/libs/libnuttx.a(c-lib_strtoul.o)
 .ARM.attributes
                0x0000000000002dd8       0x34 ../../spresense-exported-sdk/nuttx/libs/libnuttx.a(c-lib_syslog.o)
 .ARM.attributes
                0x0000000000002e0c       0x34 ../../spresense-exported-sdk/nuttx/libs/libnuttx.a(c-lib_time.o)
 .ARM.attributes
                0x0000000000002e40       0x34 ../../spresense-exported-sdk/nuttx/libs/libnuttx.a(c-lib_wrflush.o)
 .ARM.attributes
                0x0000000000002e74       0x34 ../../spresense-exported-sdk/nuttx/libs/libnuttx.a(c-sig_addset.o)
 .ARM.attributes
                0x0000000000002ea8       0x34 ../../spresense-exported-sdk/nuttx/libs/libnuttx.a(c-sig_delset.o)
 .ARM.attributes
                0x0000000000002edc       0x34 ../../spresense-exported-sdk/nuttx/libs/libnuttx.a(c-sig_emptyset.o)
 .ARM.attributes
                0x0000000000002f10       0x34 ../../spresense-exported-sdk/nuttx/libs/libnuttx.a(c-sig_ismember.o)
 .ARM.attributes
                0x0000000000002f44       0x34 ../../spresense-exported-sdk/nuttx/libs/libnuttx.a(mm-mm_addfreechunk.o)
 .ARM.attributes
                0x0000000000002f78       0x34 ../../spresense-exported-sdk/nuttx/libs/libnuttx.a(mm-mm_free.o)
 .ARM.attributes
                0x0000000000002fac       0x34 ../../spresense-exported-sdk/nuttx/libs/libnuttx.a(mm-mm_malloc.o)
 .ARM.attributes
                0x0000000000002fe0       0x34 ../../spresense-exported-sdk/nuttx/libs/libnuttx.a(mm-mm_size2ndx.o)
 .ARM.attributes
                0x0000000000003014       0x34 ../../spresense-exported-sdk/nuttx/libs/libnuttx.a(mm-mm_zalloc.o)
 .ARM.attributes
                0x0000000000003048       0x34 ../../spresense-exported-sdk/nuttx/libs/libnuttx.a(mm-umm_heapmember.o)
 .ARM.attributes
                0x000000000000307c       0x34 ../../spresense-exported-sdk/nuttx/libs/libnuttx.a(mm-umm_realloc.o)
 .ARM.attributes
                0x00000000000030b0       0x34 ../../spresense-exported-sdk/nuttx/libs/libnuttx.a(arch-cxd56_backuplog.o)
 .ARM.attributes
                0x00000000000030e4       0x34 ../../spresense-exported-sdk/nuttx/libs/libnuttx.a(arch-cxd56_cpufifo.o)
 .ARM.attributes
                0x0000000000003118       0x34 ../../spresense-exported-sdk/nuttx/libs/libnuttx.a(arch-cxd56_farapi.o)
 .ARM.attributes
                0x000000000000314c       0x34 ../../spresense-exported-sdk/nuttx/libs/libnuttx.a(arch-up_exit.o)
 .ARM.attributes
                0x0000000000003180       0x20 ../../spresense-exported-sdk/nuttx/libs/libnuttx.a(arch-up_fullcontextrestore.o)
 .ARM.attributes
                0x00000000000031a0       0x34 ../../spresense-exported-sdk/nuttx/libs/libnuttx.a(arch-up_reprioritizertr.o)
 .ARM.attributes
                0x00000000000031d4       0x34 ../../spresense-exported-sdk/nuttx/libs/libnuttx.a(arch-up_schedulesigaction.o)
 .ARM.attributes
                0x0000000000003208       0x34 ../../spresense-exported-sdk/nuttx/libs/libnuttx.a(arch-up_sigdeliver.o)
 .ARM.attributes
                0x000000000000323c       0x34 ../../spresense-exported-sdk/nuttx/libs/libnuttx.a(net-net_checksd.o)
 .ARM.attributes
                0x0000000000003270       0x34 ../../spresense-exported-sdk/nuttx/libs/libnuttx.a(net-net_close.o)
 .ARM.attributes
                0x00000000000032a4       0x34 ../../spresense-exported-sdk/nuttx/libs/libnuttx.a(net-netdev_register.o)
 .ARM.attributes
                0x00000000000032d8       0x34 ../../spresense-exported-sdk/nuttx/libs/libnuttx.a(net-net_procfs.o)
 .ARM.attributes
                0x000000000000330c       0x34 ../../spresense-exported-sdk/nuttx/libs/libnuttx.a(net-send.o)
 .ARM.attributes
                0x0000000000003340       0x34 ../../spresense-exported-sdk/nuttx/libs/libnuttx.a(fs-fs_blockproxy.o)
 .ARM.attributes
                0x0000000000003374       0x34 ../../spresense-exported-sdk/nuttx/libs/libnuttx.a(fs-fs_filedetach.o)
 .ARM.attributes
                0x00000000000033a8       0x34 ../../spresense-exported-sdk/nuttx/libs/libnuttx.a(fs-fs_inodefree.o)
 .ARM.attributes
                0x00000000000033dc       0x34 ../../spresense-exported-sdk/nuttx/libs/libnuttx.a(fs-fs_lseek.o)
 .ARM.attributes
                0x0000000000003410       0x34 ../../spresense-exported-sdk/nuttx/libs/libnuttx.a(fs-fs_procfsmeminfo.o)
 .ARM.attributes
                0x0000000000003444       0x34 ../../spresense-exported-sdk/nuttx/libs/libnuttx.a(fs-fs_procfs_mount.o)
 .ARM.attributes
                0x0000000000003478       0x34 ../../spresense-exported-sdk/nuttx/libs/libnuttx.a(fs-fs_stat.o)
 .ARM.attributes
                0x00000000000034ac       0x34 ../../spresense-exported-sdk/nuttx/libs/libnuttx.a(fs-fs_unlink.o)
 .ARM.attributes
                0x00000000000034e0       0x34 ../../spresense-exported-sdk/nuttx/libs/libnuttx.a(sched-group_leave.o)
 .ARM.attributes
                0x0000000000003514       0x34 ../../spresense-exported-sdk/nuttx/libs/libnuttx.a(sched-group_signal.o)
 .ARM.attributes
                0x0000000000003548       0x34 ../../spresense-exported-sdk/nuttx/libs/libnuttx.a(sched-mq_recover.o)
 .ARM.attributes
                0x000000000000357c       0x34 ../../spresense-exported-sdk/nuttx/libs/libnuttx.a(sched-mq_release.o)
 .ARM.attributes
                0x00000000000035b0       0x34 ../../spresense-exported-sdk/nuttx/libs/libnuttx.a(sched-mq_waitirq.o)
 .ARM.attributes
                0x00000000000035e4       0x34 ../../spresense-exported-sdk/nuttx/libs/libnuttx.a(sched-pthread_release.o)
 .ARM.attributes
                0x0000000000003618       0x34 ../../spresense-exported-sdk/nuttx/libs/libnuttx.a(sched-sem_recover.o)
 .ARM.attributes
                0x000000000000364c       0x34 ../../spresense-exported-sdk/nuttx/libs/libnuttx.a(sched-sig_allocpendingsigaction.o)
 .ARM.attributes
                0x0000000000003680       0x34 ../../spresense-exported-sdk/nuttx/libs/libnuttx.a(sched-sig_cleanup.o)
 .ARM.attributes
                0x00000000000036b4       0x34 ../../spresense-exported-sdk/nuttx/libs/libnuttx.a(sched-sig_deliver.o)
 .ARM.attributes
                0x00000000000036e8       0x34 ../../spresense-exported-sdk/nuttx/libs/libnuttx.a(sched-sig_lowest.o)
 .ARM.attributes
                0x000000000000371c       0x34 ../../spresense-exported-sdk/nuttx/libs/libnuttx.a(sched-sig_nanosleep.o)
 .ARM.attributes
                0x0000000000003750       0x34 ../../spresense-exported-sdk/nuttx/libs/libnuttx.a(sched-sig_pending.o)
 .ARM.attributes
                0x0000000000003784       0x34 ../../spresense-exported-sdk/nuttx/libs/libnuttx.a(sched-sig_releasependingsigaction.o)
 .ARM.attributes
                0x00000000000037b8       0x34 ../../spresense-exported-sdk/nuttx/libs/libnuttx.a(sched-sig_releasependingsignal.o)
 .ARM.attributes
                0x00000000000037ec       0x34 ../../spresense-exported-sdk/nuttx/libs/libnuttx.a(sched-sig_removependingsignal.o)
 .ARM.attributes
                0x0000000000003820       0x34 ../../spresense-exported-sdk/nuttx/libs/libnuttx.a(sched-task_exit.o)
 .ARM.attributes
                0x0000000000003854       0x34 ../../spresense-exported-sdk/nuttx/libs/libnuttx.a(sched-task_terminate.o)
 .ARM.attributes
                0x0000000000003888       0x34 ../../spresense-exported-sdk/nuttx/libs/libnuttx.a(drivers-bchdev_register.o)
 .ARM.attributes
                0x00000000000038bc       0x34 ../../spresense-exported-sdk/nuttx/libs/libnuttx.a(drivers-bchlib_setup.o)
 .ARM.attributes
                0x00000000000038f0       0x34 ../../spresense-exported-sdk/nuttx/libs/libnuttx.a(drivers-bchlib_teardown.o)
 .ARM.attributes
                0x0000000000003924       0x34 ../../spresense-exported-sdk/nuttx/libs/libnuttx.a(drivers-vsyslog.o)
 .ARM.attributes
                0x0000000000003958       0x34 ../../spresense-exported-sdk/nuttx/libs/libnuttx.a(c-lib_basename.o)
 .ARM.attributes
                0x000000000000398c       0x34 ../../spresense-exported-sdk/nuttx/libs/libnuttx.a(c-lib_checkbase.o)
 .ARM.attributes
                0x00000000000039c0       0x34 ../../spresense-exported-sdk/nuttx/libs/libnuttx.a(c-lib_isbasedigit.o)
 .ARM.attributes
                0x00000000000039f4       0x34 ../../spresense-exported-sdk/nuttx/libs/libnuttx.a(c-lib_setlogmask.o)
 .ARM.attributes
                0x0000000000003a28       0x34 ../../spresense-exported-sdk/nuttx/libs/libnuttx.a(c-lib_skipspace.o)
 .ARM.attributes
                0x0000000000003a5c       0x34 ../../spresense-exported-sdk/nuttx/libs/libnuttx.a(c-lib_strrchr.o)
 .ARM.attributes
                0x0000000000003a90       0x34 ../../spresense-exported-sdk/nuttx/libs/libnuttx.a(c-lib_vsnprintf.o)
 .ARM.attributes
                0x0000000000003ac4       0x34 ../../spresense-exported-sdk/nuttx/libs/libnuttx.a(mm-mm_heapmember.o)
 .ARM.attributes
                0x0000000000003af8       0x34 ../../spresense-exported-sdk/nuttx/libs/libnuttx.a(mm-mm_realloc.o)
 .ARM.attributes
                0x0000000000003b2c       0x34 ../../spresense-exported-sdk/nuttx/libs/libnuttx.a(mm-mm_shrinkchunk.o)
 .ARM.attributes
                0x0000000000003b60       0x34 ../../spresense-exported-sdk/nuttx/libs/libnuttx.a(mm-umm_mallinfo.o)
 .ARM.attributes
                0x0000000000003b94       0x34 ../../spresense-exported-sdk/nuttx/libs/libnuttx.a(net-netdev_count.o)
 .ARM.attributes
                0x0000000000003bc8       0x34 ../../spresense-exported-sdk/nuttx/libs/libnuttx.a(net-netdev_findbyindex.o)
 .ARM.attributes
                0x0000000000003bfc       0x34 ../../spresense-exported-sdk/nuttx/libs/libnuttx.a(net-netdev_findbyname.o)
 .ARM.attributes
                0x0000000000003c30       0x34 ../../spresense-exported-sdk/nuttx/libs/libnuttx.a(net-netdev_statistics.o)
 .ARM.attributes
                0x0000000000003c64       0x34 ../../spresense-exported-sdk/nuttx/libs/libnuttx.a(fs-fs_closeblockdriver.o)
 .ARM.attributes
                0x0000000000003c98       0x34 ../../spresense-exported-sdk/nuttx/libs/libnuttx.a(fs-fs_foreachmountpoint.o)
 .ARM.attributes
                0x0000000000003ccc       0x34 ../../spresense-exported-sdk/nuttx/libs/libnuttx.a(fs-fs_gettype.o)
 .ARM.attributes
                0x0000000000003d00       0x34 ../../spresense-exported-sdk/nuttx/libs/libnuttx.a(fs-fs_inoderemove.o)
 .ARM.attributes
                0x0000000000003d34       0x34 ../../spresense-exported-sdk/nuttx/libs/libnuttx.a(fs-fs_openblockdriver.o)
 .ARM.attributes
                0x0000000000003d68       0x34 ../../spresense-exported-sdk/nuttx/libs/libnuttx.a(fs-mq_close.o)
 .ARM.attributes
                0x0000000000003d9c       0x34 ../../spresense-exported-sdk/nuttx/libs/libnuttx.a(sched-clock_timespec_subtract.o)
 .ARM.attributes
                0x0000000000003dd0       0x34 ../../spresense-exported-sdk/nuttx/libs/libnuttx.a(sched-env_release.o)
 .ARM.attributes
                0x0000000000003e04       0x34 ../../spresense-exported-sdk/nuttx/libs/libnuttx.a(sched-group_foreachchild.o)
 .ARM.attributes
                0x0000000000003e38       0x34 ../../spresense-exported-sdk/nuttx/libs/libnuttx.a(sched-mq_desclose.o)
 .ARM.attributes
                0x0000000000003e6c       0x34 ../../spresense-exported-sdk/nuttx/libs/libnuttx.a(sched-sig_action.o)
 .ARM.attributes
                0x0000000000003ea0       0x34 ../../spresense-exported-sdk/nuttx/libs/libnuttx.a(drivers-bchdev_driver.o)
 .ARM.attributes
                0x0000000000003ed4       0x34 ../../spresense-exported-sdk/nuttx/libs/libnuttx.a(drivers-bchlib_cache.o)
 .ARM.attributes
                0x0000000000003f08       0x34 ../../spresense-exported-sdk/nuttx/libs/libnuttx.a(drivers-bchlib_read.o)
 .ARM.attributes
                0x0000000000003f3c       0x34 ../../spresense-exported-sdk/nuttx/libs/libnuttx.a(drivers-bchlib_sem.o)
 .ARM.attributes
                0x0000000000003f70       0x34 ../../spresense-exported-sdk/nuttx/libs/libnuttx.a(drivers-bchlib_write.o)
 .ARM.attributes
                0x0000000000003fa4       0x34 ../../spresense-exported-sdk/nuttx/libs/libnuttx.a(drivers-syslog_emergstream.o)
 .ARM.attributes
                0x0000000000003fd8       0x34 ../../spresense-exported-sdk/nuttx/libs/libnuttx.a(drivers-syslog_force.o)
 .ARM.attributes
                0x000000000000400c       0x34 ../../spresense-exported-sdk/nuttx/libs/libnuttx.a(drivers-syslog_stream.o)
 .ARM.attributes
                0x0000000000004040       0x34 ../../spresense-exported-sdk/nuttx/libs/libnuttx.a(c-lib_etherntoa.o)
 .ARM.attributes
                0x0000000000004074       0x34 ../../spresense-exported-sdk/nuttx/libs/libnuttx.a(c-lib_sprintf.o)
 .ARM.attributes
                0x00000000000040a8       0x34 ../../spresense-exported-sdk/nuttx/libs/libnuttx.a(mm-mm_mallinfo.o)
 .ARM.attributes
                0x00000000000040dc       0x34 ../../spresense-exported-sdk/nuttx/libs/libnuttx.a(fs-fs_findblockdriver.o)
 .ARM.attributes
                0x0000000000004110       0x34 ../../spresense-exported-sdk/nuttx/libs/libnuttx.a(fs-fs_foreachinode.o)
 .ARM.attributes
                0x0000000000004144       0x34 ../../spresense-exported-sdk/nuttx/libs/libnuttx.a(fs-fs_mtdproxy.o)
 .ARM.attributes
                0x0000000000004178       0x34 ../../spresense-exported-sdk/nuttx/libs/libnuttx.a(drivers-ftl.o)
 .ARM.attributes
                0x00000000000041ac       0x34 ../../spresense-exported-sdk/nuttx/libs/libnuttx.a(drivers-syslog_putc.o)
 .ARM.attributes
                0x00000000000041e0       0x34 ../../spresense-exported-sdk/nuttx/libs/libnuttx.a(fs-fs_findmtddriver.o)
 .ARM.attributes
                0x0000000000004214       0x34 ../../spresense-exported-sdk/nuttx/libs/libnuttx.a(fs-fs_registerblockdriver.o)
 .ARM.attributes
                0x0000000000004248       0x34 ../../spresense-exported-sdk/nuttx/libs/libapps.a(nsh_main.o)
 .ARM.attributes
                0x000000000000427c       0x34 ../../spresense-exported-sdk/nuttx/libs/libapps.a(lateinit.o)
 .ARM.attributes
                0x00000000000042b0       0x39 ../../spresense-exported-sdk/nuttx/libs/libapps.a(gnu_cxxinitialize.o)
 .ARM.attributes
                0x00000000000042e9       0x34 ../../spresense-exported-sdk/nuttx/libs/libapps.a(nsh_init.o)
 .ARM.attributes
                0x000000000000431d       0x34 ../../spresense-exported-sdk/nuttx/libs/libapps.a(nsh_parse.o)
 .ARM.attributes
                0x0000000000004351       0x34 ../../spresense-exported-sdk/nuttx/libs/libapps.a(nsh_command.o)
 .ARM.attributes
                0x0000000000004385       0x34 ../../spresense-exported-sdk/nuttx/libs/libapps.a(nsh_fscmds.o)
 .ARM.attributes
                0x00000000000043b9       0x34 ../../spresense-exported-sdk/nuttx/libs/libapps.a(nsh_ddcmd.o)
 .ARM.attributes
                0x00000000000043ed       0x34 ../../spresense-exported-sdk/nuttx/libs/libapps.a(nsh_proccmds.o)
 .ARM.attributes
                0x0000000000004421       0x34 ../../spresense-exported-sdk/nuttx/libs/libapps.a(nsh_mmcmds.o)
 .ARM.attributes
                0x0000000000004455       0x34 ../../spresense-exported-sdk/nuttx/libs/libapps.a(nsh_timcmds.o)
 .ARM.attributes
                0x0000000000004489       0x34 ../../spresense-exported-sdk/nuttx/libs/libapps.a(nsh_envcmds.o)
 .ARM.attributes
                0x00000000000044bd       0x34 ../../spresense-exported-sdk/nuttx/libs/libapps.a(nsh_syscmds.o)
 .ARM.attributes
                0x00000000000044f1       0x34 ../../spresense-exported-sdk/nuttx/libs/libapps.a(nsh_dbgcmds.o)
 .ARM.attributes
                0x0000000000004525       0x34 ../../spresense-exported-sdk/nuttx/libs/libapps.a(nsh_fsutils.o)
 .ARM.attributes
                0x0000000000004559       0x34 ../../spresense-exported-sdk/nuttx/libs/libapps.a(nsh_builtin.o)
 .ARM.attributes
                0x000000000000458d       0x34 ../../spresense-exported-sdk/nuttx/libs/libapps.a(nsh_netcmds.o)
 .ARM.attributes
                0x00000000000045c1       0x34 ../../spresense-exported-sdk/nuttx/libs/libapps.a(nsh_mntcmds.o)
 .ARM.attributes
                0x00000000000045f5       0x34 ../../spresense-exported-sdk/nuttx/libs/libapps.a(nsh_consolemain.o)
 .ARM.attributes
                0x0000000000004629       0x34 ../../spresense-exported-sdk/nuttx/libs/libapps.a(nsh_test.o)
 .ARM.attributes
                0x000000000000465d       0x34 ../../spresense-exported-sdk/nuttx/libs/libapps.a(exec_builtin.o)
 .ARM.attributes
                0x0000000000004691       0x34 ../../spresense-exported-sdk/nuttx/libs/libapps.a(readline_common.o)
 .ARM.attributes
                0x00000000000046c5       0x34 ../../spresense-exported-sdk/nuttx/libs/libapps.a(netlib_ipv4addrconv.o)
 .ARM.attributes
                0x00000000000046f9       0x34 ../../spresense-exported-sdk/nuttx/libs/libapps.a(netlib_ethaddrconv.o)
 .ARM.attributes
                0x000000000000472d       0x34 ../../spresense-exported-sdk/nuttx/libs/libapps.a(netlib_setifstatus.o)
 .ARM.attributes
                0x0000000000004761       0x34 ../../spresense-exported-sdk/nuttx/libs/libapps.a(netlib_setmacaddr.o)
 .ARM.attributes
                0x0000000000004795       0x34 ../../spresense-exported-sdk/nuttx/libs/libapps.a(netinit.o)
 .ARM.attributes
                0x00000000000047c9       0x34 ../../spresense-exported-sdk/nuttx/libs/libapps.a(mksmartfs.o)
 .ARM.attributes
                0x00000000000047fd       0x34 ../../spresense-exported-sdk/nuttx/libs/libapps.a(mkfatfs.o)
 .ARM.attributes
                0x0000000000004831       0x34 ../../spresense-exported-sdk/nuttx/libs/libapps.a(configfat.o)
 .ARM.attributes
                0x0000000000004865       0x34 ../../spresense-exported-sdk/nuttx/libs/libapps.a(writefat.o)
 .ARM.attributes
                0x0000000000004899       0x34 ../../spresense-exported-sdk/nuttx/libs/libapps.a(nsh_console.o)
 .ARM.attributes
                0x00000000000048cd       0x34 ../../spresense-exported-sdk/nuttx/libs/libapps.a(nsh_script.o)
 .ARM.attributes
                0x0000000000004901       0x34 ../../spresense-exported-sdk/nuttx/libs/libapps.a(nsh_session.o)
 .ARM.attributes
                0x0000000000004935       0x34 ../../spresense-exported-sdk/nuttx/libs/libapps.a(readline.o)
 .ARM.attributes
                0x0000000000004969       0x34 ../../spresense-exported-sdk/nuttx/libs/libnuttx.a(sched-clock_settime.o)
 .ARM.attributes
                0x000000000000499d       0x34 ../../spresense-exported-sdk/nuttx/libs/libnuttx.a(sched-env_getenv.o)
 .ARM.attributes
                0x00000000000049d1       0x34 ../../spresense-exported-sdk/nuttx/libs/libnuttx.a(sched-env_setenv.o)
 .ARM.attributes
                0x0000000000004a05       0x34 ../../spresense-exported-sdk/nuttx/libs/libnuttx.a(sched-env_unsetenv.o)
 .ARM.attributes
                0x0000000000004a39       0x34 ../../spresense-exported-sdk/nuttx/libs/libnuttx.a(sched-pthread_create.o)
 .ARM.attributes
                0x0000000000004a6d       0x34 ../../spresense-exported-sdk/nuttx/libs/libnuttx.a(sched-pthread_detach.o)
 .ARM.attributes
                0x0000000000004aa1       0x34 ../../spresense-exported-sdk/nuttx/libs/libnuttx.a(sched-pthread_exit.o)
 .ARM.attributes
                0x0000000000004ad5       0x34 ../../spresense-exported-sdk/nuttx/libs/libnuttx.a(sched-pthread_findjoininfo.o)
 .ARM.attributes
                0x0000000000004b09       0x34 ../../spresense-exported-sdk/nuttx/libs/libnuttx.a(sched-pthread_initialize.o)
 .ARM.attributes
                0x0000000000004b3d       0x34 ../../spresense-exported-sdk/nuttx/libs/libnuttx.a(sched-pthread_mutexinconsistent.o)
 .ARM.attributes
                0x0000000000004b71       0x34 ../../spresense-exported-sdk/nuttx/libs/libnuttx.a(sched-sched_getparam.o)
 .ARM.attributes
                0x0000000000004ba5       0x34 ../../spresense-exported-sdk/nuttx/libs/libnuttx.a(sched-sched_getscheduler.o)
 .ARM.attributes
                0x0000000000004bd9       0x34 ../../spresense-exported-sdk/nuttx/libs/libnuttx.a(sched-sched_setparam.o)
 .ARM.attributes
                0x0000000000004c0d       0x34 ../../spresense-exported-sdk/nuttx/libs/libnuttx.a(sched-sched_setpriority.o)
 .ARM.attributes
                0x0000000000004c41       0x34 ../../spresense-exported-sdk/nuttx/libs/libnuttx.a(sched-sched_waitpid.o)
 .ARM.attributes
                0x0000000000004c75       0x34 ../../spresense-exported-sdk/nuttx/libs/libnuttx.a(sched-task_spawn.o)
 .ARM.attributes
                0x0000000000004ca9       0x34 ../../spresense-exported-sdk/nuttx/libs/libnuttx.a(sched-task_spawnparms.o)
 .ARM.attributes
                0x0000000000004cdd       0x34 ../../spresense-exported-sdk/nuttx/libs/libnuttx.a(boards-boardctl.o)
 .ARM.attributes
                0x0000000000004d11       0x34 ../../spresense-exported-sdk/nuttx/libs/libnuttx.a(c-lib_asprintf.o)
 .ARM.attributes
                0x0000000000004d45       0x34 ../../spresense-exported-sdk/nuttx/libs/libnuttx.a(c-lib_builtin_forindex.o)
 .ARM.attributes
                0x0000000000004d79       0x34 ../../spresense-exported-sdk/nuttx/libs/libnuttx.a(c-lib_builtin_getname.o)
 .ARM.attributes
                0x0000000000004dad       0x34 ../../spresense-exported-sdk/nuttx/libs/libnuttx.a(c-lib_builtin_isavail.o)
 .ARM.attributes
                0x0000000000004de1       0x34 ../../spresense-exported-sdk/nuttx/libs/libnuttx.a(c-lib_chdir.o)
 .ARM.attributes
                0x0000000000004e15       0x34 ../../spresense-exported-sdk/nuttx/libs/libnuttx.a(c-lib_dirname.o)
 .ARM.attributes
                0x0000000000004e49       0x34 ../../spresense-exported-sdk/nuttx/libs/libnuttx.a(c-lib_fclose.o)
 .ARM.attributes
                0x0000000000004e7d       0x34 ../../spresense-exported-sdk/nuttx/libs/libnuttx.a(c-lib_fflush.o)
 .ARM.attributes
                0x0000000000004eb1       0x34 ../../spresense-exported-sdk/nuttx/libs/libnuttx.a(c-lib_fgets.o)
 .ARM.attributes
                0x0000000000004ee5       0x34 ../../spresense-exported-sdk/nuttx/libs/libnuttx.a(c-lib_fopen.o)
 .ARM.attributes
                0x0000000000004f19       0x34 ../../spresense-exported-sdk/nuttx/libs/libnuttx.a(c-lib_fprintf.o)
 .ARM.attributes
                0x0000000000004f4d       0x34 ../../spresense-exported-sdk/nuttx/libs/libnuttx.a(c-lib_fputs.o)
 .ARM.attributes
                0x0000000000004f81       0x34 ../../spresense-exported-sdk/nuttx/libs/libnuttx.a(c-lib_ftell.o)
 .ARM.attributes
                0x0000000000004fb5       0x34 ../../spresense-exported-sdk/nuttx/libs/libnuttx.a(c-lib_fwrite.o)
 .ARM.attributes
                0x0000000000004fe9       0x34 ../../spresense-exported-sdk/nuttx/libs/libnuttx.a(c-lib_getopt.o)
 .ARM.attributes
                0x000000000000501d       0x34 ../../spresense-exported-sdk/nuttx/libs/libnuttx.a(c-lib_gmtimer.o)
 .ARM.attributes
                0x0000000000005051       0x34 ../../spresense-exported-sdk/nuttx/libs/libnuttx.a(c-lib_isleapyear.o)
 .ARM.attributes
                0x0000000000005085       0x34 ../../spresense-exported-sdk/nuttx/libs/libnuttx.a(c-lib_libfgets.o)
 .ARM.attributes
                0x00000000000050b9       0x34 ../../spresense-exported-sdk/nuttx/libs/libnuttx.a(c-lib_memcmp.o)
 .ARM.attributes
                0x00000000000050ed       0x34 ../../spresense-exported-sdk/nuttx/libs/libnuttx.a(c-lib_mkfifo.o)
 .ARM.attributes
                0x0000000000005121       0x34 ../../spresense-exported-sdk/nuttx/libs/libnuttx.a(c-lib_mktime.o)
 .ARM.attributes
                0x0000000000005155       0x34 ../../spresense-exported-sdk/nuttx/libs/libnuttx.a(c-lib_psa_init.o)
 .ARM.attributes
                0x0000000000005189       0x34 ../../spresense-exported-sdk/nuttx/libs/libnuttx.a(c-lib_psa_setflags.o)
 .ARM.attributes
                0x00000000000051bd       0x34 ../../spresense-exported-sdk/nuttx/libs/libnuttx.a(c-lib_psa_setschedparam.o)
 .ARM.attributes
                0x00000000000051f1       0x34 ../../spresense-exported-sdk/nuttx/libs/libnuttx.a(c-lib_psa_setschedpolicy.o)
 .ARM.attributes
                0x0000000000005225       0x34 ../../spresense-exported-sdk/nuttx/libs/libnuttx.a(c-lib_psa_setstacksize.o)
 .ARM.attributes
                0x0000000000005259       0x34 ../../spresense-exported-sdk/nuttx/libs/libnuttx.a(c-lib_psfa_addopen.o)
 .ARM.attributes
                0x000000000000528d       0x34 ../../spresense-exported-sdk/nuttx/libs/libnuttx.a(c-lib_psfa_destroy.o)
 .ARM.attributes
                0x00000000000052c1       0x34 ../../spresense-exported-sdk/nuttx/libs/libnuttx.a(c-lib_psfa_init.o)
 .ARM.attributes
                0x00000000000052f5       0x34 ../../spresense-exported-sdk/nuttx/libs/libnuttx.a(c-lib_sleep.o)
 .ARM.attributes
                0x0000000000005329       0x34 ../../spresense-exported-sdk/nuttx/libs/libnuttx.a(c-lib_strcat.o)
 .ARM.attributes
                0x000000000000535d       0x34 ../../spresense-exported-sdk/nuttx/libs/libnuttx.a(c-lib_strftime.o)
 .ARM.attributes
                0x0000000000005391       0x34 ../../spresense-exported-sdk/nuttx/libs/libnuttx.a(c-lib_strncasecmp.o)
 .ARM.attributes
                0x00000000000053c5       0x34 ../../spresense-exported-sdk/nuttx/libs/libnuttx.a(c-lib_strtokr.o)
 .ARM.attributes
                0x00000000000053f9       0x34 ../../spresense-exported-sdk/nuttx/libs/libnuttx.a(c-lib_usleep.o)
 .ARM.attributes
                0x000000000000542d       0x34 ../../spresense-exported-sdk/nuttx/libs/libnuttx.a(c-lib_utsname.o)
 .ARM.attributes
                0x0000000000005461       0x34 ../../spresense-exported-sdk/nuttx/libs/libnuttx.a(c-lib_vasprintf.o)
 .ARM.attributes
                0x0000000000005495       0x34 ../../spresense-exported-sdk/nuttx/libs/libnuttx.a(c-pthread_attr_init.o)
 .ARM.attributes
                0x00000000000054c9       0x34 ../../spresense-exported-sdk/nuttx/libs/libnuttx.a(c-pthread_attr_setschedparam.o)
 .ARM.attributes
                0x00000000000054fd       0x34 ../../spresense-exported-sdk/nuttx/libs/libnuttx.a(c-pthread_attr_setschedpolicy.o)
 .ARM.attributes
                0x0000000000005531       0x34 ../../spresense-exported-sdk/nuttx/libs/libnuttx.a(c-sched_getprioritymax.o)
 .ARM.attributes
                0x0000000000005565       0x34 ../../spresense-exported-sdk/nuttx/libs/libnuttx.a(c-sched_getprioritymin.o)
 .ARM.attributes
                0x0000000000005599       0x34 ../../spresense-exported-sdk/nuttx/libs/libnuttx.a(arch-up_usestack.o)
 .ARM.attributes
                0x00000000000055cd       0x34 ../../spresense-exported-sdk/nuttx/libs/libnuttx.a(net-socket.o)
 .ARM.attributes
                0x0000000000005601       0x34 ../../spresense-exported-sdk/nuttx/libs/libnuttx.a(net-usrsock_sockif.o)
 .ARM.attributes
                0x0000000000005635       0x34 ../../spresense-exported-sdk/nuttx/libs/libnuttx.a(fs-fs_closedir.o)
 .ARM.attributes
                0x0000000000005669       0x34 ../../spresense-exported-sdk/nuttx/libs/libnuttx.a(fs-fs_dup2.o)
 .ARM.attributes
                0x000000000000569d       0x34 ../../spresense-exported-sdk/nuttx/libs/libnuttx.a(fs-fs_ioctl.o)
 .ARM.attributes
                0x00000000000056d1       0x34 ../../spresense-exported-sdk/nuttx/libs/libnuttx.a(fs-fs_mkdir.o)
 .ARM.attributes
                0x0000000000005705       0x34 ../../spresense-exported-sdk/nuttx/libs/libnuttx.a(fs-fs_mount.o)
 .ARM.attributes
                0x0000000000005739       0x34 ../../spresense-exported-sdk/nuttx/libs/libnuttx.a(fs-fs_opendir.o)
 .ARM.attributes
                0x000000000000576d       0x34 ../../spresense-exported-sdk/nuttx/libs/libnuttx.a(fs-fs_readdir.o)
 .ARM.attributes
                0x00000000000057a1       0x34 ../../spresense-exported-sdk/nuttx/libs/libnuttx.a(fs-fs_read.o)
 .ARM.attributes
                0x00000000000057d5       0x34 ../../spresense-exported-sdk/nuttx/libs/libnuttx.a(fs-fs_rename.o)
 .ARM.attributes
                0x0000000000005809       0x34 ../../spresense-exported-sdk/nuttx/libs/libnuttx.a(fs-fs_rmdir.o)
 .ARM.attributes
                0x000000000000583d       0x34 ../../spresense-exported-sdk/nuttx/libs/libnuttx.a(fs-fs_romfs.o)
 .ARM.attributes
                0x0000000000005871       0x34 ../../spresense-exported-sdk/nuttx/libs/libnuttx.a(fs-fs_romfsutil.o)
 .ARM.attributes
                0x00000000000058a5       0x34 ../../spresense-exported-sdk/nuttx/libs/libnuttx.a(fs-fs_umount2.o)
 .ARM.attributes
                0x00000000000058d9       0x34 ../../spresense-exported-sdk/nuttx/libs/libnuttx.a(fs-smartfs_smart.o)
 .ARM.attributes
                0x000000000000590d       0x34 ../../spresense-exported-sdk/nuttx/libs/libnuttx.a(board-cxd56_appinit.o)
 .ARM.attributes
                0x0000000000005941       0x34 ../../spresense-exported-sdk/nuttx/libs/libnuttx.a(board-cxd56_bringup.o)
 .ARM.attributes
                0x0000000000005975       0x34 ../../spresense-exported-sdk/nuttx/libs/libnuttx.a(board-cxd56_clock.o)
 .ARM.attributes
                0x00000000000059a9       0x34 ../../spresense-exported-sdk/nuttx/libs/libnuttx.a(board-cxd56_flash.o)
 .ARM.attributes
                0x00000000000059dd       0x34 ../../spresense-exported-sdk/nuttx/libs/libnuttx.a(board-cxd56_i2cdev.o)
 .ARM.attributes
                0x0000000000005a11       0x34 ../../spresense-exported-sdk/nuttx/libs/libnuttx.a(board-cxd56_ioctl.o)
 .ARM.attributes
                0x0000000000005a45       0x34 ../../spresense-exported-sdk/nuttx/libs/libnuttx.a(board-cxd56_power.o)
 .ARM.attributes
                0x0000000000005a79       0x34 ../../spresense-exported-sdk/nuttx/libs/libnuttx.a(board-cxd56_pwm.o)
 .ARM.attributes
                0x0000000000005aad       0x34 ../../spresense-exported-sdk/nuttx/libs/libnuttx.a(board-cxd56_uid.o)
 .ARM.attributes
                0x0000000000005ae1       0x34 ../../spresense-exported-sdk/nuttx/libs/libnuttx.a(board-cxd56_usbmsc.o)
 .ARM.attributes
                0x0000000000005b15       0x34 ../../spresense-exported-sdk/nuttx/libs/libnuttx.a(sched-env_findvar.o)
 .ARM.attributes
                0x0000000000005b49       0x34 ../../spresense-exported-sdk/nuttx/libs/libnuttx.a(sched-env_removevar.o)
 .ARM.attributes
                0x0000000000005b7d       0x34 ../../spresense-exported-sdk/nuttx/libs/libnuttx.a(sched-group_join.o)
 .ARM.attributes
                0x0000000000005bb1       0x34 ../../spresense-exported-sdk/nuttx/libs/libnuttx.a(sched-pthread_completejoin.o)
 .ARM.attributes
                0x0000000000005be5       0x34 ../../spresense-exported-sdk/nuttx/libs/libnuttx.a(sched-sched_setscheduler.o)
 .ARM.attributes
                0x0000000000005c19       0x34 ../../spresense-exported-sdk/nuttx/libs/libnuttx.a(sched-task_getgroup.o)
 .ARM.attributes
                0x0000000000005c4d       0x34 ../../spresense-exported-sdk/nuttx/libs/libnuttx.a(sched-task_reparent.o)
 .ARM.attributes
                0x0000000000005c81       0x34 ../../spresense-exported-sdk/nuttx/libs/libnuttx.a(drivers-cdcacm.o)
 .ARM.attributes
                0x0000000000005cb5       0x34 ../../spresense-exported-sdk/nuttx/libs/libnuttx.a(drivers-fifo.o)
 .ARM.attributes
                0x0000000000005ce9       0x34 ../../spresense-exported-sdk/nuttx/libs/libnuttx.a(drivers-i2c_driver.o)
 .ARM.attributes
                0x0000000000005d1d       0x34 ../../spresense-exported-sdk/nuttx/libs/libnuttx.a(drivers-mkrd.o)
 .ARM.attributes
                0x0000000000005d51       0x34 ../../spresense-exported-sdk/nuttx/libs/libnuttx.a(drivers-pipe_common.o)
 .ARM.attributes
                0x0000000000005d85       0x34 ../../spresense-exported-sdk/nuttx/libs/libnuttx.a(drivers-ramdisk.o)
 .ARM.attributes
                0x0000000000005db9       0x34 ../../spresense-exported-sdk/nuttx/libs/libnuttx.a(drivers-rtc.o)
 .ARM.attributes
                0x0000000000005ded       0x34 ../../spresense-exported-sdk/nuttx/libs/libnuttx.a(drivers-smart.o)
 .ARM.attributes
                0x0000000000005e21       0x34 ../../spresense-exported-sdk/nuttx/libs/libnuttx.a(drivers-usbmsc.o)
 .ARM.attributes
                0x0000000000005e55       0x34 ../../spresense-exported-sdk/nuttx/libs/libnuttx.a(drivers-usbmsc_scsi.o)
 .ARM.attributes
                0x0000000000005e89       0x34 ../../spresense-exported-sdk/nuttx/libs/libnuttx.a(c-lib_calendar2utc.o)
 .ARM.attributes
                0x0000000000005ebd       0x34 ../../spresense-exported-sdk/nuttx/libs/libnuttx.a(c-lib_crc8.o)
 .ARM.attributes
                0x0000000000005ef1       0x34 ../../spresense-exported-sdk/nuttx/libs/libnuttx.a(c-lib_daysbeforemonth.o)
 .ARM.attributes
                0x0000000000005f25       0x34 ../../spresense-exported-sdk/nuttx/libs/libnuttx.a(c-lib_fgetc.o)
 .ARM.attributes
                0x0000000000005f59       0x34 ../../spresense-exported-sdk/nuttx/libs/libnuttx.a(c-lib_gethostname.o)
 .ARM.attributes
                0x0000000000005f8d       0x34 ../../spresense-exported-sdk/nuttx/libs/libnuttx.a(c-lib_libfread.o)
 .ARM.attributes
                0x0000000000005fc1       0x34 ../../spresense-exported-sdk/nuttx/libs/libnuttx.a(c-lib_psfa_addaction.o)
 .ARM.attributes
                0x0000000000005ff5       0x34 ../../spresense-exported-sdk/nuttx/libs/libnuttx.a(arch-cxd56_i2c.o)
 .ARM.attributes
                0x0000000000006029       0x34 ../../spresense-exported-sdk/nuttx/libs/libnuttx.a(arch-cxd56_rtc_lowerhalf.o)
 .ARM.attributes
                0x000000000000605d       0x34 ../../spresense-exported-sdk/nuttx/libs/libnuttx.a(arch-cxd56_scu.o)
 .ARM.attributes
                0x0000000000006091       0x34 ../../spresense-exported-sdk/nuttx/libs/libnuttx.a(arch-cxd56_sfc.o)
 .ARM.attributes
                0x00000000000060c5       0x34 ../../spresense-exported-sdk/nuttx/libs/libnuttx.a(arch-cxd56_sysctl.o)
 .ARM.attributes
                0x00000000000060f9       0x34 ../../spresense-exported-sdk/nuttx/libs/libnuttx.a(arch-cxd56_timer.o)
 .ARM.attributes
                0x000000000000612d       0x34 ../../spresense-exported-sdk/nuttx/libs/libnuttx.a(arch-cxd56_udmac.o)
 .ARM.attributes
                0x0000000000006161       0x34 ../../spresense-exported-sdk/nuttx/libs/libnuttx.a(arch-cxd56_uid.o)
 .ARM.attributes
                0x0000000000006195       0x34 ../../spresense-exported-sdk/nuttx/libs/libnuttx.a(arch-cxd56_wdt.o)
 .ARM.attributes
                0x00000000000061c9       0x34 ../../spresense-exported-sdk/nuttx/libs/libnuttx.a(net-netdev_ioctl.o)
 .ARM.attributes
                0x00000000000061fd       0x34 ../../spresense-exported-sdk/nuttx/libs/libnuttx.a(net-net_dupsd2.o)
 .ARM.attributes
                0x0000000000006231       0x34 ../../spresense-exported-sdk/nuttx/libs/libnuttx.a(net-net_sockif.o)
 .ARM.attributes
                0x0000000000006265       0x34 ../../spresense-exported-sdk/nuttx/libs/libnuttx.a(net-recvfrom.o)
 .ARM.attributes
                0x0000000000006299       0x34 ../../spresense-exported-sdk/nuttx/libs/libnuttx.a(net-usrsock_accept.o)
 .ARM.attributes
                0x00000000000062cd       0x34 ../../spresense-exported-sdk/nuttx/libs/libnuttx.a(net-usrsock_bind.o)
 .ARM.attributes
                0x0000000000006301       0x34 ../../spresense-exported-sdk/nuttx/libs/libnuttx.a(net-usrsock_close.o)
 .ARM.attributes
                0x0000000000006335       0x34 ../../spresense-exported-sdk/nuttx/libs/libnuttx.a(net-usrsock_connect.o)
 .ARM.attributes
                0x0000000000006369       0x34 ../../spresense-exported-sdk/nuttx/libs/libnuttx.a(net-usrsock_getpeername.o)
 .ARM.attributes
                0x000000000000639d       0x34 ../../spresense-exported-sdk/nuttx/libs/libnuttx.a(net-usrsock_getsockname.o)
 .ARM.attributes
                0x00000000000063d1       0x34 ../../spresense-exported-sdk/nuttx/libs/libnuttx.a(net-usrsock_ioctl.o)
 .ARM.attributes
                0x0000000000006405       0x34 ../../spresense-exported-sdk/nuttx/libs/libnuttx.a(net-usrsock_listen.o)
 .ARM.attributes
                0x0000000000006439       0x34 ../../spresense-exported-sdk/nuttx/libs/libnuttx.a(net-usrsock_poll.o)
 .ARM.attributes
                0x000000000000646d       0x34 ../../spresense-exported-sdk/nuttx/libs/libnuttx.a(net-usrsock_recvfrom.o)
 .ARM.attributes
                0x00000000000064a1       0x34 ../../spresense-exported-sdk/nuttx/libs/libnuttx.a(net-usrsock_sendto.o)
 .ARM.attributes
                0x00000000000064d5       0x34 ../../spresense-exported-sdk/nuttx/libs/libnuttx.a(net-usrsock_socket.o)
 .ARM.attributes
                0x0000000000006509       0x34 ../../spresense-exported-sdk/nuttx/libs/libnuttx.a(fs-fs_fat32.o)
 .ARM.attributes
                0x000000000000653d       0x34 ../../spresense-exported-sdk/nuttx/libs/libnuttx.a(fs-fs_fat32util.o)
 .ARM.attributes
                0x0000000000006571       0x34 ../../spresense-exported-sdk/nuttx/libs/libnuttx.a(fs-fs_unregisterblockdriver.o)
 .ARM.attributes
                0x00000000000065a5       0x34 ../../spresense-exported-sdk/nuttx/libs/libnuttx.a(fs-fs_unregisterdriver.o)
 .ARM.attributes
                0x00000000000065d9       0x34 ../../spresense-exported-sdk/nuttx/libs/libnuttx.a(drivers-cdcacm_desc.o)
 .ARM.attributes
                0x000000000000660d       0x34 ../../spresense-exported-sdk/nuttx/libs/libnuttx.a(drivers-timer.o)
 .ARM.attributes
                0x0000000000006641       0x34 ../../spresense-exported-sdk/nuttx/libs/libnuttx.a(drivers-usbmsc_desc.o)
 .ARM.attributes
                0x0000000000006675       0x34 ../../spresense-exported-sdk/nuttx/libs/libnuttx.a(drivers-watchdog.o)
 .ARM.attributes
                0x00000000000066a9       0x34 ../../spresense-exported-sdk/nuttx/libs/libnuttx.a(arch-cxd56_scufifo.o)
 .ARM.attributes
                0x00000000000066dd       0x34 ../../spresense-exported-sdk/nuttx/libs/libnuttx.a(net-net_clone.o)
 .ARM.attributes
                0x0000000000006711       0x34 ../../spresense-exported-sdk/nuttx/libs/libnuttx.a(fs-fs_fat32dirent.o)
 .ARM.attributes
                0x0000000000006745       0x39 ../../spresense-exported-sdk/nuttx/libs/libapps.a(builtin_list.o)
 .ARM.attributes
                0x000000000000677e       0x34 ../../spresense-exported-sdk/nuttx/libs/libapps.a(hello_main.o)
 .ARM.attributes
                0x00000000000067b2       0x39 ../../spresense-exported-sdk/nuttx/libs/libnuttx.a(c-lib_sin.o)
 .ARM.attributes
                0x00000000000067eb       0x39 ../../spresense-exported-sdk/nuttx/libs/libnuttx.a(c-lib_fmod.o)
 .ARM.attributes
                0x0000000000006824       0x39 ../../spresense-exported-sdk/nuttx/libs/libnuttx.a(c-lib_modf.o)
 .ARM.attributes
                0x000000000000685d       0x39 ../../spresense-exported-sdk/nuttx/libs/libnuttx.a(c-lib_fabs.o)

.debug_abbrev
 *(.debug_abbrev)

.debug_info
 *(.debug_info)

.debug_line
 *(.debug_line)

.debug_pubnames
 *(.debug_pubnames)

.debug_aranges
 *(.debug_aranges)
LOAD CMakeFiles/hellocpp.dir/HelloWorld.cpp.obj
LOAD CMakeFiles/hellocpp.dir/main.cpp.obj
START GROUP
LOAD ../../spresense-exported-sdk/nuttx/libs/libapps.a
LOAD ../../spresense-exported-sdk/nuttx/libs/libnuttx.a
END GROUP
OUTPUT(hellocpp.elf elf32-littlearm)
